
emojivm:     file format elf64-x86-64


Disassembly of section .init:

0000000000002738 <.init>:
    2738:	48 83 ec 08          	sub    rsp,0x8
    273c:	48 8b 05 a5 b8 20 00 	mov    rax,QWORD PTR [rip+0x20b8a5]        # 20dfe8 <__gmon_start__>
    2743:	48 85 c0             	test   rax,rax
    2746:	74 02                	je     274a <_Znam@plt-0x16>
    2748:	ff d0                	call   rax
    274a:	48 83 c4 08          	add    rsp,0x8
    274e:	c3                   	ret    

Disassembly of section .plt:

0000000000002750 <_Znam@plt-0x10>:
    2750:	ff 35 0a b6 20 00    	push   QWORD PTR [rip+0x20b60a]        # 20dd60 <_ZTVSt19__codecvt_utf8_baseIwE@@GLIBCXX_3.4.21+0x2e0>
    2756:	ff 25 0c b6 20 00    	jmp    QWORD PTR [rip+0x20b60c]        # 20dd68 <_ZTVSt19__codecvt_utf8_baseIwE@@GLIBCXX_3.4.21+0x2e8>
    275c:	0f 1f 40 00          	nop    DWORD PTR [rax+0x0]

0000000000002760 <_Znam@plt>:
    2760:	ff 25 0a b6 20 00    	jmp    QWORD PTR [rip+0x20b60a]        # 20dd70 <_Znam@GLIBCXX_3.4>
    2766:	68 00 00 00 00       	push   0x0
    276b:	e9 e0 ff ff ff       	jmp    2750 <_Znam@plt-0x10>

0000000000002770 <setvbuf@plt>:
    2770:	ff 25 02 b6 20 00    	jmp    QWORD PTR [rip+0x20b602]        # 20dd78 <setvbuf@GLIBC_2.2.5>
    2776:	68 01 00 00 00       	push   0x1
    277b:	e9 d0 ff ff ff       	jmp    2750 <_Znam@plt-0x10>

0000000000002780 <_ZNKSt7__cxx1112basic_stringIwSt11char_traitsIwESaIwEE13get_allocatorEv@plt>:
    2780:	ff 25 fa b5 20 00    	jmp    QWORD PTR [rip+0x20b5fa]        # 20dd80 <_ZNKSt7__cxx1112basic_stringIwSt11char_traitsIwESaIwEE13get_allocatorEv@GLIBCXX_3.4.21>
    2786:	68 02 00 00 00       	push   0x2
    278b:	e9 c0 ff ff ff       	jmp    2750 <_Znam@plt-0x10>

0000000000002790 <_ZSt29_Rb_tree_insert_and_rebalancebPSt18_Rb_tree_node_baseS0_RS_@plt>:
    2790:	ff 25 f2 b5 20 00    	jmp    QWORD PTR [rip+0x20b5f2]        # 20dd88 <_ZSt29_Rb_tree_insert_and_rebalancebPSt18_Rb_tree_node_baseS0_RS_@GLIBCXX_3.4>
    2796:	68 03 00 00 00       	push   0x3
    279b:	e9 b0 ff ff ff       	jmp    2750 <_Znam@plt-0x10>

00000000000027a0 <_ZStlsIwSt11char_traitsIwEERSt13basic_ostreamIT_T0_ES6_PKc@plt>:
    27a0:	ff 25 ea b5 20 00    	jmp    QWORD PTR [rip+0x20b5ea]        # 20dd90 <_ZStlsIwSt11char_traitsIwEERSt13basic_ostreamIT_T0_ES6_PKc@GLIBCXX_3.4>
    27a6:	68 04 00 00 00       	push   0x4
    27ab:	e9 a0 ff ff ff       	jmp    2750 <_Znam@plt-0x10>

00000000000027b0 <_ZNSolsEPSt15basic_streambufIcSt11char_traitsIcEE@plt>:
    27b0:	ff 25 e2 b5 20 00    	jmp    QWORD PTR [rip+0x20b5e2]        # 20dd98 <_ZNSolsEPSt15basic_streambufIcSt11char_traitsIcEE@GLIBCXX_3.4>
    27b6:	68 05 00 00 00       	push   0x5
    27bb:	e9 90 ff ff ff       	jmp    2750 <_Znam@plt-0x10>

00000000000027c0 <_ZNSt7codecvtIwc11__mbstate_tEC2Em@plt>:
    27c0:	ff 25 da b5 20 00    	jmp    QWORD PTR [rip+0x20b5da]        # 20dda0 <_ZNSt7codecvtIwc11__mbstate_tEC2Em@GLIBCXX_3.4>
    27c6:	68 06 00 00 00       	push   0x6
    27cb:	e9 80 ff ff ff       	jmp    2750 <_Znam@plt-0x10>

00000000000027d0 <_ZNSt7__cxx1112basic_stringIwSt11char_traitsIwESaIwEE7_M_dataEPw@plt>:
    27d0:	ff 25 d2 b5 20 00    	jmp    QWORD PTR [rip+0x20b5d2]        # 20dda8 <_ZNSt7__cxx1112basic_stringIwSt11char_traitsIwESaIwEE7_M_dataEPw@GLIBCXX_3.4.21>
    27d6:	68 07 00 00 00       	push   0x7
    27db:	e9 70 ff ff ff       	jmp    2750 <_Znam@plt-0x10>

00000000000027e0 <_ZNSt7__cxx1119basic_ostringstreamIcSt11char_traitsIcESaIcEED1Ev@plt>:
    27e0:	ff 25 ca b5 20 00    	jmp    QWORD PTR [rip+0x20b5ca]        # 20ddb0 <_ZNSt7__cxx1119basic_ostringstreamIcSt11char_traitsIcESaIcEED1Ev@GLIBCXX_3.4.21>
    27e6:	68 08 00 00 00       	push   0x8
    27eb:	e9 60 ff ff ff       	jmp    2750 <_Znam@plt-0x10>

00000000000027f0 <_ZNSt14basic_ifstreamIcSt11char_traitsIcEED1Ev@plt>:
    27f0:	ff 25 c2 b5 20 00    	jmp    QWORD PTR [rip+0x20b5c2]        # 20ddb8 <_ZNSt14basic_ifstreamIcSt11char_traitsIcEED1Ev@GLIBCXX_3.4>
    27f6:	68 09 00 00 00       	push   0x9
    27fb:	e9 50 ff ff ff       	jmp    2750 <_Znam@plt-0x10>

0000000000002800 <_ZNSt19__codecvt_utf8_baseIwED2Ev@plt>:
    2800:	ff 25 ba b5 20 00    	jmp    QWORD PTR [rip+0x20b5ba]        # 20ddc0 <_ZNSt19__codecvt_utf8_baseIwED2Ev@GLIBCXX_3.4.21>
    2806:	68 0a 00 00 00       	push   0xa
    280b:	e9 40 ff ff ff       	jmp    2750 <_Znam@plt-0x10>

0000000000002810 <_ZNSt7__cxx1112basic_stringIwSt11char_traitsIwESaIwEE4backEv@plt>:
    2810:	ff 25 b2 b5 20 00    	jmp    QWORD PTR [rip+0x20b5b2]        # 20ddc8 <_ZNSt7__cxx1112basic_stringIwSt11char_traitsIwESaIwEE4backEv@GLIBCXX_3.4.21>
    2816:	68 0b 00 00 00       	push   0xb
    281b:	e9 30 ff ff ff       	jmp    2750 <_Znam@plt-0x10>

0000000000002820 <write@plt>:
    2820:	ff 25 aa b5 20 00    	jmp    QWORD PTR [rip+0x20b5aa]        # 20ddd0 <write@GLIBC_2.2.5>
    2826:	68 0c 00 00 00       	push   0xc
    282b:	e9 20 ff ff ff       	jmp    2750 <_Znam@plt-0x10>

0000000000002830 <_ZNSt7__cxx1112basic_stringIwSt11char_traitsIwESaIwEE13_M_local_dataEv@plt>:
    2830:	ff 25 a2 b5 20 00    	jmp    QWORD PTR [rip+0x20b5a2]        # 20ddd8 <_ZNSt7__cxx1112basic_stringIwSt11char_traitsIwESaIwEE13_M_local_dataEv@GLIBCXX_3.4.21>
    2836:	68 0d 00 00 00       	push   0xd
    283b:	e9 10 ff ff ff       	jmp    2750 <_Znam@plt-0x10>

0000000000002840 <_ZSt17__throw_bad_allocv@plt>:
    2840:	ff 25 9a b5 20 00    	jmp    QWORD PTR [rip+0x20b59a]        # 20dde0 <_ZSt17__throw_bad_allocv@GLIBCXX_3.4>
    2846:	68 0e 00 00 00       	push   0xe
    284b:	e9 00 ff ff ff       	jmp    2750 <_Znam@plt-0x10>

0000000000002850 <__cxa_begin_catch@plt>:
    2850:	ff 25 92 b5 20 00    	jmp    QWORD PTR [rip+0x20b592]        # 20dde8 <__cxa_begin_catch@CXXABI_1.3>
    2856:	68 0f 00 00 00       	push   0xf
    285b:	e9 f0 fe ff ff       	jmp    2750 <_Znam@plt-0x10>

0000000000002860 <_ZNSt7__cxx1112basic_stringIwSt11char_traitsIwESaIwEE12_Alloc_hiderC1EPwRKS3_@plt>:
    2860:	ff 25 8a b5 20 00    	jmp    QWORD PTR [rip+0x20b58a]        # 20ddf0 <_ZNSt7__cxx1112basic_stringIwSt11char_traitsIwESaIwEE12_Alloc_hiderC1EPwRKS3_@GLIBCXX_3.4.21>
    2866:	68 10 00 00 00       	push   0x10
    286b:	e9 e0 fe ff ff       	jmp    2750 <_Znam@plt-0x10>

0000000000002870 <strlen@plt>:
    2870:	ff 25 82 b5 20 00    	jmp    QWORD PTR [rip+0x20b582]        # 20ddf8 <strlen@GLIBC_2.2.5>
    2876:	68 11 00 00 00       	push   0x11
    287b:	e9 d0 fe ff ff       	jmp    2750 <_Znam@plt-0x10>

0000000000002880 <_ZNSaIwEC1Ev@plt>:
    2880:	ff 25 7a b5 20 00    	jmp    QWORD PTR [rip+0x20b57a]        # 20de00 <_ZNSaIwEC1Ev@GLIBCXX_3.4>
    2886:	68 12 00 00 00       	push   0x12
    288b:	e9 c0 fe ff ff       	jmp    2750 <_Znam@plt-0x10>

0000000000002890 <_ZNKSt7__cxx1112basic_stringIwSt11char_traitsIwESaIwEE7_M_dataEv@plt>:
    2890:	ff 25 72 b5 20 00    	jmp    QWORD PTR [rip+0x20b572]        # 20de08 <_ZNKSt7__cxx1112basic_stringIwSt11char_traitsIwESaIwEE7_M_dataEv@GLIBCXX_3.4.21>
    2896:	68 13 00 00 00       	push   0x13
    289b:	e9 b0 fe ff ff       	jmp    2750 <_Znam@plt-0x10>

00000000000028a0 <_ZNSt7__cxx1112basic_stringIwSt11char_traitsIwESaIwEEC1Ev@plt>:
    28a0:	ff 25 6a b5 20 00    	jmp    QWORD PTR [rip+0x20b56a]        # 20de10 <_ZNSt7__cxx1112basic_stringIwSt11char_traitsIwESaIwEEC1Ev@GLIBCXX_3.4.21>
    28a6:	68 14 00 00 00       	push   0x14
    28ab:	e9 a0 fe ff ff       	jmp    2750 <_Znam@plt-0x10>

00000000000028b0 <memset@plt>:
    28b0:	ff 25 62 b5 20 00    	jmp    QWORD PTR [rip+0x20b562]        # 20de18 <memset@GLIBC_2.2.5>
    28b6:	68 15 00 00 00       	push   0x15
    28bb:	e9 90 fe ff ff       	jmp    2750 <_Znam@plt-0x10>

00000000000028c0 <_ZNSt7__cxx1112basic_stringIcSt11char_traitsIcESaIcEED1Ev@plt>:
    28c0:	ff 25 5a b5 20 00    	jmp    QWORD PTR [rip+0x20b55a]        # 20de20 <_ZNSt7__cxx1112basic_stringIcSt11char_traitsIcESaIcEED1Ev@GLIBCXX_3.4.21>
    28c6:	68 16 00 00 00       	push   0x16
    28cb:	e9 80 fe ff ff       	jmp    2750 <_Znam@plt-0x10>

00000000000028d0 <_ZNSt13basic_ostreamIwSt11char_traitsIwEElsEm@plt>:
    28d0:	ff 25 52 b5 20 00    	jmp    QWORD PTR [rip+0x20b552]        # 20de28 <_ZNSt13basic_ostreamIwSt11char_traitsIwEElsEm@GLIBCXX_3.4>
    28d6:	68 17 00 00 00       	push   0x17
    28db:	e9 70 fe ff ff       	jmp    2750 <_Znam@plt-0x10>

00000000000028e0 <_ZSt18_Rb_tree_incrementPSt18_Rb_tree_node_base@plt>:
    28e0:	ff 25 4a b5 20 00    	jmp    QWORD PTR [rip+0x20b54a]        # 20de30 <_ZSt18_Rb_tree_incrementPSt18_Rb_tree_node_base@GLIBCXX_3.4>
    28e6:	68 18 00 00 00       	push   0x18
    28eb:	e9 60 fe ff ff       	jmp    2750 <_Znam@plt-0x10>

00000000000028f0 <_ZNKSt7__cxx1112basic_stringIcSt11char_traitsIcESaIcEE4sizeEv@plt>:
    28f0:	ff 25 42 b5 20 00    	jmp    QWORD PTR [rip+0x20b542]        # 20de38 <_ZNKSt7__cxx1112basic_stringIcSt11char_traitsIcESaIcEE4sizeEv@GLIBCXX_3.4.21>
    28f6:	68 19 00 00 00       	push   0x19
    28fb:	e9 50 fe ff ff       	jmp    2750 <_Znam@plt-0x10>

0000000000002900 <_ZSt19__throw_logic_errorPKc@plt>:
    2900:	ff 25 3a b5 20 00    	jmp    QWORD PTR [rip+0x20b53a]        # 20de40 <_ZSt19__throw_logic_errorPKc@GLIBCXX_3.4>
    2906:	68 1a 00 00 00       	push   0x1a
    290b:	e9 40 fe ff ff       	jmp    2750 <_Znam@plt-0x10>

0000000000002910 <_ZNKSt7__cxx1112basic_stringIwSt11char_traitsIwESaIwEE4sizeEv@plt>:
    2910:	ff 25 32 b5 20 00    	jmp    QWORD PTR [rip+0x20b532]        # 20de48 <_ZNKSt7__cxx1112basic_stringIwSt11char_traitsIwESaIwEE4sizeEv@GLIBCXX_3.4.21>
    2916:	68 1b 00 00 00       	push   0x1b
    291b:	e9 30 fe ff ff       	jmp    2750 <_Znam@plt-0x10>

0000000000002920 <_ZSt19__throw_range_errorPKc@plt>:
    2920:	ff 25 2a b5 20 00    	jmp    QWORD PTR [rip+0x20b52a]        # 20de50 <_ZSt19__throw_range_errorPKc@GLIBCXX_3.4>
    2926:	68 1c 00 00 00       	push   0x1c
    292b:	e9 20 fe ff ff       	jmp    2750 <_Znam@plt-0x10>

0000000000002930 <_ZNSt7__cxx1119basic_ostringstreamIcSt11char_traitsIcESaIcEEC1ESt13_Ios_Openmode@plt>:
    2930:	ff 25 22 b5 20 00    	jmp    QWORD PTR [rip+0x20b522]        # 20de58 <_ZNSt7__cxx1119basic_ostringstreamIcSt11char_traitsIcESaIcEEC1ESt13_Ios_Openmode@GLIBCXX_3.4.21>
    2936:	68 1d 00 00 00       	push   0x1d
    293b:	e9 10 fe ff ff       	jmp    2750 <_Znam@plt-0x10>

0000000000002940 <_ZNSt13basic_ostreamIwSt11char_traitsIwEElsEl@plt>:
    2940:	ff 25 1a b5 20 00    	jmp    QWORD PTR [rip+0x20b51a]        # 20de60 <_ZNSt13basic_ostreamIwSt11char_traitsIwEElsEl@GLIBCXX_3.4>
    2946:	68 1e 00 00 00       	push   0x1e
    294b:	e9 00 fe ff ff       	jmp    2750 <_Znam@plt-0x10>

0000000000002950 <_ZNSt7__cxx1112basic_stringIwSt11char_traitsIwESaIwEE10_M_disposeEv@plt>:
    2950:	ff 25 12 b5 20 00    	jmp    QWORD PTR [rip+0x20b512]        # 20de68 <_ZNSt7__cxx1112basic_stringIwSt11char_traitsIwESaIwEE10_M_disposeEv@GLIBCXX_3.4.21>
    2956:	68 1f 00 00 00       	push   0x1f
    295b:	e9 f0 fd ff ff       	jmp    2750 <_Znam@plt-0x10>

0000000000002960 <__cxa_atexit@plt>:
    2960:	ff 25 0a b5 20 00    	jmp    QWORD PTR [rip+0x20b50a]        # 20de70 <__cxa_atexit@GLIBC_2.2.5>
    2966:	68 20 00 00 00       	push   0x20
    296b:	e9 e0 fd ff ff       	jmp    2750 <_Znam@plt-0x10>

0000000000002970 <_ZNSt7__cxx1112basic_stringIwSt11char_traitsIwESaIwEEC1ERKS4_@plt>:
    2970:	ff 25 02 b5 20 00    	jmp    QWORD PTR [rip+0x20b502]        # 20de78 <_ZNSt7__cxx1112basic_stringIwSt11char_traitsIwESaIwEEC1ERKS4_@GLIBCXX_3.4.21>
    2976:	68 21 00 00 00       	push   0x21
    297b:	e9 d0 fd ff ff       	jmp    2750 <_Znam@plt-0x10>

0000000000002980 <setlocale@plt>:
    2980:	ff 25 fa b4 20 00    	jmp    QWORD PTR [rip+0x20b4fa]        # 20de80 <setlocale@GLIBC_2.2.5>
    2986:	68 22 00 00 00       	push   0x22
    298b:	e9 c0 fd ff ff       	jmp    2750 <_Znam@plt-0x10>

0000000000002990 <_ZdlPv@plt>:
    2990:	ff 25 f2 b4 20 00    	jmp    QWORD PTR [rip+0x20b4f2]        # 20de88 <_ZdlPv@GLIBCXX_3.4>
    2996:	68 23 00 00 00       	push   0x23
    299b:	e9 b0 fd ff ff       	jmp    2750 <_Znam@plt-0x10>

00000000000029a0 <_Znwm@plt>:
    29a0:	ff 25 ea b4 20 00    	jmp    QWORD PTR [rip+0x20b4ea]        # 20de90 <_Znwm@GLIBCXX_3.4>
    29a6:	68 24 00 00 00       	push   0x24
    29ab:	e9 a0 fd ff ff       	jmp    2750 <_Znam@plt-0x10>

00000000000029b0 <_ZNSt7__cxx1112basic_stringIwSt11char_traitsIwESaIwEE9_M_createERmm@plt>:
    29b0:	ff 25 e2 b4 20 00    	jmp    QWORD PTR [rip+0x20b4e2]        # 20de98 <_ZNSt7__cxx1112basic_stringIwSt11char_traitsIwESaIwEE9_M_createERmm@GLIBCXX_3.4.21>
    29b6:	68 25 00 00 00       	push   0x25
    29bb:	e9 90 fd ff ff       	jmp    2750 <_Znam@plt-0x10>

00000000000029c0 <_ZNKSt7__cxx1119basic_ostringstreamIcSt11char_traitsIcESaIcEE3strEv@plt>:
    29c0:	ff 25 da b4 20 00    	jmp    QWORD PTR [rip+0x20b4da]        # 20dea0 <_ZNKSt7__cxx1119basic_ostringstreamIcSt11char_traitsIcESaIcEE3strEv@GLIBCXX_3.4.21>
    29c6:	68 26 00 00 00       	push   0x26
    29cb:	e9 80 fd ff ff       	jmp    2750 <_Znam@plt-0x10>

00000000000029d0 <_ZSt18_Rb_tree_decrementPSt18_Rb_tree_node_base@plt>:
    29d0:	ff 25 d2 b4 20 00    	jmp    QWORD PTR [rip+0x20b4d2]        # 20dea8 <_ZSt18_Rb_tree_decrementPSt18_Rb_tree_node_base@GLIBCXX_3.4>
    29d6:	68 27 00 00 00       	push   0x27
    29db:	e9 70 fd ff ff       	jmp    2750 <_Znam@plt-0x10>

00000000000029e0 <_ZStlsIwSt11char_traitsIwEERSt13basic_ostreamIT_T0_ES6_S3_@plt>:
    29e0:	ff 25 ca b4 20 00    	jmp    QWORD PTR [rip+0x20b4ca]        # 20deb0 <_ZStlsIwSt11char_traitsIwEERSt13basic_ostreamIT_T0_ES6_S3_@GLIBCXX_3.4>
    29e6:	68 28 00 00 00       	push   0x28
    29eb:	e9 60 fd ff ff       	jmp    2750 <_Znam@plt-0x10>

00000000000029f0 <_ZNSt7__cxx1112basic_stringIwSt11char_traitsIwESaIwEEC1ERKS3_@plt>:
    29f0:	ff 25 c2 b4 20 00    	jmp    QWORD PTR [rip+0x20b4c2]        # 20deb8 <_ZNSt7__cxx1112basic_stringIwSt11char_traitsIwESaIwEEC1ERKS3_@GLIBCXX_3.4.21>
    29f6:	68 29 00 00 00       	push   0x29
    29fb:	e9 50 fd ff ff       	jmp    2750 <_Znam@plt-0x10>

0000000000002a00 <__stack_chk_fail@plt>:
    2a00:	ff 25 ba b4 20 00    	jmp    QWORD PTR [rip+0x20b4ba]        # 20dec0 <__stack_chk_fail@GLIBC_2.4>
    2a06:	68 2a 00 00 00       	push   0x2a
    2a0b:	e9 40 fd ff ff       	jmp    2750 <_Znam@plt-0x10>

0000000000002a10 <_ZNSt13basic_ostreamIwSt11char_traitsIwEElsEPFRSt8ios_baseS4_E@plt>:
    2a10:	ff 25 b2 b4 20 00    	jmp    QWORD PTR [rip+0x20b4b2]        # 20dec8 <_ZNSt13basic_ostreamIwSt11char_traitsIwEElsEPFRSt8ios_baseS4_E@GLIBCXX_3.4>
    2a16:	68 2b 00 00 00       	push   0x2b
    2a1b:	e9 30 fd ff ff       	jmp    2750 <_Znam@plt-0x10>

0000000000002a20 <_ZNSt7__cxx1112basic_stringIwSt11char_traitsIwESaIwEE5clearEv@plt>:
    2a20:	ff 25 aa b4 20 00    	jmp    QWORD PTR [rip+0x20b4aa]        # 20ded0 <_ZNSt7__cxx1112basic_stringIwSt11char_traitsIwESaIwEE5clearEv@GLIBCXX_3.4.21>
    2a26:	68 2c 00 00 00       	push   0x2c
    2a2b:	e9 20 fd ff ff       	jmp    2750 <_Znam@plt-0x10>

0000000000002a30 <signal@plt>:
    2a30:	ff 25 a2 b4 20 00    	jmp    QWORD PTR [rip+0x20b4a2]        # 20ded8 <signal@GLIBC_2.2.5>
    2a36:	68 2d 00 00 00       	push   0x2d
    2a3b:	e9 10 fd ff ff       	jmp    2750 <_Znam@plt-0x10>

0000000000002a40 <exit@plt>:
    2a40:	ff 25 9a b4 20 00    	jmp    QWORD PTR [rip+0x20b49a]        # 20dee0 <exit@GLIBC_2.2.5>
    2a46:	68 2e 00 00 00       	push   0x2e
    2a4b:	e9 00 fd ff ff       	jmp    2750 <_Znam@plt-0x10>

0000000000002a50 <_ZNSt7__cxx1112basic_stringIwSt11char_traitsIwESaIwEEixEm@plt>:
    2a50:	ff 25 92 b4 20 00    	jmp    QWORD PTR [rip+0x20b492]        # 20dee8 <_ZNSt7__cxx1112basic_stringIwSt11char_traitsIwESaIwEEixEm@GLIBCXX_3.4.21>
    2a56:	68 2f 00 00 00       	push   0x2f
    2a5b:	e9 f0 fc ff ff       	jmp    2750 <_Znam@plt-0x10>

0000000000002a60 <_ZNSt7__cxx1112basic_stringIwSt11char_traitsIwESaIwEEC1EOS4_@plt>:
    2a60:	ff 25 8a b4 20 00    	jmp    QWORD PTR [rip+0x20b48a]        # 20def0 <_ZNSt7__cxx1112basic_stringIwSt11char_traitsIwESaIwEEC1EOS4_@GLIBCXX_3.4.21>
    2a66:	68 30 00 00 00       	push   0x30
    2a6b:	e9 e0 fc ff ff       	jmp    2750 <_Znam@plt-0x10>

0000000000002a70 <_ZdaPv@plt>:
    2a70:	ff 25 82 b4 20 00    	jmp    QWORD PTR [rip+0x20b482]        # 20def8 <_ZdaPv@GLIBCXX_3.4>
    2a76:	68 31 00 00 00       	push   0x31
    2a7b:	e9 d0 fc ff ff       	jmp    2750 <_Znam@plt-0x10>

0000000000002a80 <_ZNKSt7__cxx1112basic_stringIcSt11char_traitsIcESaIcEE4dataEv@plt>:
    2a80:	ff 25 7a b4 20 00    	jmp    QWORD PTR [rip+0x20b47a]        # 20df00 <_ZNKSt7__cxx1112basic_stringIcSt11char_traitsIcESaIcEE4dataEv@GLIBCXX_3.4.21>
    2a86:	68 32 00 00 00       	push   0x32
    2a8b:	e9 c0 fc ff ff       	jmp    2750 <_Znam@plt-0x10>

0000000000002a90 <_ZNSt7__cxx1112basic_stringIcSt11char_traitsIcESaIcEEC1Ev@plt>:
    2a90:	ff 25 72 b4 20 00    	jmp    QWORD PTR [rip+0x20b472]        # 20df08 <_ZNSt7__cxx1112basic_stringIcSt11char_traitsIcESaIcEEC1Ev@GLIBCXX_3.4.21>
    2a96:	68 33 00 00 00       	push   0x33
    2a9b:	e9 b0 fc ff ff       	jmp    2750 <_Znam@plt-0x10>

0000000000002aa0 <read@plt>:
    2aa0:	ff 25 6a b4 20 00    	jmp    QWORD PTR [rip+0x20b46a]        # 20df10 <read@GLIBC_2.2.5>
    2aa6:	68 34 00 00 00       	push   0x34
    2aab:	e9 a0 fc ff ff       	jmp    2750 <_Znam@plt-0x10>

0000000000002ab0 <_ZNSt7__cxx1112basic_stringIwSt11char_traitsIwESaIwEE5beginEv@plt>:
    2ab0:	ff 25 62 b4 20 00    	jmp    QWORD PTR [rip+0x20b462]        # 20df18 <_ZNSt7__cxx1112basic_stringIwSt11char_traitsIwESaIwEE5beginEv@GLIBCXX_3.4.21>
    2ab6:	68 35 00 00 00       	push   0x35
    2abb:	e9 90 fc ff ff       	jmp    2750 <_Znam@plt-0x10>

0000000000002ac0 <__cxa_rethrow@plt>:
    2ac0:	ff 25 5a b4 20 00    	jmp    QWORD PTR [rip+0x20b45a]        # 20df20 <__cxa_rethrow@CXXABI_1.3>
    2ac6:	68 36 00 00 00       	push   0x36
    2acb:	e9 80 fc ff ff       	jmp    2750 <_Znam@plt-0x10>

0000000000002ad0 <_ZNSt7__cxx1112basic_stringIwSt11char_traitsIwESaIwEE3endEv@plt>:
    2ad0:	ff 25 52 b4 20 00    	jmp    QWORD PTR [rip+0x20b452]        # 20df28 <_ZNSt7__cxx1112basic_stringIwSt11char_traitsIwESaIwEE3endEv@GLIBCXX_3.4.21>
    2ad6:	68 37 00 00 00       	push   0x37
    2adb:	e9 70 fc ff ff       	jmp    2750 <_Znam@plt-0x10>

0000000000002ae0 <_ZNSt7__cxx1112basic_stringIwSt11char_traitsIwESaIwEE5frontEv@plt>:
    2ae0:	ff 25 4a b4 20 00    	jmp    QWORD PTR [rip+0x20b44a]        # 20df30 <_ZNSt7__cxx1112basic_stringIwSt11char_traitsIwESaIwEE5frontEv@GLIBCXX_3.4.21>
    2ae6:	68 38 00 00 00       	push   0x38
    2aeb:	e9 60 fc ff ff       	jmp    2750 <_Znam@plt-0x10>

0000000000002af0 <_ZNSt8ios_base4InitC1Ev@plt>:
    2af0:	ff 25 42 b4 20 00    	jmp    QWORD PTR [rip+0x20b442]        # 20df38 <_ZNSt8ios_base4InitC1Ev@GLIBCXX_3.4>
    2af6:	68 39 00 00 00       	push   0x39
    2afb:	e9 50 fc ff ff       	jmp    2750 <_Znam@plt-0x10>

0000000000002b00 <puts@plt>:
    2b00:	ff 25 3a b4 20 00    	jmp    QWORD PTR [rip+0x20b43a]        # 20df40 <puts@GLIBC_2.2.5>
    2b06:	68 3a 00 00 00       	push   0x3a
    2b0b:	e9 40 fc ff ff       	jmp    2750 <_Znam@plt-0x10>

0000000000002b10 <_ZNKSt14basic_ifstreamIcSt11char_traitsIcEE5rdbufEv@plt>:
    2b10:	ff 25 32 b4 20 00    	jmp    QWORD PTR [rip+0x20b432]        # 20df48 <_ZNKSt14basic_ifstreamIcSt11char_traitsIcEE5rdbufEv@GLIBCXX_3.4>
    2b16:	68 3b 00 00 00       	push   0x3b
    2b1b:	e9 30 fc ff ff       	jmp    2750 <_Znam@plt-0x10>

0000000000002b20 <_ZNSt7__cxx1112basic_stringIwSt11char_traitsIwESaIwEE13_M_set_lengthEm@plt>:
    2b20:	ff 25 2a b4 20 00    	jmp    QWORD PTR [rip+0x20b42a]        # 20df50 <_ZNSt7__cxx1112basic_stringIwSt11char_traitsIwESaIwEE13_M_set_lengthEm@GLIBCXX_3.4.21>
    2b26:	68 3c 00 00 00       	push   0x3c
    2b2b:	e9 20 fc ff ff       	jmp    2750 <_Znam@plt-0x10>

0000000000002b30 <__cxa_end_catch@plt>:
    2b30:	ff 25 22 b4 20 00    	jmp    QWORD PTR [rip+0x20b422]        # 20df58 <__cxa_end_catch@CXXABI_1.3>
    2b36:	68 3d 00 00 00       	push   0x3d
    2b3b:	e9 10 fc ff ff       	jmp    2750 <_Znam@plt-0x10>

0000000000002b40 <_ZNSt7__cxx1112basic_stringIwSt11char_traitsIwESaIwEED1Ev@plt>:
    2b40:	ff 25 1a b4 20 00    	jmp    QWORD PTR [rip+0x20b41a]        # 20df60 <_ZNSt7__cxx1112basic_stringIwSt11char_traitsIwESaIwEED1Ev@GLIBCXX_3.4.21>
    2b46:	68 3e 00 00 00       	push   0x3e
    2b4b:	e9 00 fc ff ff       	jmp    2750 <_Znam@plt-0x10>

0000000000002b50 <_ZNKSt7__cxx1112basic_stringIwSt11char_traitsIwESaIwEE6lengthEv@plt>:
    2b50:	ff 25 12 b4 20 00    	jmp    QWORD PTR [rip+0x20b412]        # 20df68 <_ZNKSt7__cxx1112basic_stringIwSt11char_traitsIwESaIwEE6lengthEv@GLIBCXX_3.4.21>
    2b56:	68 3f 00 00 00       	push   0x3f
    2b5b:	e9 f0 fb ff ff       	jmp    2750 <_Znam@plt-0x10>

0000000000002b60 <_ZNSaIwED2Ev@plt>:
    2b60:	ff 25 0a b4 20 00    	jmp    QWORD PTR [rip+0x20b40a]        # 20df70 <_ZNSaIwED2Ev@GLIBCXX_3.4>
    2b66:	68 40 00 00 00       	push   0x40
    2b6b:	e9 e0 fb ff ff       	jmp    2750 <_Znam@plt-0x10>

0000000000002b70 <_ZNSt7__cxx1112basic_stringIwSt11char_traitsIwESaIwEE11_M_capacityEm@plt>:
    2b70:	ff 25 02 b4 20 00    	jmp    QWORD PTR [rip+0x20b402]        # 20df78 <_ZNSt7__cxx1112basic_stringIwSt11char_traitsIwESaIwEE11_M_capacityEm@GLIBCXX_3.4.21>
    2b76:	68 41 00 00 00       	push   0x41
    2b7b:	e9 d0 fb ff ff       	jmp    2750 <_Znam@plt-0x10>

0000000000002b80 <_ZNSt13basic_ostreamIwSt11char_traitsIwEElsEPFRS2_S3_E@plt>:
    2b80:	ff 25 fa b3 20 00    	jmp    QWORD PTR [rip+0x20b3fa]        # 20df80 <_ZNSt13basic_ostreamIwSt11char_traitsIwEElsEPFRS2_S3_E@GLIBCXX_3.4>
    2b86:	68 42 00 00 00       	push   0x42
    2b8b:	e9 c0 fb ff ff       	jmp    2750 <_Znam@plt-0x10>

0000000000002b90 <_Unwind_Resume@plt>:
    2b90:	ff 25 f2 b3 20 00    	jmp    QWORD PTR [rip+0x20b3f2]        # 20df88 <_Unwind_Resume@GCC_3.0>
    2b96:	68 43 00 00 00       	push   0x43
    2b9b:	e9 b0 fb ff ff       	jmp    2750 <_Znam@plt-0x10>

0000000000002ba0 <_ZNSaIwED1Ev@plt>:
    2ba0:	ff 25 ea b3 20 00    	jmp    QWORD PTR [rip+0x20b3ea]        # 20df90 <_ZNSaIwED1Ev@GLIBCXX_3.4>
    2ba6:	68 44 00 00 00       	push   0x44
    2bab:	e9 a0 fb ff ff       	jmp    2750 <_Znam@plt-0x10>

0000000000002bb0 <_ZNSt7__cxx1112basic_stringIwSt11char_traitsIwESaIwEE10_M_replaceEmmPKwm@plt>:
    2bb0:	ff 25 e2 b3 20 00    	jmp    QWORD PTR [rip+0x20b3e2]        # 20df98 <_ZNSt7__cxx1112basic_stringIwSt11char_traitsIwESaIwEE10_M_replaceEmmPKwm@GLIBCXX_3.4.21>
    2bb6:	68 45 00 00 00       	push   0x45
    2bbb:	e9 90 fb ff ff       	jmp    2750 <_Znam@plt-0x10>

0000000000002bc0 <_ZNSt14basic_ifstreamIcSt11char_traitsIcEEC1EPKcSt13_Ios_Openmode@plt>:
    2bc0:	ff 25 da b3 20 00    	jmp    QWORD PTR [rip+0x20b3da]        # 20dfa0 <_ZNSt14basic_ifstreamIcSt11char_traitsIcEEC1EPKcSt13_Ios_Openmode@GLIBCXX_3.4>
    2bc6:	68 46 00 00 00       	push   0x46
    2bcb:	e9 80 fb ff ff       	jmp    2750 <_Znam@plt-0x10>

0000000000002bd0 <_ZStlsIwSt11char_traitsIwEERSt13basic_ostreamIT_T0_ES6_PKS3_@plt>:
    2bd0:	ff 25 d2 b3 20 00    	jmp    QWORD PTR [rip+0x20b3d2]        # 20dfa8 <_ZStlsIwSt11char_traitsIwEERSt13basic_ostreamIT_T0_ES6_PKS3_@GLIBCXX_3.4>
    2bd6:	68 47 00 00 00       	push   0x47
    2bdb:	e9 70 fb ff ff       	jmp    2750 <_Znam@plt-0x10>

0000000000002be0 <_ZNSt7__cxx1112basic_stringIwSt11char_traitsIwESaIwEE6resizeEm@plt>:
    2be0:	ff 25 ca b3 20 00    	jmp    QWORD PTR [rip+0x20b3ca]        # 20dfb0 <_ZNSt7__cxx1112basic_stringIwSt11char_traitsIwESaIwEE6resizeEm@GLIBCXX_3.4.21>
    2be6:	68 48 00 00 00       	push   0x48
    2beb:	e9 60 fb ff ff       	jmp    2750 <_Znam@plt-0x10>

0000000000002bf0 <alarm@plt>:
    2bf0:	ff 25 c2 b3 20 00    	jmp    QWORD PTR [rip+0x20b3c2]        # 20dfb8 <alarm@GLIBC_2.2.5>
    2bf6:	68 49 00 00 00       	push   0x49
    2bfb:	e9 50 fb ff ff       	jmp    2750 <_Znam@plt-0x10>

0000000000002c00 <_ZNSt13basic_ostreamIwSt11char_traitsIwEElsEi@plt>:
    2c00:	ff 25 ba b3 20 00    	jmp    QWORD PTR [rip+0x20b3ba]        # 20dfc0 <_ZNSt13basic_ostreamIwSt11char_traitsIwEElsEi@GLIBCXX_3.4>
    2c06:	68 4a 00 00 00       	push   0x4a
    2c0b:	e9 40 fb ff ff       	jmp    2750 <_Znam@plt-0x10>

Disassembly of section .plt.got:

0000000000002c10 <__cxa_finalize@plt>:
    2c10:	ff 25 b2 b3 20 00    	jmp    QWORD PTR [rip+0x20b3b2]        # 20dfc8 <__cxa_finalize@GLIBC_2.2.5>
    2c16:	66 90                	xchg   ax,ax

Disassembly of section .text:

0000000000002c20 <.text>:
    2c20:	31 ed                	xor    ebp,ebp
    2c22:	49 89 d1             	mov    r9,rdx
    2c25:	5e                   	pop    rsi
    2c26:	48 89 e2             	mov    rdx,rsp
    2c29:	48 83 e4 f0          	and    rsp,0xfffffffffffffff0
    2c2d:	50                   	push   rax
    2c2e:	54                   	push   rsp
    2c2f:	4c 8d 05 2a 69 00 00 	lea    r8,[rip+0x692a]        # 9560 <__cxa_finalize@plt+0x6950>
    2c36:	48 8d 0d b3 68 00 00 	lea    rcx,[rip+0x68b3]        # 94f0 <__cxa_finalize@plt+0x68e0>
    2c3d:	48 8d 3d 66 03 00 00 	lea    rdi,[rip+0x366]        # 2faa <__cxa_finalize@plt+0x39a>
    2c44:	ff 15 96 b3 20 00    	call   QWORD PTR [rip+0x20b396]        # 20dfe0 <__libc_start_main@GLIBC_2.2.5>
    2c4a:	f4                   	hlt    
    2c4b:	0f 1f 44 00 00       	nop    DWORD PTR [rax+rax*1+0x0]
    2c50:	48 8d 3d c1 b3 20 00 	lea    rdi,[rip+0x20b3c1]        # 20e018 <_ZTVSt19__codecvt_utf8_baseIwE@@GLIBCXX_3.4.21+0x598>
    2c57:	55                   	push   rbp
    2c58:	48 8d 05 b9 b3 20 00 	lea    rax,[rip+0x20b3b9]        # 20e018 <_ZTVSt19__codecvt_utf8_baseIwE@@GLIBCXX_3.4.21+0x598>
    2c5f:	48 39 f8             	cmp    rax,rdi
    2c62:	48 89 e5             	mov    rbp,rsp
    2c65:	74 19                	je     2c80 <__cxa_finalize@plt+0x70>
    2c67:	48 8b 05 6a b3 20 00 	mov    rax,QWORD PTR [rip+0x20b36a]        # 20dfd8 <_ITM_deregisterTMCloneTable>
    2c6e:	48 85 c0             	test   rax,rax
    2c71:	74 0d                	je     2c80 <__cxa_finalize@plt+0x70>
    2c73:	5d                   	pop    rbp
    2c74:	ff e0                	jmp    rax
    2c76:	66 2e 0f 1f 84 00 00 	nop    WORD PTR cs:[rax+rax*1+0x0]
    2c7d:	00 00 00 
    2c80:	5d                   	pop    rbp
    2c81:	c3                   	ret    
    2c82:	0f 1f 40 00          	nop    DWORD PTR [rax+0x0]
    2c86:	66 2e 0f 1f 84 00 00 	nop    WORD PTR cs:[rax+rax*1+0x0]
    2c8d:	00 00 00 
    2c90:	48 8d 3d 81 b3 20 00 	lea    rdi,[rip+0x20b381]        # 20e018 <_ZTVSt19__codecvt_utf8_baseIwE@@GLIBCXX_3.4.21+0x598>
    2c97:	48 8d 35 7a b3 20 00 	lea    rsi,[rip+0x20b37a]        # 20e018 <_ZTVSt19__codecvt_utf8_baseIwE@@GLIBCXX_3.4.21+0x598>
    2c9e:	55                   	push   rbp
    2c9f:	48 29 fe             	sub    rsi,rdi
    2ca2:	48 89 e5             	mov    rbp,rsp
    2ca5:	48 c1 fe 03          	sar    rsi,0x3
    2ca9:	48 89 f0             	mov    rax,rsi
    2cac:	48 c1 e8 3f          	shr    rax,0x3f
    2cb0:	48 01 c6             	add    rsi,rax
    2cb3:	48 d1 fe             	sar    rsi,1
    2cb6:	74 18                	je     2cd0 <__cxa_finalize@plt+0xc0>
    2cb8:	48 8b 05 31 b3 20 00 	mov    rax,QWORD PTR [rip+0x20b331]        # 20dff0 <_ITM_registerTMCloneTable>
    2cbf:	48 85 c0             	test   rax,rax
    2cc2:	74 0c                	je     2cd0 <__cxa_finalize@plt+0xc0>
    2cc4:	5d                   	pop    rbp
    2cc5:	ff e0                	jmp    rax
    2cc7:	66 0f 1f 84 00 00 00 	nop    WORD PTR [rax+rax*1+0x0]
    2cce:	00 00 
    2cd0:	5d                   	pop    rbp
    2cd1:	c3                   	ret    
    2cd2:	0f 1f 40 00          	nop    DWORD PTR [rax+0x0]
    2cd6:	66 2e 0f 1f 84 00 00 	nop    WORD PTR cs:[rax+rax*1+0x0]
    2cdd:	00 00 00 
    2ce0:	80 3d 89 b4 20 00 00 	cmp    BYTE PTR [rip+0x20b489],0x0        # 20e170 <_ZSt5wcout@@GLIBCXX_3.4+0x110>
    2ce7:	75 2f                	jne    2d18 <__cxa_finalize@plt+0x108>
    2ce9:	48 83 3d d7 b2 20 00 	cmp    QWORD PTR [rip+0x20b2d7],0x0        # 20dfc8 <__cxa_finalize@GLIBC_2.2.5>
    2cf0:	00 
    2cf1:	55                   	push   rbp
    2cf2:	48 89 e5             	mov    rbp,rsp
    2cf5:	74 0c                	je     2d03 <__cxa_finalize@plt+0xf3>
    2cf7:	48 8b 3d 0a b3 20 00 	mov    rdi,QWORD PTR [rip+0x20b30a]        # 20e008 <_ZTVSt19__codecvt_utf8_baseIwE@@GLIBCXX_3.4.21+0x588>
    2cfe:	e8 0d ff ff ff       	call   2c10 <__cxa_finalize@plt>
    2d03:	e8 48 ff ff ff       	call   2c50 <__cxa_finalize@plt+0x40>
    2d08:	c6 05 61 b4 20 00 01 	mov    BYTE PTR [rip+0x20b461],0x1        # 20e170 <_ZSt5wcout@@GLIBCXX_3.4+0x110>
    2d0f:	5d                   	pop    rbp
    2d10:	c3                   	ret    
    2d11:	0f 1f 80 00 00 00 00 	nop    DWORD PTR [rax+0x0]
    2d18:	f3 c3                	repz ret 
    2d1a:	66 0f 1f 44 00 00    	nop    WORD PTR [rax+rax*1+0x0]
    2d20:	55                   	push   rbp
    2d21:	48 89 e5             	mov    rbp,rsp
    2d24:	5d                   	pop    rbp
    2d25:	e9 66 ff ff ff       	jmp    2c90 <__cxa_finalize@plt+0x80>
    2d2a:	55                   	push   rbp
    2d2b:	48 89 e5             	mov    rbp,rsp
    2d2e:	41 54                	push   r12
    2d30:	53                   	push   rbx
    2d31:	48 81 ec 20 04 00 00 	sub    rsp,0x420
    2d38:	48 89 bd d8 fb ff ff 	mov    QWORD PTR [rbp-0x428],rdi
    2d3f:	48 89 b5 d0 fb ff ff 	mov    QWORD PTR [rbp-0x430],rsi
    2d46:	64 48 8b 04 25 28 00 	mov    rax,QWORD PTR fs:0x28
    2d4d:	00 00 
    2d4f:	48 89 45 e8          	mov    QWORD PTR [rbp-0x18],rax
    2d53:	31 c0                	xor    eax,eax
    2d55:	48 8d 85 60 fc ff ff 	lea    rax,[rbp-0x3a0]
    2d5c:	be 10 00 00 00       	mov    esi,0x10
    2d61:	48 89 c7             	mov    rdi,rax
    2d64:	e8 c7 fb ff ff       	call   2930 <_ZNSt7__cxx1119basic_ostringstreamIcSt11char_traitsIcESaIcEEC1ESt13_Ios_Openmode@plt>
    2d69:	48 8b 8d d0 fb ff ff 	mov    rcx,QWORD PTR [rbp-0x430]
    2d70:	48 8d 85 e0 fd ff ff 	lea    rax,[rbp-0x220]
    2d77:	ba 08 00 00 00       	mov    edx,0x8
    2d7c:	48 89 ce             	mov    rsi,rcx
    2d7f:	48 89 c7             	mov    rdi,rax
    2d82:	e8 39 fe ff ff       	call   2bc0 <_ZNSt14basic_ifstreamIcSt11char_traitsIcEEC1EPKcSt13_Ios_Openmode@plt>
    2d87:	48 8d 85 e0 fd ff ff 	lea    rax,[rbp-0x220]
    2d8e:	48 89 c7             	mov    rdi,rax
    2d91:	e8 7a fd ff ff       	call   2b10 <_ZNKSt14basic_ifstreamIcSt11char_traitsIcEE5rdbufEv@plt>
    2d96:	48 89 c2             	mov    rdx,rax
    2d99:	48 8d 85 60 fc ff ff 	lea    rax,[rbp-0x3a0]
    2da0:	48 89 d6             	mov    rsi,rdx
    2da3:	48 89 c7             	mov    rdi,rax
    2da6:	e8 05 fa ff ff       	call   27b0 <_ZNSolsEPSt15basic_streambufIcSt11char_traitsIcEE@plt>
    2dab:	bf 28 00 00 00       	mov    edi,0x28
    2db0:	e8 eb fb ff ff       	call   29a0 <_Znwm@plt>
    2db5:	48 89 c3             	mov    rbx,rax
    2db8:	be 00 00 00 00       	mov    esi,0x0
    2dbd:	48 89 df             	mov    rdi,rbx
    2dc0:	e8 e9 03 00 00       	call   31ae <__cxa_finalize@plt+0x59e>
    2dc5:	48 8d 85 00 fc ff ff 	lea    rax,[rbp-0x400]
    2dcc:	48 89 de             	mov    rsi,rbx
    2dcf:	48 89 c7             	mov    rdi,rax
    2dd2:	e8 63 04 00 00       	call   323a <__cxa_finalize@plt+0x62a>
    2dd7:	48 8d 85 e0 fb ff ff 	lea    rax,[rbp-0x420]
    2dde:	48 8d 95 60 fc ff ff 	lea    rdx,[rbp-0x3a0]
    2de5:	48 89 d6             	mov    rsi,rdx
    2de8:	48 89 c7             	mov    rdi,rax
    2deb:	e8 d0 fb ff ff       	call   29c0 <_ZNKSt7__cxx1119basic_ostringstreamIcSt11char_traitsIcESaIcEE3strEv@plt>
    2df0:	48 8b 85 d8 fb ff ff 	mov    rax,QWORD PTR [rbp-0x428]
    2df7:	48 8d 95 e0 fb ff ff 	lea    rdx,[rbp-0x420]
    2dfe:	48 8d 8d 00 fc ff ff 	lea    rcx,[rbp-0x400]
    2e05:	48 89 ce             	mov    rsi,rcx
    2e08:	48 89 c7             	mov    rdi,rax
    2e0b:	e8 5a 05 00 00       	call   336a <__cxa_finalize@plt+0x75a>
    2e10:	90                   	nop
    2e11:	48 8d 85 e0 fb ff ff 	lea    rax,[rbp-0x420]
    2e18:	48 89 c7             	mov    rdi,rax
    2e1b:	e8 a0 fa ff ff       	call   28c0 <_ZNSt7__cxx1112basic_stringIcSt11char_traitsIcESaIcEED1Ev@plt>
    2e20:	48 8d 85 00 fc ff ff 	lea    rax,[rbp-0x400]
    2e27:	48 89 c7             	mov    rdi,rax
    2e2a:	e8 fd 02 00 00       	call   312c <__cxa_finalize@plt+0x51c>
    2e2f:	48 8d 85 e0 fd ff ff 	lea    rax,[rbp-0x220]
    2e36:	48 89 c7             	mov    rdi,rax
    2e39:	e8 b2 f9 ff ff       	call   27f0 <_ZNSt14basic_ifstreamIcSt11char_traitsIcEED1Ev@plt>
    2e3e:	48 8d 85 60 fc ff ff 	lea    rax,[rbp-0x3a0]
    2e45:	48 89 c7             	mov    rdi,rax
    2e48:	e8 93 f9 ff ff       	call   27e0 <_ZNSt7__cxx1119basic_ostringstreamIcSt11char_traitsIcESaIcEED1Ev@plt>
    2e4d:	90                   	nop
    2e4e:	48 8b 85 d8 fb ff ff 	mov    rax,QWORD PTR [rbp-0x428]
    2e55:	48 8b 4d e8          	mov    rcx,QWORD PTR [rbp-0x18]
    2e59:	64 48 33 0c 25 28 00 	xor    rcx,QWORD PTR fs:0x28
    2e60:	00 00 
    2e62:	74 70                	je     2ed4 <__cxa_finalize@plt+0x2c4>
    2e64:	eb 69                	jmp    2ecf <__cxa_finalize@plt+0x2bf>
    2e66:	49 89 c4             	mov    r12,rax
    2e69:	48 89 df             	mov    rdi,rbx
    2e6c:	e8 1f fb ff ff       	call   2990 <_ZdlPv@plt>
    2e71:	4c 89 e3             	mov    rbx,r12
    2e74:	eb 2b                	jmp    2ea1 <__cxa_finalize@plt+0x291>
    2e76:	48 89 c3             	mov    rbx,rax
    2e79:	48 8d 85 e0 fb ff ff 	lea    rax,[rbp-0x420]
    2e80:	48 89 c7             	mov    rdi,rax
    2e83:	e8 38 fa ff ff       	call   28c0 <_ZNSt7__cxx1112basic_stringIcSt11char_traitsIcESaIcEED1Ev@plt>
    2e88:	eb 03                	jmp    2e8d <__cxa_finalize@plt+0x27d>
    2e8a:	48 89 c3             	mov    rbx,rax
    2e8d:	48 8d 85 00 fc ff ff 	lea    rax,[rbp-0x400]
    2e94:	48 89 c7             	mov    rdi,rax
    2e97:	e8 90 02 00 00       	call   312c <__cxa_finalize@plt+0x51c>
    2e9c:	eb 03                	jmp    2ea1 <__cxa_finalize@plt+0x291>
    2e9e:	48 89 c3             	mov    rbx,rax
    2ea1:	48 8d 85 e0 fd ff ff 	lea    rax,[rbp-0x220]
    2ea8:	48 89 c7             	mov    rdi,rax
    2eab:	e8 40 f9 ff ff       	call   27f0 <_ZNSt14basic_ifstreamIcSt11char_traitsIcEED1Ev@plt>
    2eb0:	eb 03                	jmp    2eb5 <__cxa_finalize@plt+0x2a5>
    2eb2:	48 89 c3             	mov    rbx,rax
    2eb5:	48 8d 85 60 fc ff ff 	lea    rax,[rbp-0x3a0]
    2ebc:	48 89 c7             	mov    rdi,rax
    2ebf:	e8 1c f9 ff ff       	call   27e0 <_ZNSt7__cxx1119basic_ostringstreamIcSt11char_traitsIcESaIcEED1Ev@plt>
    2ec4:	48 89 d8             	mov    rax,rbx
    2ec7:	48 89 c7             	mov    rdi,rax
    2eca:	e8 c1 fc ff ff       	call   2b90 <_Unwind_Resume@plt>
    2ecf:	e8 2c fb ff ff       	call   2a00 <__stack_chk_fail@plt>
    2ed4:	48 81 c4 20 04 00 00 	add    rsp,0x420
    2edb:	5b                   	pop    rbx
    2edc:	41 5c                	pop    r12
    2ede:	5d                   	pop    rbp
    2edf:	c3                   	ret    
    2ee0:	55                   	push   rbp
    2ee1:	48 89 e5             	mov    rbp,rsp
    2ee4:	48 83 ec 10          	sub    rsp,0x10
    2ee8:	89 7d fc             	mov    DWORD PTR [rbp-0x4],edi
    2eeb:	48 8d 35 3e 67 00 00 	lea    rsi,[rip+0x673e]        # 9630 <__cxa_finalize@plt+0x6a20>
    2ef2:	48 8d 3d 67 b1 20 00 	lea    rdi,[rip+0x20b167]        # 20e060 <_ZSt5wcout@@GLIBCXX_3.4>
    2ef9:	e8 a2 f8 ff ff       	call   27a0 <_ZStlsIwSt11char_traitsIwEERSt13basic_ostreamIT_T0_ES6_PKc@plt>
    2efe:	48 89 c2             	mov    rdx,rax
    2f01:	48 8b 05 c8 b0 20 00 	mov    rax,QWORD PTR [rip+0x20b0c8]        # 20dfd0 <_ZSt4endlIwSt11char_traitsIwEERSt13basic_ostreamIT_T0_ES6_@GLIBCXX_3.4>
    2f08:	48 89 c6             	mov    rsi,rax
    2f0b:	48 89 d7             	mov    rdi,rdx
    2f0e:	e8 6d fc ff ff       	call   2b80 <_ZNSt13basic_ostreamIwSt11char_traitsIwEElsEPFRS2_S3_E@plt>
    2f13:	bf 01 00 00 00       	mov    edi,0x1
    2f18:	e8 23 fb ff ff       	call   2a40 <exit@plt>
    2f1d:	55                   	push   rbp
    2f1e:	48 89 e5             	mov    rbp,rsp
    2f21:	48 8d 35 12 67 00 00 	lea    rsi,[rip+0x6712]        # 963a <__cxa_finalize@plt+0x6a2a>
    2f28:	bf 06 00 00 00       	mov    edi,0x6
    2f2d:	e8 4e fa ff ff       	call   2980 <setlocale@plt>
    2f32:	48 8b 05 f7 b0 20 00 	mov    rax,QWORD PTR [rip+0x20b0f7]        # 20e030 <stdin@@GLIBC_2.2.5>
    2f39:	b9 00 00 00 00       	mov    ecx,0x0
    2f3e:	ba 02 00 00 00       	mov    edx,0x2
    2f43:	be 00 00 00 00       	mov    esi,0x0
    2f48:	48 89 c7             	mov    rdi,rax
    2f4b:	e8 20 f8 ff ff       	call   2770 <setvbuf@plt>
    2f50:	48 8b 05 c9 b0 20 00 	mov    rax,QWORD PTR [rip+0x20b0c9]        # 20e020 <stdout@@GLIBC_2.2.5>
    2f57:	b9 00 00 00 00       	mov    ecx,0x0
    2f5c:	ba 02 00 00 00       	mov    edx,0x2
    2f61:	be 00 00 00 00       	mov    esi,0x0
    2f66:	48 89 c7             	mov    rdi,rax
    2f69:	e8 02 f8 ff ff       	call   2770 <setvbuf@plt>
    2f6e:	48 8b 05 cb b0 20 00 	mov    rax,QWORD PTR [rip+0x20b0cb]        # 20e040 <stderr@@GLIBC_2.2.5>
    2f75:	b9 00 00 00 00       	mov    ecx,0x0
    2f7a:	ba 02 00 00 00       	mov    edx,0x2
    2f7f:	be 00 00 00 00       	mov    esi,0x0
    2f84:	48 89 c7             	mov    rdi,rax
    2f87:	e8 e4 f7 ff ff       	call   2770 <setvbuf@plt>
    2f8c:	48 8d 35 4d ff ff ff 	lea    rsi,[rip+0xffffffffffffff4d]        # 2ee0 <__cxa_finalize@plt+0x2d0>
    2f93:	bf 0e 00 00 00       	mov    edi,0xe
    2f98:	e8 93 fa ff ff       	call   2a30 <signal@plt>
    2f9d:	bf 3c 00 00 00       	mov    edi,0x3c
    2fa2:	e8 49 fc ff ff       	call   2bf0 <alarm@plt>
    2fa7:	90                   	nop
    2fa8:	5d                   	pop    rbp
    2fa9:	c3                   	ret    
    2faa:	55                   	push   rbp
    2fab:	48 89 e5             	mov    rbp,rsp
    2fae:	53                   	push   rbx
    2faf:	48 83 ec 58          	sub    rsp,0x58
    2fb3:	89 7d ac             	mov    DWORD PTR [rbp-0x54],edi
    2fb6:	48 89 75 a0          	mov    QWORD PTR [rbp-0x60],rsi
    2fba:	64 48 8b 04 25 28 00 	mov    rax,QWORD PTR fs:0x28
    2fc1:	00 00 
    2fc3:	48 89 45 e8          	mov    QWORD PTR [rbp-0x18],rax
    2fc7:	31 c0                	xor    eax,eax
    2fc9:	83 7d ac 02          	cmp    DWORD PTR [rbp-0x54],0x2
    2fcd:	74 16                	je     2fe5 <__cxa_finalize@plt+0x3d5>
    2fcf:	48 8d 3d 72 66 00 00 	lea    rdi,[rip+0x6672]        # 9648 <__cxa_finalize@plt+0x6a38>
    2fd6:	e8 25 fb ff ff       	call   2b00 <puts@plt>
    2fdb:	bf 01 00 00 00       	mov    edi,0x1
    2fe0:	e8 5b fa ff ff       	call   2a40 <exit@plt>
    2fe5:	e8 33 ff ff ff       	call   2f1d <__cxa_finalize@plt+0x30d>
    2fea:	e8 32 12 00 00       	call   4221 <__cxa_finalize@plt+0x1611>
    2fef:	48 8b 45 a0          	mov    rax,QWORD PTR [rbp-0x60]
    2ff3:	48 83 c0 08          	add    rax,0x8
    2ff7:	48 8b 10             	mov    rdx,QWORD PTR [rax]
    2ffa:	48 8d 45 c0          	lea    rax,[rbp-0x40]
    2ffe:	48 89 d6             	mov    rsi,rdx
    3001:	48 89 c7             	mov    rdi,rax
    3004:	e8 21 fd ff ff       	call   2d2a <__cxa_finalize@plt+0x11a>
    3009:	48 8d 45 c0          	lea    rax,[rbp-0x40]
    300d:	48 89 c7             	mov    rdi,rax
    3010:	e8 a3 1d 00 00       	call   4db8 <__cxa_finalize@plt+0x21a8>
    3015:	89 45 bc             	mov    DWORD PTR [rbp-0x44],eax
    3018:	8b 5d bc             	mov    ebx,DWORD PTR [rbp-0x44]
    301b:	48 8d 45 c0          	lea    rax,[rbp-0x40]
    301f:	48 89 c7             	mov    rdi,rax
    3022:	e8 19 fb ff ff       	call   2b40 <_ZNSt7__cxx1112basic_stringIwSt11char_traitsIwESaIwEED1Ev@plt>
    3027:	89 d8                	mov    eax,ebx
    3029:	48 8b 4d e8          	mov    rcx,QWORD PTR [rbp-0x18]
    302d:	64 48 33 0c 25 28 00 	xor    rcx,QWORD PTR fs:0x28
    3034:	00 00 
    3036:	74 21                	je     3059 <__cxa_finalize@plt+0x449>
    3038:	eb 1a                	jmp    3054 <__cxa_finalize@plt+0x444>
    303a:	48 89 c3             	mov    rbx,rax
    303d:	48 8d 45 c0          	lea    rax,[rbp-0x40]
    3041:	48 89 c7             	mov    rdi,rax
    3044:	e8 f7 fa ff ff       	call   2b40 <_ZNSt7__cxx1112basic_stringIwSt11char_traitsIwESaIwEED1Ev@plt>
    3049:	48 89 d8             	mov    rax,rbx
    304c:	48 89 c7             	mov    rdi,rax
    304f:	e8 3c fb ff ff       	call   2b90 <_Unwind_Resume@plt>
    3054:	e8 a7 f9 ff ff       	call   2a00 <__stack_chk_fail@plt>
    3059:	48 83 c4 58          	add    rsp,0x58
    305d:	5b                   	pop    rbx
    305e:	5d                   	pop    rbp
    305f:	c3                   	ret    
    3060:	55                   	push   rbp
    3061:	48 89 e5             	mov    rbp,rsp
    3064:	48 83 ec 10          	sub    rsp,0x10
    3068:	89 7d fc             	mov    DWORD PTR [rbp-0x4],edi
    306b:	89 75 f8             	mov    DWORD PTR [rbp-0x8],esi
    306e:	83 7d fc 01          	cmp    DWORD PTR [rbp-0x4],0x1
    3072:	75 32                	jne    30a6 <__cxa_finalize@plt+0x496>
    3074:	81 7d f8 ff ff 00 00 	cmp    DWORD PTR [rbp-0x8],0xffff
    307b:	75 29                	jne    30a6 <__cxa_finalize@plt+0x496>
    307d:	48 8d 3d ed b0 20 00 	lea    rdi,[rip+0x20b0ed]        # 20e171 <_ZSt5wcout@@GLIBCXX_3.4+0x111>
    3084:	e8 67 fa ff ff       	call   2af0 <_ZNSt8ios_base4InitC1Ev@plt>
    3089:	48 8d 15 78 af 20 00 	lea    rdx,[rip+0x20af78]        # 20e008 <_ZTVSt19__codecvt_utf8_baseIwE@@GLIBCXX_3.4.21+0x588>
    3090:	48 8d 35 da b0 20 00 	lea    rsi,[rip+0x20b0da]        # 20e171 <_ZSt5wcout@@GLIBCXX_3.4+0x111>
    3097:	48 8b 05 5a af 20 00 	mov    rax,QWORD PTR [rip+0x20af5a]        # 20dff8 <_ZNSt8ios_base4InitD1Ev@GLIBCXX_3.4>
    309e:	48 89 c7             	mov    rdi,rax
    30a1:	e8 ba f8 ff ff       	call   2960 <__cxa_atexit@plt>
    30a6:	90                   	nop
    30a7:	c9                   	leave  
    30a8:	c3                   	ret    
    30a9:	55                   	push   rbp
    30aa:	48 89 e5             	mov    rbp,rsp
    30ad:	be ff ff 00 00       	mov    esi,0xffff
    30b2:	bf 01 00 00 00       	mov    edi,0x1
    30b7:	e8 a4 ff ff ff       	call   3060 <__cxa_finalize@plt+0x450>
    30bc:	5d                   	pop    rbp
    30bd:	c3                   	ret    
    30be:	55                   	push   rbp
    30bf:	48 89 e5             	mov    rbp,rsp
    30c2:	48 89 7d f8          	mov    QWORD PTR [rbp-0x8],rdi
    30c6:	48 89 75 f0          	mov    QWORD PTR [rbp-0x10],rsi
    30ca:	48 8b 45 f0          	mov    rax,QWORD PTR [rbp-0x10]
    30ce:	8b 10                	mov    edx,DWORD PTR [rax]
    30d0:	48 8b 45 f8          	mov    rax,QWORD PTR [rbp-0x8]
    30d4:	89 10                	mov    DWORD PTR [rax],edx
    30d6:	90                   	nop
    30d7:	5d                   	pop    rbp
    30d8:	c3                   	ret    
    30d9:	90                   	nop
    30da:	55                   	push   rbp
    30db:	48 89 e5             	mov    rbp,rsp
    30de:	48 83 ec 20          	sub    rsp,0x20
    30e2:	48 89 7d f8          	mov    QWORD PTR [rbp-0x8],rdi
    30e6:	48 89 75 f0          	mov    QWORD PTR [rbp-0x10],rsi
    30ea:	89 55 ec             	mov    DWORD PTR [rbp-0x14],edx
    30ed:	48 89 4d e0          	mov    QWORD PTR [rbp-0x20],rcx
    30f1:	48 8b 45 f8          	mov    rax,QWORD PTR [rbp-0x8]
    30f5:	48 8b 55 e0          	mov    rdx,QWORD PTR [rbp-0x20]
    30f9:	48 89 d6             	mov    rsi,rdx
    30fc:	48 89 c7             	mov    rdi,rax
    30ff:	e8 bc f6 ff ff       	call   27c0 <_ZNSt7codecvtIwc11__mbstate_tEC2Em@plt>
    3104:	48 8d 15 85 a9 20 00 	lea    rdx,[rip+0x20a985]        # 20da90 <_ZTVSt19__codecvt_utf8_baseIwE@@GLIBCXX_3.4.21+0x10>
    310b:	48 8b 45 f8          	mov    rax,QWORD PTR [rbp-0x8]
    310f:	48 89 10             	mov    QWORD PTR [rax],rdx
    3112:	48 8b 45 f8          	mov    rax,QWORD PTR [rbp-0x8]
    3116:	48 8b 55 f0          	mov    rdx,QWORD PTR [rbp-0x10]
    311a:	48 89 50 18          	mov    QWORD PTR [rax+0x18],rdx
    311e:	48 8b 45 f8          	mov    rax,QWORD PTR [rbp-0x8]
    3122:	8b 55 ec             	mov    edx,DWORD PTR [rbp-0x14]
    3125:	89 50 20             	mov    DWORD PTR [rax+0x20],edx
    3128:	90                   	nop
    3129:	c9                   	leave  
    312a:	c3                   	ret    
    312b:	90                   	nop
    312c:	55                   	push   rbp
    312d:	48 89 e5             	mov    rbp,rsp
    3130:	48 83 ec 10          	sub    rsp,0x10
    3134:	48 89 7d f8          	mov    QWORD PTR [rbp-0x8],rdi
    3138:	48 8b 45 f8          	mov    rax,QWORD PTR [rbp-0x8]
    313c:	48 83 c0 28          	add    rax,0x28
    3140:	48 89 c7             	mov    rdi,rax
    3143:	e8 f8 f9 ff ff       	call   2b40 <_ZNSt7__cxx1112basic_stringIwSt11char_traitsIwESaIwEED1Ev@plt>
    3148:	48 8b 45 f8          	mov    rax,QWORD PTR [rbp-0x8]
    314c:	48 83 c0 08          	add    rax,0x8
    3150:	48 89 c7             	mov    rdi,rax
    3153:	e8 68 f7 ff ff       	call   28c0 <_ZNSt7__cxx1112basic_stringIcSt11char_traitsIcESaIcEED1Ev@plt>
    3158:	48 8b 45 f8          	mov    rax,QWORD PTR [rbp-0x8]
    315c:	48 89 c7             	mov    rdi,rax
    315f:	e8 ae 01 00 00       	call   3312 <__cxa_finalize@plt+0x702>
    3164:	90                   	nop
    3165:	c9                   	leave  
    3166:	c3                   	ret    
    3167:	90                   	nop
    3168:	55                   	push   rbp
    3169:	48 89 e5             	mov    rbp,rsp
    316c:	48 83 ec 10          	sub    rsp,0x10
    3170:	48 89 7d f8          	mov    QWORD PTR [rbp-0x8],rdi
    3174:	48 8b 45 f8          	mov    rax,QWORD PTR [rbp-0x8]
    3178:	48 89 c7             	mov    rdi,rax
    317b:	e8 e0 f9 ff ff       	call   2b60 <_ZNSaIwED2Ev@plt>
    3180:	90                   	nop
    3181:	c9                   	leave  
    3182:	c3                   	ret    
    3183:	55                   	push   rbp
    3184:	48 89 e5             	mov    rbp,rsp
    3187:	48 89 7d f8          	mov    QWORD PTR [rbp-0x8],rdi
    318b:	48 89 75 f0          	mov    QWORD PTR [rbp-0x10],rsi
    318f:	48 8b 45 f0          	mov    rax,QWORD PTR [rbp-0x10]
    3193:	48 8b 10             	mov    rdx,QWORD PTR [rax]
    3196:	48 8b 45 f8          	mov    rax,QWORD PTR [rbp-0x8]
    319a:	48 8b 00             	mov    rax,QWORD PTR [rax]
    319d:	48 39 c2             	cmp    rdx,rax
    31a0:	73 06                	jae    31a8 <__cxa_finalize@plt+0x598>
    31a2:	48 8b 45 f0          	mov    rax,QWORD PTR [rbp-0x10]
    31a6:	eb 04                	jmp    31ac <__cxa_finalize@plt+0x59c>
    31a8:	48 8b 45 f8          	mov    rax,QWORD PTR [rbp-0x8]
    31ac:	5d                   	pop    rbp
    31ad:	c3                   	ret    
    31ae:	55                   	push   rbp
    31af:	48 89 e5             	mov    rbp,rsp
    31b2:	53                   	push   rbx
    31b3:	48 83 ec 38          	sub    rsp,0x38
    31b7:	48 89 7d c8          	mov    QWORD PTR [rbp-0x38],rdi
    31bb:	48 89 75 c0          	mov    QWORD PTR [rbp-0x40],rsi
    31bf:	64 48 8b 04 25 28 00 	mov    rax,QWORD PTR fs:0x28
    31c6:	00 00 
    31c8:	48 89 45 e8          	mov    QWORD PTR [rbp-0x18],rax
    31cc:	31 c0                	xor    eax,eax
    31ce:	48 8b 5d c8          	mov    rbx,QWORD PTR [rbp-0x38]
    31d2:	48 c7 45 e0 ff ff 10 	mov    QWORD PTR [rbp-0x20],0x10ffff
    31d9:	00 
    31da:	48 c7 45 d8 ff ff 10 	mov    QWORD PTR [rbp-0x28],0x10ffff
    31e1:	00 
    31e2:	48 8d 55 e0          	lea    rdx,[rbp-0x20]
    31e6:	48 8d 45 d8          	lea    rax,[rbp-0x28]
    31ea:	48 89 d6             	mov    rsi,rdx
    31ed:	48 89 c7             	mov    rdi,rax
    31f0:	e8 8e ff ff ff       	call   3183 <__cxa_finalize@plt+0x573>
    31f5:	48 8b 00             	mov    rax,QWORD PTR [rax]
    31f8:	48 8b 55 c0          	mov    rdx,QWORD PTR [rbp-0x40]
    31fc:	48 89 d1             	mov    rcx,rdx
    31ff:	ba 00 00 00 00       	mov    edx,0x0
    3204:	48 89 c6             	mov    rsi,rax
    3207:	48 89 df             	mov    rdi,rbx
    320a:	e8 cb fe ff ff       	call   30da <__cxa_finalize@plt+0x4ca>
    320f:	48 8d 15 d2 a8 20 00 	lea    rdx,[rip+0x20a8d2]        # 20dae8 <_ZTVSt19__codecvt_utf8_baseIwE@@GLIBCXX_3.4.21+0x68>
    3216:	48 8b 45 c8          	mov    rax,QWORD PTR [rbp-0x38]
    321a:	48 89 10             	mov    QWORD PTR [rax],rdx
    321d:	90                   	nop
    321e:	48 8b 45 e8          	mov    rax,QWORD PTR [rbp-0x18]
    3222:	64 48 33 04 25 28 00 	xor    rax,QWORD PTR fs:0x28
    3229:	00 00 
    322b:	74 05                	je     3232 <__cxa_finalize@plt+0x622>
    322d:	e8 ce f7 ff ff       	call   2a00 <__stack_chk_fail@plt>
    3232:	48 83 c4 38          	add    rsp,0x38
    3236:	5b                   	pop    rbx
    3237:	5d                   	pop    rbp
    3238:	c3                   	ret    
    3239:	90                   	nop
    323a:	55                   	push   rbp
    323b:	48 89 e5             	mov    rbp,rsp
    323e:	53                   	push   rbx
    323f:	48 83 ec 18          	sub    rsp,0x18
    3243:	48 89 7d e8          	mov    QWORD PTR [rbp-0x18],rdi
    3247:	48 89 75 e0          	mov    QWORD PTR [rbp-0x20],rsi
    324b:	48 8b 45 e8          	mov    rax,QWORD PTR [rbp-0x18]
    324f:	48 8b 55 e0          	mov    rdx,QWORD PTR [rbp-0x20]
    3253:	48 89 d6             	mov    rsi,rdx
    3256:	48 89 c7             	mov    rdi,rax
    3259:	e8 84 01 00 00       	call   33e2 <__cxa_finalize@plt+0x7d2>
    325e:	48 8b 45 e8          	mov    rax,QWORD PTR [rbp-0x18]
    3262:	48 83 c0 08          	add    rax,0x8
    3266:	48 89 c7             	mov    rdi,rax
    3269:	e8 22 f8 ff ff       	call   2a90 <_ZNSt7__cxx1112basic_stringIcSt11char_traitsIcESaIcEEC1Ev@plt>
    326e:	48 8b 45 e8          	mov    rax,QWORD PTR [rbp-0x18]
    3272:	48 83 c0 28          	add    rax,0x28
    3276:	48 89 c7             	mov    rdi,rax
    3279:	e8 22 f6 ff ff       	call   28a0 <_ZNSt7__cxx1112basic_stringIwSt11char_traitsIwESaIwEEC1Ev@plt>
    327e:	48 8b 45 e8          	mov    rax,QWORD PTR [rbp-0x18]
    3282:	c7 40 48 00 00 00 00 	mov    DWORD PTR [rax+0x48],0x0
    3289:	48 8b 45 e8          	mov    rax,QWORD PTR [rbp-0x18]
    328d:	c7 40 4c 00 00 00 00 	mov    DWORD PTR [rax+0x4c],0x0
    3294:	48 8b 45 e8          	mov    rax,QWORD PTR [rbp-0x18]
    3298:	48 c7 40 50 00 00 00 	mov    QWORD PTR [rax+0x50],0x0
    329f:	00 
    32a0:	48 8b 45 e8          	mov    rax,QWORD PTR [rbp-0x18]
    32a4:	c6 40 58 00          	mov    BYTE PTR [rax+0x58],0x0
    32a8:	48 8b 45 e8          	mov    rax,QWORD PTR [rbp-0x18]
    32ac:	c6 40 59 00          	mov    BYTE PTR [rax+0x59],0x0
    32b0:	48 8b 45 e8          	mov    rax,QWORD PTR [rbp-0x18]
    32b4:	48 89 c7             	mov    rdi,rax
    32b7:	e8 4c 01 00 00       	call   3408 <__cxa_finalize@plt+0x7f8>
    32bc:	83 f0 01             	xor    eax,0x1
    32bf:	84 c0                	test   al,al
    32c1:	74 46                	je     3309 <__cxa_finalize@plt+0x6f9>
    32c3:	48 8d 3d 9d 63 00 00 	lea    rdi,[rip+0x639d]        # 9667 <__cxa_finalize@plt+0x6a57>
    32ca:	e8 31 f6 ff ff       	call   2900 <_ZSt19__throw_logic_errorPKc@plt>
    32cf:	48 89 c3             	mov    rbx,rax
    32d2:	48 8b 45 e8          	mov    rax,QWORD PTR [rbp-0x18]
    32d6:	48 83 c0 28          	add    rax,0x28
    32da:	48 89 c7             	mov    rdi,rax
    32dd:	e8 5e f8 ff ff       	call   2b40 <_ZNSt7__cxx1112basic_stringIwSt11char_traitsIwESaIwEED1Ev@plt>
    32e2:	48 8b 45 e8          	mov    rax,QWORD PTR [rbp-0x18]
    32e6:	48 83 c0 08          	add    rax,0x8
    32ea:	48 89 c7             	mov    rdi,rax
    32ed:	e8 ce f5 ff ff       	call   28c0 <_ZNSt7__cxx1112basic_stringIcSt11char_traitsIcESaIcEED1Ev@plt>
    32f2:	48 8b 45 e8          	mov    rax,QWORD PTR [rbp-0x18]
    32f6:	48 89 c7             	mov    rdi,rax
    32f9:	e8 14 00 00 00       	call   3312 <__cxa_finalize@plt+0x702>
    32fe:	48 89 d8             	mov    rax,rbx
    3301:	48 89 c7             	mov    rdi,rax
    3304:	e8 87 f8 ff ff       	call   2b90 <_Unwind_Resume@plt>
    3309:	90                   	nop
    330a:	48 83 c4 18          	add    rsp,0x18
    330e:	5b                   	pop    rbx
    330f:	5d                   	pop    rbp
    3310:	c3                   	ret    
    3311:	90                   	nop
    3312:	55                   	push   rbp
    3313:	48 89 e5             	mov    rbp,rsp
    3316:	48 83 ec 20          	sub    rsp,0x20
    331a:	48 89 7d e8          	mov    QWORD PTR [rbp-0x18],rdi
    331e:	48 8b 45 e8          	mov    rax,QWORD PTR [rbp-0x18]
    3322:	48 89 c7             	mov    rdi,rax
    3325:	e8 fe 00 00 00       	call   3428 <__cxa_finalize@plt+0x818>
    332a:	48 89 45 f8          	mov    QWORD PTR [rbp-0x8],rax
    332e:	48 8b 45 f8          	mov    rax,QWORD PTR [rbp-0x8]
    3332:	48 8b 00             	mov    rax,QWORD PTR [rax]
    3335:	48 85 c0             	test   rax,rax
    3338:	74 21                	je     335b <__cxa_finalize@plt+0x74b>
    333a:	48 8b 45 e8          	mov    rax,QWORD PTR [rbp-0x18]
    333e:	48 89 c7             	mov    rdi,rax
    3341:	e8 fc 00 00 00       	call   3442 <__cxa_finalize@plt+0x832>
    3346:	48 89 c2             	mov    rdx,rax
    3349:	48 8b 45 f8          	mov    rax,QWORD PTR [rbp-0x8]
    334d:	48 8b 00             	mov    rax,QWORD PTR [rax]
    3350:	48 89 c6             	mov    rsi,rax
    3353:	48 89 d7             	mov    rdi,rdx
    3356:	e8 51 01 00 00       	call   34ac <__cxa_finalize@plt+0x89c>
    335b:	48 8b 45 f8          	mov    rax,QWORD PTR [rbp-0x8]
    335f:	48 c7 00 00 00 00 00 	mov    QWORD PTR [rax],0x0
    3366:	90                   	nop
    3367:	c9                   	leave  
    3368:	c3                   	ret    
    3369:	90                   	nop
    336a:	55                   	push   rbp
    336b:	48 89 e5             	mov    rbp,rsp
    336e:	48 83 ec 30          	sub    rsp,0x30
    3372:	48 89 7d e8          	mov    QWORD PTR [rbp-0x18],rdi
    3376:	48 89 75 e0          	mov    QWORD PTR [rbp-0x20],rsi
    337a:	48 89 55 d8          	mov    QWORD PTR [rbp-0x28],rdx
    337e:	64 48 8b 04 25 28 00 	mov    rax,QWORD PTR fs:0x28
    3385:	00 00 
    3387:	48 89 45 f8          	mov    QWORD PTR [rbp-0x8],rax
    338b:	31 c0                	xor    eax,eax
    338d:	48 8b 45 d8          	mov    rax,QWORD PTR [rbp-0x28]
    3391:	48 89 c7             	mov    rdi,rax
    3394:	e8 e7 f6 ff ff       	call   2a80 <_ZNKSt7__cxx1112basic_stringIcSt11char_traitsIcESaIcEE4dataEv@plt>
    3399:	48 89 45 f0          	mov    QWORD PTR [rbp-0x10],rax
    339d:	48 8b 45 d8          	mov    rax,QWORD PTR [rbp-0x28]
    33a1:	48 89 c7             	mov    rdi,rax
    33a4:	e8 47 f5 ff ff       	call   28f0 <_ZNKSt7__cxx1112basic_stringIcSt11char_traitsIcESaIcEE4sizeEv@plt>
    33a9:	48 89 c2             	mov    rdx,rax
    33ac:	48 8b 45 f0          	mov    rax,QWORD PTR [rbp-0x10]
    33b0:	48 8d 0c 02          	lea    rcx,[rdx+rax*1]
    33b4:	48 8b 45 e8          	mov    rax,QWORD PTR [rbp-0x18]
    33b8:	48 8b 55 f0          	mov    rdx,QWORD PTR [rbp-0x10]
    33bc:	48 8b 75 e0          	mov    rsi,QWORD PTR [rbp-0x20]
    33c0:	48 89 c7             	mov    rdi,rax
    33c3:	e8 16 01 00 00       	call   34de <__cxa_finalize@plt+0x8ce>
    33c8:	48 8b 45 e8          	mov    rax,QWORD PTR [rbp-0x18]
    33cc:	48 8b 4d f8          	mov    rcx,QWORD PTR [rbp-0x8]
    33d0:	64 48 33 0c 25 28 00 	xor    rcx,QWORD PTR fs:0x28
    33d7:	00 00 
    33d9:	74 05                	je     33e0 <__cxa_finalize@plt+0x7d0>
    33db:	e8 20 f6 ff ff       	call   2a00 <__stack_chk_fail@plt>
    33e0:	c9                   	leave  
    33e1:	c3                   	ret    
    33e2:	55                   	push   rbp
    33e3:	48 89 e5             	mov    rbp,rsp
    33e6:	48 83 ec 10          	sub    rsp,0x10
    33ea:	48 89 7d f8          	mov    QWORD PTR [rbp-0x8],rdi
    33ee:	48 89 75 f0          	mov    QWORD PTR [rbp-0x10],rsi
    33f2:	48 8b 45 f8          	mov    rax,QWORD PTR [rbp-0x8]
    33f6:	48 8b 55 f0          	mov    rdx,QWORD PTR [rbp-0x10]
    33fa:	48 89 d6             	mov    rsi,rdx
    33fd:	48 89 c7             	mov    rdi,rax
    3400:	e8 2b 02 00 00       	call   3630 <__cxa_finalize@plt+0xa20>
    3405:	90                   	nop
    3406:	c9                   	leave  
    3407:	c3                   	ret    
    3408:	55                   	push   rbp
    3409:	48 89 e5             	mov    rbp,rsp
    340c:	48 83 ec 10          	sub    rsp,0x10
    3410:	48 89 7d f8          	mov    QWORD PTR [rbp-0x8],rdi
    3414:	48 8b 45 f8          	mov    rax,QWORD PTR [rbp-0x8]
    3418:	48 89 c7             	mov    rdi,rax
    341b:	e8 46 02 00 00       	call   3666 <__cxa_finalize@plt+0xa56>
    3420:	48 85 c0             	test   rax,rax
    3423:	0f 95 c0             	setne  al
    3426:	c9                   	leave  
    3427:	c3                   	ret    
    3428:	55                   	push   rbp
    3429:	48 89 e5             	mov    rbp,rsp
    342c:	48 83 ec 10          	sub    rsp,0x10
    3430:	48 89 7d f8          	mov    QWORD PTR [rbp-0x8],rdi
    3434:	48 8b 45 f8          	mov    rax,QWORD PTR [rbp-0x8]
    3438:	48 89 c7             	mov    rdi,rax
    343b:	e8 40 02 00 00       	call   3680 <__cxa_finalize@plt+0xa70>
    3440:	c9                   	leave  
    3441:	c3                   	ret    
    3442:	55                   	push   rbp
    3443:	48 89 e5             	mov    rbp,rsp
    3446:	48 83 ec 10          	sub    rsp,0x10
    344a:	48 89 7d f8          	mov    QWORD PTR [rbp-0x8],rdi
    344e:	48 8b 45 f8          	mov    rax,QWORD PTR [rbp-0x8]
    3452:	48 89 c7             	mov    rdi,rax
    3455:	e8 40 02 00 00       	call   369a <__cxa_finalize@plt+0xa8a>
    345a:	c9                   	leave  
    345b:	c3                   	ret    
    345c:	55                   	push   rbp
    345d:	48 89 e5             	mov    rbp,rsp
    3460:	48 83 ec 10          	sub    rsp,0x10
    3464:	48 89 7d f8          	mov    QWORD PTR [rbp-0x8],rdi
    3468:	48 8d 15 79 a6 20 00 	lea    rdx,[rip+0x20a679]        # 20dae8 <_ZTVSt19__codecvt_utf8_baseIwE@@GLIBCXX_3.4.21+0x68>
    346f:	48 8b 45 f8          	mov    rax,QWORD PTR [rbp-0x8]
    3473:	48 89 10             	mov    QWORD PTR [rax],rdx
    3476:	48 8b 45 f8          	mov    rax,QWORD PTR [rbp-0x8]
    347a:	48 89 c7             	mov    rdi,rax
    347d:	e8 7e f3 ff ff       	call   2800 <_ZNSt19__codecvt_utf8_baseIwED2Ev@plt>
    3482:	90                   	nop
    3483:	c9                   	leave  
    3484:	c3                   	ret    
    3485:	90                   	nop
    3486:	55                   	push   rbp
    3487:	48 89 e5             	mov    rbp,rsp
    348a:	48 83 ec 10          	sub    rsp,0x10
    348e:	48 89 7d f8          	mov    QWORD PTR [rbp-0x8],rdi
    3492:	48 8b 45 f8          	mov    rax,QWORD PTR [rbp-0x8]
    3496:	48 89 c7             	mov    rdi,rax
    3499:	e8 be ff ff ff       	call   345c <__cxa_finalize@plt+0x84c>
    349e:	48 8b 45 f8          	mov    rax,QWORD PTR [rbp-0x8]
    34a2:	48 89 c7             	mov    rdi,rax
    34a5:	e8 e6 f4 ff ff       	call   2990 <_ZdlPv@plt>
    34aa:	c9                   	leave  
    34ab:	c3                   	ret    
    34ac:	55                   	push   rbp
    34ad:	48 89 e5             	mov    rbp,rsp
    34b0:	48 83 ec 10          	sub    rsp,0x10
    34b4:	48 89 7d f8          	mov    QWORD PTR [rbp-0x8],rdi
    34b8:	48 89 75 f0          	mov    QWORD PTR [rbp-0x10],rsi
    34bc:	48 83 7d f0 00       	cmp    QWORD PTR [rbp-0x10],0x0
    34c1:	74 17                	je     34da <__cxa_finalize@plt+0x8ca>
    34c3:	48 8b 45 f0          	mov    rax,QWORD PTR [rbp-0x10]
    34c7:	48 8b 00             	mov    rax,QWORD PTR [rax]
    34ca:	48 83 c0 08          	add    rax,0x8
    34ce:	48 8b 00             	mov    rax,QWORD PTR [rax]
    34d1:	48 8b 55 f0          	mov    rdx,QWORD PTR [rbp-0x10]
    34d5:	48 89 d7             	mov    rdi,rdx
    34d8:	ff d0                	call   rax
    34da:	90                   	nop
    34db:	c9                   	leave  
    34dc:	c3                   	ret    
    34dd:	90                   	nop
    34de:	55                   	push   rbp
    34df:	48 89 e5             	mov    rbp,rsp
    34e2:	41 54                	push   r12
    34e4:	53                   	push   rbx
    34e5:	48 83 ec 60          	sub    rsp,0x60
    34e9:	48 89 7d a8          	mov    QWORD PTR [rbp-0x58],rdi
    34ed:	48 89 75 a0          	mov    QWORD PTR [rbp-0x60],rsi
    34f1:	48 89 55 98          	mov    QWORD PTR [rbp-0x68],rdx
    34f5:	48 89 4d 90          	mov    QWORD PTR [rbp-0x70],rcx
    34f9:	64 48 8b 04 25 28 00 	mov    rax,QWORD PTR fs:0x28
    3500:	00 00 
    3502:	48 89 45 e8          	mov    QWORD PTR [rbp-0x18],rax
    3506:	31 c0                	xor    eax,eax
    3508:	48 8b 45 a0          	mov    rax,QWORD PTR [rbp-0x60]
    350c:	0f b6 40 58          	movzx  eax,BYTE PTR [rax+0x58]
    3510:	83 f0 01             	xor    eax,0x1
    3513:	84 c0                	test   al,al
    3515:	74 16                	je     352d <__cxa_finalize@plt+0x91d>
    3517:	48 8b 45 a0          	mov    rax,QWORD PTR [rbp-0x60]
    351b:	c7 40 48 00 00 00 00 	mov    DWORD PTR [rax+0x48],0x0
    3522:	48 8b 45 a0          	mov    rax,QWORD PTR [rbp-0x60]
    3526:	c7 40 4c 00 00 00 00 	mov    DWORD PTR [rax+0x4c],0x0
    352d:	48 8b 45 a0          	mov    rax,QWORD PTR [rbp-0x60]
    3531:	48 8d 50 28          	lea    rdx,[rax+0x28]
    3535:	48 8d 45 bf          	lea    rax,[rbp-0x41]
    3539:	48 89 d6             	mov    rsi,rdx
    353c:	48 89 c7             	mov    rdi,rax
    353f:	e8 3c f2 ff ff       	call   2780 <_ZNKSt7__cxx1112basic_stringIwSt11char_traitsIwESaIwEE13get_allocatorEv@plt>
    3544:	48 8d 55 bf          	lea    rdx,[rbp-0x41]
    3548:	48 8d 45 c0          	lea    rax,[rbp-0x40]
    354c:	48 89 d6             	mov    rsi,rdx
    354f:	48 89 c7             	mov    rdi,rax
    3552:	e8 99 f4 ff ff       	call   29f0 <_ZNSt7__cxx1112basic_stringIwSt11char_traitsIwESaIwEEC1ERKS3_@plt>
    3557:	48 8d 45 bf          	lea    rax,[rbp-0x41]
    355b:	48 89 c7             	mov    rdi,rax
    355e:	e8 3d f6 ff ff       	call   2ba0 <_ZNSaIwED1Ev@plt>
    3563:	48 8b 45 a0          	mov    rax,QWORD PTR [rbp-0x60]
    3567:	4c 8d 60 50          	lea    r12,[rax+0x50]
    356b:	48 8b 45 a0          	mov    rax,QWORD PTR [rbp-0x60]
    356f:	48 8d 58 48          	lea    rbx,[rax+0x48]
    3573:	48 8b 45 a0          	mov    rax,QWORD PTR [rbp-0x60]
    3577:	48 89 c7             	mov    rdi,rax
    357a:	e8 35 01 00 00       	call   36b4 <__cxa_finalize@plt+0xaa4>
    357f:	48 89 c1             	mov    rcx,rax
    3582:	48 8d 55 c0          	lea    rdx,[rbp-0x40]
    3586:	48 8b 75 90          	mov    rsi,QWORD PTR [rbp-0x70]
    358a:	48 8b 45 98          	mov    rax,QWORD PTR [rbp-0x68]
    358e:	4d 89 e1             	mov    r9,r12
    3591:	49 89 d8             	mov    r8,rbx
    3594:	48 89 c7             	mov    rdi,rax
    3597:	e8 32 01 00 00       	call   36ce <__cxa_finalize@plt+0xabe>
    359c:	84 c0                	test   al,al
    359e:	74 15                	je     35b5 <__cxa_finalize@plt+0x9a5>
    35a0:	48 8d 55 c0          	lea    rdx,[rbp-0x40]
    35a4:	48 8b 45 a8          	mov    rax,QWORD PTR [rbp-0x58]
    35a8:	48 89 d6             	mov    rsi,rdx
    35ab:	48 89 c7             	mov    rdi,rax
    35ae:	e8 ad f4 ff ff       	call   2a60 <_ZNSt7__cxx1112basic_stringIwSt11char_traitsIwESaIwEEC1EOS4_@plt>
    35b3:	eb 31                	jmp    35e6 <__cxa_finalize@plt+0x9d6>
    35b5:	48 8b 45 a0          	mov    rax,QWORD PTR [rbp-0x60]
    35b9:	0f b6 40 59          	movzx  eax,BYTE PTR [rax+0x59]
    35bd:	84 c0                	test   al,al
    35bf:	74 19                	je     35da <__cxa_finalize@plt+0x9ca>
    35c1:	48 8b 45 a0          	mov    rax,QWORD PTR [rbp-0x60]
    35c5:	48 8d 50 28          	lea    rdx,[rax+0x28]
    35c9:	48 8b 45 a8          	mov    rax,QWORD PTR [rbp-0x58]
    35cd:	48 89 d6             	mov    rsi,rdx
    35d0:	48 89 c7             	mov    rdi,rax
    35d3:	e8 98 f3 ff ff       	call   2970 <_ZNSt7__cxx1112basic_stringIwSt11char_traitsIwESaIwEEC1ERKS4_@plt>
    35d8:	eb 0c                	jmp    35e6 <__cxa_finalize@plt+0x9d6>
    35da:	48 8d 3d 96 60 00 00 	lea    rdi,[rip+0x6096]        # 9677 <__cxa_finalize@plt+0x6a67>
    35e1:	e8 3a f3 ff ff       	call   2920 <_ZSt19__throw_range_errorPKc@plt>
    35e6:	48 8d 45 c0          	lea    rax,[rbp-0x40]
    35ea:	48 89 c7             	mov    rdi,rax
    35ed:	e8 4e f5 ff ff       	call   2b40 <_ZNSt7__cxx1112basic_stringIwSt11char_traitsIwESaIwEED1Ev@plt>
    35f2:	48 8b 45 a8          	mov    rax,QWORD PTR [rbp-0x58]
    35f6:	48 8b 4d e8          	mov    rcx,QWORD PTR [rbp-0x18]
    35fa:	64 48 33 0c 25 28 00 	xor    rcx,QWORD PTR fs:0x28
    3601:	00 00 
    3603:	74 21                	je     3626 <__cxa_finalize@plt+0xa16>
    3605:	eb 1a                	jmp    3621 <__cxa_finalize@plt+0xa11>
    3607:	48 89 c3             	mov    rbx,rax
    360a:	48 8d 45 c0          	lea    rax,[rbp-0x40]
    360e:	48 89 c7             	mov    rdi,rax
    3611:	e8 2a f5 ff ff       	call   2b40 <_ZNSt7__cxx1112basic_stringIwSt11char_traitsIwESaIwEED1Ev@plt>
    3616:	48 89 d8             	mov    rax,rbx
    3619:	48 89 c7             	mov    rdi,rax
    361c:	e8 6f f5 ff ff       	call   2b90 <_Unwind_Resume@plt>
    3621:	e8 da f3 ff ff       	call   2a00 <__stack_chk_fail@plt>
    3626:	48 83 c4 60          	add    rsp,0x60
    362a:	5b                   	pop    rbx
    362b:	41 5c                	pop    r12
    362d:	5d                   	pop    rbp
    362e:	c3                   	ret    
    362f:	90                   	nop
    3630:	55                   	push   rbp
    3631:	48 89 e5             	mov    rbp,rsp
    3634:	48 83 ec 10          	sub    rsp,0x10
    3638:	48 89 7d f8          	mov    QWORD PTR [rbp-0x8],rdi
    363c:	48 89 75 f0          	mov    QWORD PTR [rbp-0x10],rsi
    3640:	48 8b 45 f8          	mov    rax,QWORD PTR [rbp-0x8]
    3644:	48 89 c7             	mov    rdi,rax
    3647:	e8 e8 00 00 00       	call   3734 <__cxa_finalize@plt+0xb24>
    364c:	48 8b 45 f8          	mov    rax,QWORD PTR [rbp-0x8]
    3650:	48 89 c7             	mov    rdi,rax
    3653:	e8 d0 fd ff ff       	call   3428 <__cxa_finalize@plt+0x818>
    3658:	48 89 c2             	mov    rdx,rax
    365b:	48 8b 45 f0          	mov    rax,QWORD PTR [rbp-0x10]
    365f:	48 89 02             	mov    QWORD PTR [rdx],rax
    3662:	90                   	nop
    3663:	c9                   	leave  
    3664:	c3                   	ret    
    3665:	90                   	nop
    3666:	55                   	push   rbp
    3667:	48 89 e5             	mov    rbp,rsp
    366a:	48 83 ec 10          	sub    rsp,0x10
    366e:	48 89 7d f8          	mov    QWORD PTR [rbp-0x8],rdi
    3672:	48 8b 45 f8          	mov    rax,QWORD PTR [rbp-0x8]
    3676:	48 89 c7             	mov    rdi,rax
    3679:	e8 d2 00 00 00       	call   3750 <__cxa_finalize@plt+0xb40>
    367e:	c9                   	leave  
    367f:	c3                   	ret    
    3680:	55                   	push   rbp
    3681:	48 89 e5             	mov    rbp,rsp
    3684:	48 83 ec 10          	sub    rsp,0x10
    3688:	48 89 7d f8          	mov    QWORD PTR [rbp-0x8],rdi
    368c:	48 8b 45 f8          	mov    rax,QWORD PTR [rbp-0x8]
    3690:	48 89 c7             	mov    rdi,rax
    3693:	e8 d5 00 00 00       	call   376d <__cxa_finalize@plt+0xb5d>
    3698:	c9                   	leave  
    3699:	c3                   	ret    
    369a:	55                   	push   rbp
    369b:	48 89 e5             	mov    rbp,rsp
    369e:	48 83 ec 10          	sub    rsp,0x10
    36a2:	48 89 7d f8          	mov    QWORD PTR [rbp-0x8],rdi
    36a6:	48 8b 45 f8          	mov    rax,QWORD PTR [rbp-0x8]
    36aa:	48 89 c7             	mov    rdi,rax
    36ad:	e8 d5 00 00 00       	call   3787 <__cxa_finalize@plt+0xb77>
    36b2:	c9                   	leave  
    36b3:	c3                   	ret    
    36b4:	55                   	push   rbp
    36b5:	48 89 e5             	mov    rbp,rsp
    36b8:	48 83 ec 10          	sub    rsp,0x10
    36bc:	48 89 7d f8          	mov    QWORD PTR [rbp-0x8],rdi
    36c0:	48 8b 45 f8          	mov    rax,QWORD PTR [rbp-0x8]
    36c4:	48 89 c7             	mov    rdi,rax
    36c7:	e8 9a ff ff ff       	call   3666 <__cxa_finalize@plt+0xa56>
    36cc:	c9                   	leave  
    36cd:	c3                   	ret    
    36ce:	55                   	push   rbp
    36cf:	48 89 e5             	mov    rbp,rsp
    36d2:	48 83 ec 40          	sub    rsp,0x40
    36d6:	48 89 7d e8          	mov    QWORD PTR [rbp-0x18],rdi
    36da:	48 89 75 e0          	mov    QWORD PTR [rbp-0x20],rsi
    36de:	48 89 55 d8          	mov    QWORD PTR [rbp-0x28],rdx
    36e2:	48 89 4d d0          	mov    QWORD PTR [rbp-0x30],rcx
    36e6:	4c 89 45 c8          	mov    QWORD PTR [rbp-0x38],r8
    36ea:	4c 89 4d c0          	mov    QWORD PTR [rbp-0x40],r9
    36ee:	48 8d 05 ad 00 00 00 	lea    rax,[rip+0xad]        # 37a2 <__cxa_finalize@plt+0xb92>
    36f5:	48 89 45 f0          	mov    QWORD PTR [rbp-0x10],rax
    36f9:	48 c7 45 f8 00 00 00 	mov    QWORD PTR [rbp-0x8],0x0
    3700:	00 
    3701:	4c 8b 45 c0          	mov    r8,QWORD PTR [rbp-0x40]
    3705:	48 8b 7d c8          	mov    rdi,QWORD PTR [rbp-0x38]
    3709:	48 8b 4d d0          	mov    rcx,QWORD PTR [rbp-0x30]
    370d:	48 8b 55 d8          	mov    rdx,QWORD PTR [rbp-0x28]
    3711:	48 8b 75 e0          	mov    rsi,QWORD PTR [rbp-0x20]
    3715:	48 8b 45 e8          	mov    rax,QWORD PTR [rbp-0x18]
    3719:	ff 75 f8             	push   QWORD PTR [rbp-0x8]
    371c:	ff 75 f0             	push   QWORD PTR [rbp-0x10]
    371f:	4d 89 c1             	mov    r9,r8
    3722:	49 89 f8             	mov    r8,rdi
    3725:	48 89 c7             	mov    rdi,rax
    3728:	e8 c9 00 00 00       	call   37f6 <__cxa_finalize@plt+0xbe6>
    372d:	48 83 c4 10          	add    rsp,0x10
    3731:	c9                   	leave  
    3732:	c3                   	ret    
    3733:	90                   	nop
    3734:	55                   	push   rbp
    3735:	48 89 e5             	mov    rbp,rsp
    3738:	48 83 ec 10          	sub    rsp,0x10
    373c:	48 89 7d f8          	mov    QWORD PTR [rbp-0x8],rdi
    3740:	48 8b 45 f8          	mov    rax,QWORD PTR [rbp-0x8]
    3744:	48 89 c7             	mov    rdi,rax
    3747:	e8 0a 03 00 00       	call   3a56 <__cxa_finalize@plt+0xe46>
    374c:	90                   	nop
    374d:	c9                   	leave  
    374e:	c3                   	ret    
    374f:	90                   	nop
    3750:	55                   	push   rbp
    3751:	48 89 e5             	mov    rbp,rsp
    3754:	48 83 ec 10          	sub    rsp,0x10
    3758:	48 89 7d f8          	mov    QWORD PTR [rbp-0x8],rdi
    375c:	48 8b 45 f8          	mov    rax,QWORD PTR [rbp-0x8]
    3760:	48 89 c7             	mov    rdi,rax
    3763:	e8 15 03 00 00       	call   3a7d <__cxa_finalize@plt+0xe6d>
    3768:	48 8b 00             	mov    rax,QWORD PTR [rax]
    376b:	c9                   	leave  
    376c:	c3                   	ret    
    376d:	55                   	push   rbp
    376e:	48 89 e5             	mov    rbp,rsp
    3771:	48 83 ec 10          	sub    rsp,0x10
    3775:	48 89 7d f8          	mov    QWORD PTR [rbp-0x8],rdi
    3779:	48 8b 45 f8          	mov    rax,QWORD PTR [rbp-0x8]
    377d:	48 89 c7             	mov    rdi,rax
    3780:	e8 12 03 00 00       	call   3a97 <__cxa_finalize@plt+0xe87>
    3785:	c9                   	leave  
    3786:	c3                   	ret    
    3787:	55                   	push   rbp
    3788:	48 89 e5             	mov    rbp,rsp
    378b:	48 83 ec 10          	sub    rsp,0x10
    378f:	48 89 7d f8          	mov    QWORD PTR [rbp-0x8],rdi
    3793:	48 8b 45 f8          	mov    rax,QWORD PTR [rbp-0x8]
    3797:	48 89 c7             	mov    rdi,rax
    379a:	e8 12 03 00 00       	call   3ab1 <__cxa_finalize@plt+0xea1>
    379f:	c9                   	leave  
    37a0:	c3                   	ret    
    37a1:	90                   	nop
    37a2:	55                   	push   rbp
    37a3:	48 89 e5             	mov    rbp,rsp
    37a6:	48 83 ec 30          	sub    rsp,0x30
    37aa:	48 89 7d f8          	mov    QWORD PTR [rbp-0x8],rdi
    37ae:	48 89 75 f0          	mov    QWORD PTR [rbp-0x10],rsi
    37b2:	48 89 55 e8          	mov    QWORD PTR [rbp-0x18],rdx
    37b6:	48 89 4d e0          	mov    QWORD PTR [rbp-0x20],rcx
    37ba:	4c 89 45 d8          	mov    QWORD PTR [rbp-0x28],r8
    37be:	4c 89 4d d0          	mov    QWORD PTR [rbp-0x30],r9
    37c2:	48 8b 45 f8          	mov    rax,QWORD PTR [rbp-0x8]
    37c6:	48 8b 00             	mov    rax,QWORD PTR [rax]
    37c9:	48 83 c0 20          	add    rax,0x20
    37cd:	48 8b 00             	mov    rax,QWORD PTR [rax]
    37d0:	4c 8b 4d d0          	mov    r9,QWORD PTR [rbp-0x30]
    37d4:	4c 8b 45 d8          	mov    r8,QWORD PTR [rbp-0x28]
    37d8:	48 8b 4d e0          	mov    rcx,QWORD PTR [rbp-0x20]
    37dc:	48 8b 55 e8          	mov    rdx,QWORD PTR [rbp-0x18]
    37e0:	48 8b 75 f0          	mov    rsi,QWORD PTR [rbp-0x10]
    37e4:	48 8b 7d f8          	mov    rdi,QWORD PTR [rbp-0x8]
    37e8:	ff 75 18             	push   QWORD PTR [rbp+0x18]
    37eb:	ff 75 10             	push   QWORD PTR [rbp+0x10]
    37ee:	ff d0                	call   rax
    37f0:	48 83 c4 10          	add    rsp,0x10
    37f4:	c9                   	leave  
    37f5:	c3                   	ret    
    37f6:	55                   	push   rbp
    37f7:	48 89 e5             	mov    rbp,rsp
    37fa:	53                   	push   rbx
    37fb:	48 83 ec 68          	sub    rsp,0x68
    37ff:	48 89 7d b8          	mov    QWORD PTR [rbp-0x48],rdi
    3803:	48 89 75 b0          	mov    QWORD PTR [rbp-0x50],rsi
    3807:	48 89 55 a8          	mov    QWORD PTR [rbp-0x58],rdx
    380b:	48 89 4d a0          	mov    QWORD PTR [rbp-0x60],rcx
    380f:	4c 89 45 98          	mov    QWORD PTR [rbp-0x68],r8
    3813:	4c 89 4d 90          	mov    QWORD PTR [rbp-0x70],r9
    3817:	64 48 8b 04 25 28 00 	mov    rax,QWORD PTR fs:0x28
    381e:	00 00 
    3820:	48 89 45 e8          	mov    QWORD PTR [rbp-0x18],rax
    3824:	31 c0                	xor    eax,eax
    3826:	48 8b 45 b8          	mov    rax,QWORD PTR [rbp-0x48]
    382a:	48 3b 45 b0          	cmp    rax,QWORD PTR [rbp-0x50]
    382e:	75 21                	jne    3851 <__cxa_finalize@plt+0xc41>
    3830:	48 8b 45 a8          	mov    rax,QWORD PTR [rbp-0x58]
    3834:	48 89 c7             	mov    rdi,rax
    3837:	e8 e4 f1 ff ff       	call   2a20 <_ZNSt7__cxx1112basic_stringIwSt11char_traitsIwESaIwEE5clearEv@plt>
    383c:	48 8b 45 90          	mov    rax,QWORD PTR [rbp-0x70]
    3840:	48 c7 00 00 00 00 00 	mov    QWORD PTR [rax],0x0
    3847:	b8 01 00 00 00       	mov    eax,0x1
    384c:	e9 ea 01 00 00       	jmp    3a3b <__cxa_finalize@plt+0xe2b>
    3851:	48 c7 45 d8 00 00 00 	mov    QWORD PTR [rbp-0x28],0x0
    3858:	00 
    3859:	48 8b 45 b8          	mov    rax,QWORD PTR [rbp-0x48]
    385d:	48 89 45 c8          	mov    QWORD PTR [rbp-0x38],rax
    3861:	48 8b 45 a0          	mov    rax,QWORD PTR [rbp-0x60]
    3865:	48 89 c7             	mov    rdi,rax
    3868:	e8 5f 02 00 00       	call   3acc <__cxa_finalize@plt+0xebc>
    386d:	83 c0 01             	add    eax,0x1
    3870:	89 45 c0             	mov    DWORD PTR [rbp-0x40],eax
    3873:	48 8b 45 a8          	mov    rax,QWORD PTR [rbp-0x58]
    3877:	48 89 c7             	mov    rdi,rax
    387a:	e8 91 f0 ff ff       	call   2910 <_ZNKSt7__cxx1112basic_stringIwSt11char_traitsIwESaIwEE4sizeEv@plt>
    387f:	48 89 c1             	mov    rcx,rax
    3882:	48 8b 45 b0          	mov    rax,QWORD PTR [rbp-0x50]
    3886:	48 8b 55 c8          	mov    rdx,QWORD PTR [rbp-0x38]
    388a:	48 29 d0             	sub    rax,rdx
    388d:	48 89 c2             	mov    rdx,rax
    3890:	8b 45 c0             	mov    eax,DWORD PTR [rbp-0x40]
    3893:	48 98                	cdqe   
    3895:	48 0f af c2          	imul   rax,rdx
    3899:	48 8d 14 01          	lea    rdx,[rcx+rax*1]
    389d:	48 8b 45 a8          	mov    rax,QWORD PTR [rbp-0x58]
    38a1:	48 89 d6             	mov    rsi,rdx
    38a4:	48 89 c7             	mov    rdi,rax
    38a7:	e8 34 f3 ff ff       	call   2be0 <_ZNSt7__cxx1112basic_stringIwSt11char_traitsIwESaIwEE6resizeEm@plt>
    38ac:	48 8b 45 a8          	mov    rax,QWORD PTR [rbp-0x58]
    38b0:	48 89 c7             	mov    rdi,rax
    38b3:	e8 28 f2 ff ff       	call   2ae0 <_ZNSt7__cxx1112basic_stringIwSt11char_traitsIwESaIwEE5frontEv@plt>
    38b8:	48 89 c2             	mov    rdx,rax
    38bb:	48 8b 45 d8          	mov    rax,QWORD PTR [rbp-0x28]
    38bf:	48 c1 e0 02          	shl    rax,0x2
    38c3:	48 01 d0             	add    rax,rdx
    38c6:	48 89 45 d0          	mov    QWORD PTR [rbp-0x30],rax
    38ca:	48 8b 45 a8          	mov    rax,QWORD PTR [rbp-0x58]
    38ce:	48 89 c7             	mov    rdi,rax
    38d1:	e8 3a ef ff ff       	call   2810 <_ZNSt7__cxx1112basic_stringIwSt11char_traitsIwESaIwEE4backEv@plt>
    38d6:	48 83 c0 04          	add    rax,0x4
    38da:	48 89 45 e0          	mov    QWORD PTR [rbp-0x20],rax
    38de:	48 8b 45 18          	mov    rax,QWORD PTR [rbp+0x18]
    38e2:	48 89 c2             	mov    rdx,rax
    38e5:	48 8b 45 a0          	mov    rax,QWORD PTR [rbp-0x60]
    38e9:	4c 8d 14 02          	lea    r10,[rdx+rax*1]
    38ed:	48 8b 45 10          	mov    rax,QWORD PTR [rbp+0x10]
    38f1:	83 e0 01             	and    eax,0x1
    38f4:	48 85 c0             	test   rax,rax
    38f7:	74 21                	je     391a <__cxa_finalize@plt+0xd0a>
    38f9:	48 8b 45 18          	mov    rax,QWORD PTR [rbp+0x18]
    38fd:	48 89 c2             	mov    rdx,rax
    3900:	48 8b 45 a0          	mov    rax,QWORD PTR [rbp-0x60]
    3904:	48 01 d0             	add    rax,rdx
    3907:	48 8b 00             	mov    rax,QWORD PTR [rax]
    390a:	48 8b 55 10          	mov    rdx,QWORD PTR [rbp+0x10]
    390e:	48 83 ea 01          	sub    rdx,0x1
    3912:	48 01 d0             	add    rax,rdx
    3915:	48 8b 00             	mov    rax,QWORD PTR [rax]
    3918:	eb 04                	jmp    391e <__cxa_finalize@plt+0xd0e>
    391a:	48 8b 45 10          	mov    rax,QWORD PTR [rbp+0x10]
    391e:	4c 8b 4d d0          	mov    r9,QWORD PTR [rbp-0x30]
    3922:	48 8b 55 c8          	mov    rdx,QWORD PTR [rbp-0x38]
    3926:	4c 8d 45 c8          	lea    r8,[rbp-0x38]
    392a:	48 8b 4d b0          	mov    rcx,QWORD PTR [rbp-0x50]
    392e:	48 8b 75 98          	mov    rsi,QWORD PTR [rbp-0x68]
    3932:	48 8d 7d d0          	lea    rdi,[rbp-0x30]
    3936:	57                   	push   rdi
    3937:	ff 75 e0             	push   QWORD PTR [rbp-0x20]
    393a:	4c 89 d7             	mov    rdi,r10
    393d:	ff d0                	call   rax
    393f:	48 83 c4 10          	add    rsp,0x10
    3943:	89 45 c4             	mov    DWORD PTR [rbp-0x3c],eax
    3946:	48 8b 45 d0          	mov    rax,QWORD PTR [rbp-0x30]
    394a:	48 89 c3             	mov    rbx,rax
    394d:	48 8b 45 a8          	mov    rax,QWORD PTR [rbp-0x58]
    3951:	48 89 c7             	mov    rdi,rax
    3954:	e8 87 f1 ff ff       	call   2ae0 <_ZNSt7__cxx1112basic_stringIwSt11char_traitsIwESaIwEE5frontEv@plt>
    3959:	48 29 c3             	sub    rbx,rax
    395c:	48 89 d8             	mov    rax,rbx
    395f:	48 c1 f8 02          	sar    rax,0x2
    3963:	48 89 45 d8          	mov    QWORD PTR [rbp-0x28],rax
    3967:	83 7d c4 01          	cmp    DWORD PTR [rbp-0x3c],0x1
    396b:	75 2e                	jne    399b <__cxa_finalize@plt+0xd8b>
    396d:	48 8b 45 c8          	mov    rax,QWORD PTR [rbp-0x38]
    3971:	48 39 45 b0          	cmp    QWORD PTR [rbp-0x50],rax
    3975:	74 24                	je     399b <__cxa_finalize@plt+0xd8b>
    3977:	48 8b 45 a8          	mov    rax,QWORD PTR [rbp-0x58]
    397b:	48 89 c7             	mov    rdi,rax
    397e:	e8 8d ef ff ff       	call   2910 <_ZNKSt7__cxx1112basic_stringIwSt11char_traitsIwESaIwEE4sizeEv@plt>
    3983:	48 2b 45 d8          	sub    rax,QWORD PTR [rbp-0x28]
    3987:	48 89 c2             	mov    rdx,rax
    398a:	8b 45 c0             	mov    eax,DWORD PTR [rbp-0x40]
    398d:	48 98                	cdqe   
    398f:	48 39 c2             	cmp    rdx,rax
    3992:	73 07                	jae    399b <__cxa_finalize@plt+0xd8b>
    3994:	b8 01 00 00 00       	mov    eax,0x1
    3999:	eb 05                	jmp    39a0 <__cxa_finalize@plt+0xd90>
    399b:	b8 00 00 00 00       	mov    eax,0x0
    39a0:	84 c0                	test   al,al
    39a2:	74 05                	je     39a9 <__cxa_finalize@plt+0xd99>
    39a4:	e9 ca fe ff ff       	jmp    3873 <__cxa_finalize@plt+0xc63>
    39a9:	83 7d c4 02          	cmp    DWORD PTR [rbp-0x3c],0x2
    39ad:	75 22                	jne    39d1 <__cxa_finalize@plt+0xdc1>
    39af:	48 8b 45 c8          	mov    rax,QWORD PTR [rbp-0x38]
    39b3:	48 89 c2             	mov    rdx,rax
    39b6:	48 8b 45 b8          	mov    rax,QWORD PTR [rbp-0x48]
    39ba:	48 29 c2             	sub    rdx,rax
    39bd:	48 89 d0             	mov    rax,rdx
    39c0:	48 89 c2             	mov    rdx,rax
    39c3:	48 8b 45 90          	mov    rax,QWORD PTR [rbp-0x70]
    39c7:	48 89 10             	mov    QWORD PTR [rax],rdx
    39ca:	b8 00 00 00 00       	mov    eax,0x0
    39cf:	eb 6a                	jmp    3a3b <__cxa_finalize@plt+0xe2b>
    39d1:	83 7d c4 03          	cmp    DWORD PTR [rbp-0x3c],0x3
    39d5:	75 31                	jne    3a08 <__cxa_finalize@plt+0xdf8>
    39d7:	48 8b 55 b0          	mov    rdx,QWORD PTR [rbp-0x50]
    39db:	48 8b 4d b8          	mov    rcx,QWORD PTR [rbp-0x48]
    39df:	48 8b 45 a8          	mov    rax,QWORD PTR [rbp-0x58]
    39e3:	48 89 ce             	mov    rsi,rcx
    39e6:	48 89 c7             	mov    rdi,rax
    39e9:	e8 04 01 00 00       	call   3af2 <__cxa_finalize@plt+0xee2>
    39ee:	48 8b 55 b0          	mov    rdx,QWORD PTR [rbp-0x50]
    39f2:	48 8b 45 b8          	mov    rax,QWORD PTR [rbp-0x48]
    39f6:	48 29 c2             	sub    rdx,rax
    39f9:	48 89 d0             	mov    rax,rdx
    39fc:	48 89 c2             	mov    rdx,rax
    39ff:	48 8b 45 90          	mov    rax,QWORD PTR [rbp-0x70]
    3a03:	48 89 10             	mov    QWORD PTR [rax],rdx
    3a06:	eb 2e                	jmp    3a36 <__cxa_finalize@plt+0xe26>
    3a08:	48 8b 55 d8          	mov    rdx,QWORD PTR [rbp-0x28]
    3a0c:	48 8b 45 a8          	mov    rax,QWORD PTR [rbp-0x58]
    3a10:	48 89 d6             	mov    rsi,rdx
    3a13:	48 89 c7             	mov    rdi,rax
    3a16:	e8 c5 f1 ff ff       	call   2be0 <_ZNSt7__cxx1112basic_stringIwSt11char_traitsIwESaIwEE6resizeEm@plt>
    3a1b:	48 8b 45 c8          	mov    rax,QWORD PTR [rbp-0x38]
    3a1f:	48 89 c2             	mov    rdx,rax
    3a22:	48 8b 45 b8          	mov    rax,QWORD PTR [rbp-0x48]
    3a26:	48 29 c2             	sub    rdx,rax
    3a29:	48 89 d0             	mov    rax,rdx
    3a2c:	48 89 c2             	mov    rdx,rax
    3a2f:	48 8b 45 90          	mov    rax,QWORD PTR [rbp-0x70]
    3a33:	48 89 10             	mov    QWORD PTR [rax],rdx
    3a36:	b8 01 00 00 00       	mov    eax,0x1
    3a3b:	48 8b 5d e8          	mov    rbx,QWORD PTR [rbp-0x18]
    3a3f:	64 48 33 1c 25 28 00 	xor    rbx,QWORD PTR fs:0x28
    3a46:	00 00 
    3a48:	74 05                	je     3a4f <__cxa_finalize@plt+0xe3f>
    3a4a:	e8 b1 ef ff ff       	call   2a00 <__stack_chk_fail@plt>
    3a4f:	48 8b 5d f8          	mov    rbx,QWORD PTR [rbp-0x8]
    3a53:	c9                   	leave  
    3a54:	c3                   	ret    
    3a55:	90                   	nop
    3a56:	55                   	push   rbp
    3a57:	48 89 e5             	mov    rbp,rsp
    3a5a:	48 83 ec 10          	sub    rsp,0x10
    3a5e:	48 89 7d f8          	mov    QWORD PTR [rbp-0x8],rdi
    3a62:	48 8b 45 f8          	mov    rax,QWORD PTR [rbp-0x8]
    3a66:	48 89 c7             	mov    rdi,rax
    3a69:	e8 22 01 00 00       	call   3b90 <__cxa_finalize@plt+0xf80>
    3a6e:	48 8b 45 f8          	mov    rax,QWORD PTR [rbp-0x8]
    3a72:	48 89 c7             	mov    rdi,rax
    3a75:	e8 32 01 00 00       	call   3bac <__cxa_finalize@plt+0xf9c>
    3a7a:	90                   	nop
    3a7b:	c9                   	leave  
    3a7c:	c3                   	ret    
    3a7d:	55                   	push   rbp
    3a7e:	48 89 e5             	mov    rbp,rsp
    3a81:	48 83 ec 10          	sub    rsp,0x10
    3a85:	48 89 7d f8          	mov    QWORD PTR [rbp-0x8],rdi
    3a89:	48 8b 45 f8          	mov    rax,QWORD PTR [rbp-0x8]
    3a8d:	48 89 c7             	mov    rdi,rax
    3a90:	e8 2d 01 00 00       	call   3bc2 <__cxa_finalize@plt+0xfb2>
    3a95:	c9                   	leave  
    3a96:	c3                   	ret    
    3a97:	55                   	push   rbp
    3a98:	48 89 e5             	mov    rbp,rsp
    3a9b:	48 83 ec 10          	sub    rsp,0x10
    3a9f:	48 89 7d f8          	mov    QWORD PTR [rbp-0x8],rdi
    3aa3:	48 8b 45 f8          	mov    rax,QWORD PTR [rbp-0x8]
    3aa7:	48 89 c7             	mov    rdi,rax
    3aaa:	e8 2d 01 00 00       	call   3bdc <__cxa_finalize@plt+0xfcc>
    3aaf:	c9                   	leave  
    3ab0:	c3                   	ret    
    3ab1:	55                   	push   rbp
    3ab2:	48 89 e5             	mov    rbp,rsp
    3ab5:	48 83 ec 10          	sub    rsp,0x10
    3ab9:	48 89 7d f8          	mov    QWORD PTR [rbp-0x8],rdi
    3abd:	48 8b 45 f8          	mov    rax,QWORD PTR [rbp-0x8]
    3ac1:	48 89 c7             	mov    rdi,rax
    3ac4:	e8 21 01 00 00       	call   3bea <__cxa_finalize@plt+0xfda>
    3ac9:	c9                   	leave  
    3aca:	c3                   	ret    
    3acb:	90                   	nop
    3acc:	55                   	push   rbp
    3acd:	48 89 e5             	mov    rbp,rsp
    3ad0:	48 83 ec 10          	sub    rsp,0x10
    3ad4:	48 89 7d f8          	mov    QWORD PTR [rbp-0x8],rdi
    3ad8:	48 8b 45 f8          	mov    rax,QWORD PTR [rbp-0x8]
    3adc:	48 8b 00             	mov    rax,QWORD PTR [rax]
    3adf:	48 83 c0 40          	add    rax,0x40
    3ae3:	48 8b 00             	mov    rax,QWORD PTR [rax]
    3ae6:	48 8b 55 f8          	mov    rdx,QWORD PTR [rbp-0x8]
    3aea:	48 89 d7             	mov    rdi,rdx
    3aed:	ff d0                	call   rax
    3aef:	c9                   	leave  
    3af0:	c3                   	ret    
    3af1:	90                   	nop
    3af2:	55                   	push   rbp
    3af3:	48 89 e5             	mov    rbp,rsp
    3af6:	48 83 ec 50          	sub    rsp,0x50
    3afa:	48 89 7d c8          	mov    QWORD PTR [rbp-0x38],rdi
    3afe:	48 89 75 c0          	mov    QWORD PTR [rbp-0x40],rsi
    3b02:	48 89 55 b8          	mov    QWORD PTR [rbp-0x48],rdx
    3b06:	64 48 8b 04 25 28 00 	mov    rax,QWORD PTR fs:0x28
    3b0d:	00 00 
    3b0f:	48 89 45 f8          	mov    QWORD PTR [rbp-0x8],rax
    3b13:	31 c0                	xor    eax,eax
    3b15:	48 8b 45 c8          	mov    rax,QWORD PTR [rbp-0x38]
    3b19:	48 89 c7             	mov    rdi,rax
    3b1c:	e8 af ef ff ff       	call   2ad0 <_ZNSt7__cxx1112basic_stringIwSt11char_traitsIwESaIwEE3endEv@plt>
    3b21:	48 89 45 e0          	mov    QWORD PTR [rbp-0x20],rax
    3b25:	48 8d 55 e0          	lea    rdx,[rbp-0x20]
    3b29:	48 8d 45 f0          	lea    rax,[rbp-0x10]
    3b2d:	48 89 d6             	mov    rsi,rdx
    3b30:	48 89 c7             	mov    rdi,rax
    3b33:	e8 cc 00 00 00       	call   3c04 <__cxa_finalize@plt+0xff4>
    3b38:	48 8b 45 c8          	mov    rax,QWORD PTR [rbp-0x38]
    3b3c:	48 89 c7             	mov    rdi,rax
    3b3f:	e8 6c ef ff ff       	call   2ab0 <_ZNSt7__cxx1112basic_stringIwSt11char_traitsIwESaIwEE5beginEv@plt>
    3b44:	48 89 45 d8          	mov    QWORD PTR [rbp-0x28],rax
    3b48:	48 8d 55 d8          	lea    rdx,[rbp-0x28]
    3b4c:	48 8d 45 e8          	lea    rax,[rbp-0x18]
    3b50:	48 89 d6             	mov    rsi,rdx
    3b53:	48 89 c7             	mov    rdi,rax
    3b56:	e8 a9 00 00 00       	call   3c04 <__cxa_finalize@plt+0xff4>
    3b5b:	48 8b 7d b8          	mov    rdi,QWORD PTR [rbp-0x48]
    3b5f:	48 8b 4d c0          	mov    rcx,QWORD PTR [rbp-0x40]
    3b63:	48 8b 55 f0          	mov    rdx,QWORD PTR [rbp-0x10]
    3b67:	48 8b 75 e8          	mov    rsi,QWORD PTR [rbp-0x18]
    3b6b:	48 8b 45 c8          	mov    rax,QWORD PTR [rbp-0x38]
    3b6f:	49 89 f8             	mov    r8,rdi
    3b72:	48 89 c7             	mov    rdi,rax
    3b75:	e8 b4 00 00 00       	call   3c2e <__cxa_finalize@plt+0x101e>
    3b7a:	48 8b 4d f8          	mov    rcx,QWORD PTR [rbp-0x8]
    3b7e:	64 48 33 0c 25 28 00 	xor    rcx,QWORD PTR fs:0x28
    3b85:	00 00 
    3b87:	74 05                	je     3b8e <__cxa_finalize@plt+0xf7e>
    3b89:	e8 72 ee ff ff       	call   2a00 <__stack_chk_fail@plt>
    3b8e:	c9                   	leave  
    3b8f:	c3                   	ret    
    3b90:	55                   	push   rbp
    3b91:	48 89 e5             	mov    rbp,rsp
    3b94:	48 83 ec 10          	sub    rsp,0x10
    3b98:	48 89 7d f8          	mov    QWORD PTR [rbp-0x8],rdi
    3b9c:	48 8b 45 f8          	mov    rax,QWORD PTR [rbp-0x8]
    3ba0:	48 89 c7             	mov    rdi,rax
    3ba3:	e8 f0 00 00 00       	call   3c98 <__cxa_finalize@plt+0x1088>
    3ba8:	90                   	nop
    3ba9:	c9                   	leave  
    3baa:	c3                   	ret    
    3bab:	90                   	nop
    3bac:	55                   	push   rbp
    3bad:	48 89 e5             	mov    rbp,rsp
    3bb0:	48 89 7d f8          	mov    QWORD PTR [rbp-0x8],rdi
    3bb4:	48 8b 45 f8          	mov    rax,QWORD PTR [rbp-0x8]
    3bb8:	48 c7 00 00 00 00 00 	mov    QWORD PTR [rax],0x0
    3bbf:	90                   	nop
    3bc0:	5d                   	pop    rbp
    3bc1:	c3                   	ret    
    3bc2:	55                   	push   rbp
    3bc3:	48 89 e5             	mov    rbp,rsp
    3bc6:	48 83 ec 10          	sub    rsp,0x10
    3bca:	48 89 7d f8          	mov    QWORD PTR [rbp-0x8],rdi
    3bce:	48 8b 45 f8          	mov    rax,QWORD PTR [rbp-0x8]
    3bd2:	48 89 c7             	mov    rdi,rax
    3bd5:	e8 c9 00 00 00       	call   3ca3 <__cxa_finalize@plt+0x1093>
    3bda:	c9                   	leave  
    3bdb:	c3                   	ret    
    3bdc:	55                   	push   rbp
    3bdd:	48 89 e5             	mov    rbp,rsp
    3be0:	48 89 7d f8          	mov    QWORD PTR [rbp-0x8],rdi
    3be4:	48 8b 45 f8          	mov    rax,QWORD PTR [rbp-0x8]
    3be8:	5d                   	pop    rbp
    3be9:	c3                   	ret    
    3bea:	55                   	push   rbp
    3beb:	48 89 e5             	mov    rbp,rsp
    3bee:	48 83 ec 10          	sub    rsp,0x10
    3bf2:	48 89 7d f8          	mov    QWORD PTR [rbp-0x8],rdi
    3bf6:	48 8b 45 f8          	mov    rax,QWORD PTR [rbp-0x8]
    3bfa:	48 89 c7             	mov    rdi,rax
    3bfd:	e8 bb 00 00 00       	call   3cbd <__cxa_finalize@plt+0x10ad>
    3c02:	c9                   	leave  
    3c03:	c3                   	ret    
    3c04:	55                   	push   rbp
    3c05:	48 89 e5             	mov    rbp,rsp
    3c08:	48 83 ec 10          	sub    rsp,0x10
    3c0c:	48 89 7d f8          	mov    QWORD PTR [rbp-0x8],rdi
    3c10:	48 89 75 f0          	mov    QWORD PTR [rbp-0x10],rsi
    3c14:	48 8b 45 f0          	mov    rax,QWORD PTR [rbp-0x10]
    3c18:	48 89 c7             	mov    rdi,rax
    3c1b:	e8 ac 00 00 00       	call   3ccc <__cxa_finalize@plt+0x10bc>
    3c20:	48 8b 10             	mov    rdx,QWORD PTR [rax]
    3c23:	48 8b 45 f8          	mov    rax,QWORD PTR [rbp-0x8]
    3c27:	48 89 10             	mov    QWORD PTR [rax],rdx
    3c2a:	90                   	nop
    3c2b:	c9                   	leave  
    3c2c:	c3                   	ret    
    3c2d:	90                   	nop
    3c2e:	55                   	push   rbp
    3c2f:	48 89 e5             	mov    rbp,rsp
    3c32:	48 83 ec 40          	sub    rsp,0x40
    3c36:	48 89 7d e8          	mov    QWORD PTR [rbp-0x18],rdi
    3c3a:	48 89 75 e0          	mov    QWORD PTR [rbp-0x20],rsi
    3c3e:	48 89 55 d8          	mov    QWORD PTR [rbp-0x28],rdx
    3c42:	48 89 4d d0          	mov    QWORD PTR [rbp-0x30],rcx
    3c46:	4c 89 45 c8          	mov    QWORD PTR [rbp-0x38],r8
    3c4a:	64 48 8b 04 25 28 00 	mov    rax,QWORD PTR fs:0x28
    3c51:	00 00 
    3c53:	48 89 45 f8          	mov    QWORD PTR [rbp-0x8],rax
    3c57:	31 c0                	xor    eax,eax
    3c59:	48 8b 7d c8          	mov    rdi,QWORD PTR [rbp-0x38]
    3c5d:	48 8b 4d d0          	mov    rcx,QWORD PTR [rbp-0x30]
    3c61:	48 8b 55 d8          	mov    rdx,QWORD PTR [rbp-0x28]
    3c65:	48 8b 75 e0          	mov    rsi,QWORD PTR [rbp-0x20]
    3c69:	48 8b 45 e8          	mov    rax,QWORD PTR [rbp-0x18]
    3c6d:	48 83 ec 08          	sub    rsp,0x8
    3c71:	41 51                	push   r9
    3c73:	49 89 f8             	mov    r8,rdi
    3c76:	48 89 c7             	mov    rdi,rax
    3c79:	e8 5c 00 00 00       	call   3cda <__cxa_finalize@plt+0x10ca>
    3c7e:	48 83 c4 10          	add    rsp,0x10
    3c82:	48 8b 55 f8          	mov    rdx,QWORD PTR [rbp-0x8]
    3c86:	64 48 33 14 25 28 00 	xor    rdx,QWORD PTR fs:0x28
    3c8d:	00 00 
    3c8f:	74 05                	je     3c96 <__cxa_finalize@plt+0x1086>
    3c91:	e8 6a ed ff ff       	call   2a00 <__stack_chk_fail@plt>
    3c96:	c9                   	leave  
    3c97:	c3                   	ret    
    3c98:	55                   	push   rbp
    3c99:	48 89 e5             	mov    rbp,rsp
    3c9c:	48 89 7d f8          	mov    QWORD PTR [rbp-0x8],rdi
    3ca0:	90                   	nop
    3ca1:	5d                   	pop    rbp
    3ca2:	c3                   	ret    
    3ca3:	55                   	push   rbp
    3ca4:	48 89 e5             	mov    rbp,rsp
    3ca7:	48 83 ec 10          	sub    rsp,0x10
    3cab:	48 89 7d f8          	mov    QWORD PTR [rbp-0x8],rdi
    3caf:	48 8b 45 f8          	mov    rax,QWORD PTR [rbp-0x8]
    3cb3:	48 89 c7             	mov    rdi,rax
    3cb6:	e8 53 01 00 00       	call   3e0e <__cxa_finalize@plt+0x11fe>
    3cbb:	c9                   	leave  
    3cbc:	c3                   	ret    
    3cbd:	55                   	push   rbp
    3cbe:	48 89 e5             	mov    rbp,rsp
    3cc1:	48 89 7d f8          	mov    QWORD PTR [rbp-0x8],rdi
    3cc5:	48 8b 45 f8          	mov    rax,QWORD PTR [rbp-0x8]
    3cc9:	5d                   	pop    rbp
    3cca:	c3                   	ret    
    3ccb:	90                   	nop
    3ccc:	55                   	push   rbp
    3ccd:	48 89 e5             	mov    rbp,rsp
    3cd0:	48 89 7d f8          	mov    QWORD PTR [rbp-0x8],rdi
    3cd4:	48 8b 45 f8          	mov    rax,QWORD PTR [rbp-0x8]
    3cd8:	5d                   	pop    rbp
    3cd9:	c3                   	ret    
    3cda:	55                   	push   rbp
    3cdb:	48 89 e5             	mov    rbp,rsp
    3cde:	41 54                	push   r12
    3ce0:	53                   	push   rbx
    3ce1:	48 83 ec 70          	sub    rsp,0x70
    3ce5:	48 89 7d a8          	mov    QWORD PTR [rbp-0x58],rdi
    3ce9:	48 89 75 a0          	mov    QWORD PTR [rbp-0x60],rsi
    3ced:	48 89 55 98          	mov    QWORD PTR [rbp-0x68],rdx
    3cf1:	48 89 4d 90          	mov    QWORD PTR [rbp-0x70],rcx
    3cf5:	4c 89 45 88          	mov    QWORD PTR [rbp-0x78],r8
    3cf9:	64 48 8b 04 25 28 00 	mov    rax,QWORD PTR fs:0x28
    3d00:	00 00 
    3d02:	48 89 45 e8          	mov    QWORD PTR [rbp-0x18],rax
    3d06:	31 c0                	xor    eax,eax
    3d08:	48 8d 45 b0          	lea    rax,[rbp-0x50]
    3d0c:	48 89 c7             	mov    rdi,rax
    3d0f:	e8 6c eb ff ff       	call   2880 <_ZNSaIwEC1Ev@plt>
    3d14:	48 8d 4d b0          	lea    rcx,[rbp-0x50]
    3d18:	48 8b 55 88          	mov    rdx,QWORD PTR [rbp-0x78]
    3d1c:	48 8b 75 90          	mov    rsi,QWORD PTR [rbp-0x70]
    3d20:	48 8d 45 c0          	lea    rax,[rbp-0x40]
    3d24:	48 89 c7             	mov    rdi,rax
    3d27:	e8 f0 00 00 00       	call   3e1c <__cxa_finalize@plt+0x120c>
    3d2c:	48 8d 45 b0          	lea    rax,[rbp-0x50]
    3d30:	48 89 c7             	mov    rdi,rax
    3d33:	e8 68 ee ff ff       	call   2ba0 <_ZNSaIwED1Ev@plt>
    3d38:	48 8d 55 a0          	lea    rdx,[rbp-0x60]
    3d3c:	48 8d 45 98          	lea    rax,[rbp-0x68]
    3d40:	48 89 d6             	mov    rsi,rdx
    3d43:	48 89 c7             	mov    rdi,rax
    3d46:	e8 49 01 00 00       	call   3e94 <__cxa_finalize@plt+0x1284>
    3d4b:	48 89 45 b8          	mov    QWORD PTR [rbp-0x48],rax
    3d4f:	48 8d 45 c0          	lea    rax,[rbp-0x40]
    3d53:	48 89 c7             	mov    rdi,rax
    3d56:	e8 b5 eb ff ff       	call   2910 <_ZNKSt7__cxx1112basic_stringIwSt11char_traitsIwESaIwEE4sizeEv@plt>
    3d5b:	49 89 c4             	mov    r12,rax
    3d5e:	48 8d 45 c0          	lea    rax,[rbp-0x40]
    3d62:	48 89 c7             	mov    rdi,rax
    3d65:	e8 26 eb ff ff       	call   2890 <_ZNKSt7__cxx1112basic_stringIwSt11char_traitsIwESaIwEE7_M_dataEv@plt>
    3d6a:	48 89 c3             	mov    rbx,rax
    3d6d:	48 8b 45 a8          	mov    rax,QWORD PTR [rbp-0x58]
    3d71:	48 89 c7             	mov    rdi,rax
    3d74:	e8 37 ed ff ff       	call   2ab0 <_ZNSt7__cxx1112basic_stringIwSt11char_traitsIwESaIwEE5beginEv@plt>
    3d79:	48 89 45 b0          	mov    QWORD PTR [rbp-0x50],rax
    3d7d:	48 8d 55 b0          	lea    rdx,[rbp-0x50]
    3d81:	48 8d 45 a0          	lea    rax,[rbp-0x60]
    3d85:	48 89 d6             	mov    rsi,rdx
    3d88:	48 89 c7             	mov    rdi,rax
    3d8b:	e8 47 01 00 00       	call   3ed7 <__cxa_finalize@plt+0x12c7>
    3d90:	48 89 c6             	mov    rsi,rax
    3d93:	48 8b 55 b8          	mov    rdx,QWORD PTR [rbp-0x48]
    3d97:	48 8b 45 a8          	mov    rax,QWORD PTR [rbp-0x58]
    3d9b:	4d 89 e0             	mov    r8,r12
    3d9e:	48 89 d9             	mov    rcx,rbx
    3da1:	48 89 c7             	mov    rdi,rax
    3da4:	e8 07 ee ff ff       	call   2bb0 <_ZNSt7__cxx1112basic_stringIwSt11char_traitsIwESaIwEE10_M_replaceEmmPKwm@plt>
    3da9:	48 89 c3             	mov    rbx,rax
    3dac:	48 8d 45 c0          	lea    rax,[rbp-0x40]
    3db0:	48 89 c7             	mov    rdi,rax
    3db3:	e8 88 ed ff ff       	call   2b40 <_ZNSt7__cxx1112basic_stringIwSt11char_traitsIwESaIwEED1Ev@plt>
    3db8:	48 89 d8             	mov    rax,rbx
    3dbb:	48 8b 4d e8          	mov    rcx,QWORD PTR [rbp-0x18]
    3dbf:	64 48 33 0c 25 28 00 	xor    rcx,QWORD PTR fs:0x28
    3dc6:	00 00 
    3dc8:	74 3b                	je     3e05 <__cxa_finalize@plt+0x11f5>
    3dca:	eb 34                	jmp    3e00 <__cxa_finalize@plt+0x11f0>
    3dcc:	48 89 c3             	mov    rbx,rax
    3dcf:	48 8d 45 b0          	lea    rax,[rbp-0x50]
    3dd3:	48 89 c7             	mov    rdi,rax
    3dd6:	e8 c5 ed ff ff       	call   2ba0 <_ZNSaIwED1Ev@plt>
    3ddb:	48 89 d8             	mov    rax,rbx
    3dde:	48 89 c7             	mov    rdi,rax
    3de1:	e8 aa ed ff ff       	call   2b90 <_Unwind_Resume@plt>
    3de6:	48 89 c3             	mov    rbx,rax
    3de9:	48 8d 45 c0          	lea    rax,[rbp-0x40]
    3ded:	48 89 c7             	mov    rdi,rax
    3df0:	e8 4b ed ff ff       	call   2b40 <_ZNSt7__cxx1112basic_stringIwSt11char_traitsIwESaIwEED1Ev@plt>
    3df5:	48 89 d8             	mov    rax,rbx
    3df8:	48 89 c7             	mov    rdi,rax
    3dfb:	e8 90 ed ff ff       	call   2b90 <_Unwind_Resume@plt>
    3e00:	e8 fb eb ff ff       	call   2a00 <__stack_chk_fail@plt>
    3e05:	48 83 c4 70          	add    rsp,0x70
    3e09:	5b                   	pop    rbx
    3e0a:	41 5c                	pop    r12
    3e0c:	5d                   	pop    rbp
    3e0d:	c3                   	ret    
    3e0e:	55                   	push   rbp
    3e0f:	48 89 e5             	mov    rbp,rsp
    3e12:	48 89 7d f8          	mov    QWORD PTR [rbp-0x8],rdi
    3e16:	48 8b 45 f8          	mov    rax,QWORD PTR [rbp-0x8]
    3e1a:	5d                   	pop    rbp
    3e1b:	c3                   	ret    
    3e1c:	55                   	push   rbp
    3e1d:	48 89 e5             	mov    rbp,rsp
    3e20:	53                   	push   rbx
    3e21:	48 83 ec 28          	sub    rsp,0x28
    3e25:	48 89 7d e8          	mov    QWORD PTR [rbp-0x18],rdi
    3e29:	48 89 75 e0          	mov    QWORD PTR [rbp-0x20],rsi
    3e2d:	48 89 55 d8          	mov    QWORD PTR [rbp-0x28],rdx
    3e31:	48 89 4d d0          	mov    QWORD PTR [rbp-0x30],rcx
    3e35:	48 8b 5d e8          	mov    rbx,QWORD PTR [rbp-0x18]
    3e39:	48 8b 45 e8          	mov    rax,QWORD PTR [rbp-0x18]
    3e3d:	48 89 c7             	mov    rdi,rax
    3e40:	e8 eb e9 ff ff       	call   2830 <_ZNSt7__cxx1112basic_stringIwSt11char_traitsIwESaIwEE13_M_local_dataEv@plt>
    3e45:	48 89 c1             	mov    rcx,rax
    3e48:	48 8b 45 d0          	mov    rax,QWORD PTR [rbp-0x30]
    3e4c:	48 89 c2             	mov    rdx,rax
    3e4f:	48 89 ce             	mov    rsi,rcx
    3e52:	48 89 df             	mov    rdi,rbx
    3e55:	e8 06 ea ff ff       	call   2860 <_ZNSt7__cxx1112basic_stringIwSt11char_traitsIwESaIwEE12_Alloc_hiderC1EPwRKS3_@plt>
    3e5a:	48 8b 55 d8          	mov    rdx,QWORD PTR [rbp-0x28]
    3e5e:	48 8b 4d e0          	mov    rcx,QWORD PTR [rbp-0x20]
    3e62:	48 8b 45 e8          	mov    rax,QWORD PTR [rbp-0x18]
    3e66:	48 89 ce             	mov    rsi,rcx
    3e69:	48 89 c7             	mov    rdi,rax
    3e6c:	e8 a9 00 00 00       	call   3f1a <__cxa_finalize@plt+0x130a>
    3e71:	eb 1a                	jmp    3e8d <__cxa_finalize@plt+0x127d>
    3e73:	48 89 c3             	mov    rbx,rax
    3e76:	48 8b 45 e8          	mov    rax,QWORD PTR [rbp-0x18]
    3e7a:	48 89 c7             	mov    rdi,rax
    3e7d:	e8 e6 f2 ff ff       	call   3168 <__cxa_finalize@plt+0x558>
    3e82:	48 89 d8             	mov    rax,rbx
    3e85:	48 89 c7             	mov    rdi,rax
    3e88:	e8 03 ed ff ff       	call   2b90 <_Unwind_Resume@plt>
    3e8d:	48 83 c4 28          	add    rsp,0x28
    3e91:	5b                   	pop    rbx
    3e92:	5d                   	pop    rbp
    3e93:	c3                   	ret    
    3e94:	55                   	push   rbp
    3e95:	48 89 e5             	mov    rbp,rsp
    3e98:	53                   	push   rbx
    3e99:	48 83 ec 18          	sub    rsp,0x18
    3e9d:	48 89 7d e8          	mov    QWORD PTR [rbp-0x18],rdi
    3ea1:	48 89 75 e0          	mov    QWORD PTR [rbp-0x20],rsi
    3ea5:	48 8b 45 e8          	mov    rax,QWORD PTR [rbp-0x18]
    3ea9:	48 89 c7             	mov    rdi,rax
    3eac:	e8 c5 00 00 00       	call   3f76 <__cxa_finalize@plt+0x1366>
    3eb1:	48 8b 00             	mov    rax,QWORD PTR [rax]
    3eb4:	48 89 c3             	mov    rbx,rax
    3eb7:	48 8b 45 e0          	mov    rax,QWORD PTR [rbp-0x20]
    3ebb:	48 89 c7             	mov    rdi,rax
    3ebe:	e8 b3 00 00 00       	call   3f76 <__cxa_finalize@plt+0x1366>
    3ec3:	48 8b 00             	mov    rax,QWORD PTR [rax]
    3ec6:	48 29 c3             	sub    rbx,rax
    3ec9:	48 89 d8             	mov    rax,rbx
    3ecc:	48 c1 f8 02          	sar    rax,0x2
    3ed0:	48 83 c4 18          	add    rsp,0x18
    3ed4:	5b                   	pop    rbx
    3ed5:	5d                   	pop    rbp
    3ed6:	c3                   	ret    
    3ed7:	55                   	push   rbp
    3ed8:	48 89 e5             	mov    rbp,rsp
    3edb:	53                   	push   rbx
    3edc:	48 83 ec 18          	sub    rsp,0x18
    3ee0:	48 89 7d e8          	mov    QWORD PTR [rbp-0x18],rdi
    3ee4:	48 89 75 e0          	mov    QWORD PTR [rbp-0x20],rsi
    3ee8:	48 8b 45 e8          	mov    rax,QWORD PTR [rbp-0x18]
    3eec:	48 89 c7             	mov    rdi,rax
    3eef:	e8 82 00 00 00       	call   3f76 <__cxa_finalize@plt+0x1366>
    3ef4:	48 8b 00             	mov    rax,QWORD PTR [rax]
    3ef7:	48 89 c3             	mov    rbx,rax
    3efa:	48 8b 45 e0          	mov    rax,QWORD PTR [rbp-0x20]
    3efe:	48 89 c7             	mov    rdi,rax
    3f01:	e8 c6 fd ff ff       	call   3ccc <__cxa_finalize@plt+0x10bc>
    3f06:	48 8b 00             	mov    rax,QWORD PTR [rax]
    3f09:	48 29 c3             	sub    rbx,rax
    3f0c:	48 89 d8             	mov    rax,rbx
    3f0f:	48 c1 f8 02          	sar    rax,0x2
    3f13:	48 83 c4 18          	add    rsp,0x18
    3f17:	5b                   	pop    rbx
    3f18:	5d                   	pop    rbp
    3f19:	c3                   	ret    
    3f1a:	55                   	push   rbp
    3f1b:	48 89 e5             	mov    rbp,rsp
    3f1e:	48 83 ec 30          	sub    rsp,0x30
    3f22:	48 89 7d e8          	mov    QWORD PTR [rbp-0x18],rdi
    3f26:	48 89 75 e0          	mov    QWORD PTR [rbp-0x20],rsi
    3f2a:	48 89 55 d8          	mov    QWORD PTR [rbp-0x28],rdx
    3f2e:	64 48 8b 04 25 28 00 	mov    rax,QWORD PTR fs:0x28
    3f35:	00 00 
    3f37:	48 89 45 f8          	mov    QWORD PTR [rbp-0x8],rax
    3f3b:	31 c0                	xor    eax,eax
    3f3d:	48 8b 55 d8          	mov    rdx,QWORD PTR [rbp-0x28]
    3f41:	48 8b 4d e0          	mov    rcx,QWORD PTR [rbp-0x20]
    3f45:	48 8b 45 e8          	mov    rax,QWORD PTR [rbp-0x18]
    3f49:	48 83 ec 08          	sub    rsp,0x8
    3f4d:	41 50                	push   r8
    3f4f:	48 89 ce             	mov    rsi,rcx
    3f52:	48 89 c7             	mov    rdi,rax
    3f55:	e8 2a 00 00 00       	call   3f84 <__cxa_finalize@plt+0x1374>
    3f5a:	48 83 c4 10          	add    rsp,0x10
    3f5e:	90                   	nop
    3f5f:	48 8b 45 f8          	mov    rax,QWORD PTR [rbp-0x8]
    3f63:	64 48 33 04 25 28 00 	xor    rax,QWORD PTR fs:0x28
    3f6a:	00 00 
    3f6c:	74 05                	je     3f73 <__cxa_finalize@plt+0x1363>
    3f6e:	e8 8d ea ff ff       	call   2a00 <__stack_chk_fail@plt>
    3f73:	c9                   	leave  
    3f74:	c3                   	ret    
    3f75:	90                   	nop
    3f76:	55                   	push   rbp
    3f77:	48 89 e5             	mov    rbp,rsp
    3f7a:	48 89 7d f8          	mov    QWORD PTR [rbp-0x8],rdi
    3f7e:	48 8b 45 f8          	mov    rax,QWORD PTR [rbp-0x8]
    3f82:	5d                   	pop    rbp
    3f83:	c3                   	ret    
    3f84:	55                   	push   rbp
    3f85:	48 89 e5             	mov    rbp,rsp
    3f88:	48 83 ec 30          	sub    rsp,0x30
    3f8c:	48 89 7d e8          	mov    QWORD PTR [rbp-0x18],rdi
    3f90:	48 89 75 e0          	mov    QWORD PTR [rbp-0x20],rsi
    3f94:	48 89 55 d8          	mov    QWORD PTR [rbp-0x28],rdx
    3f98:	64 48 8b 04 25 28 00 	mov    rax,QWORD PTR fs:0x28
    3f9f:	00 00 
    3fa1:	48 89 45 f8          	mov    QWORD PTR [rbp-0x8],rax
    3fa5:	31 c0                	xor    eax,eax
    3fa7:	48 8b 55 d8          	mov    rdx,QWORD PTR [rbp-0x28]
    3fab:	48 8b 4d e0          	mov    rcx,QWORD PTR [rbp-0x20]
    3faf:	48 8b 45 e8          	mov    rax,QWORD PTR [rbp-0x18]
    3fb3:	48 83 ec 08          	sub    rsp,0x8
    3fb7:	41 50                	push   r8
    3fb9:	48 89 ce             	mov    rsi,rcx
    3fbc:	48 89 c7             	mov    rdi,rax
    3fbf:	e8 1c 00 00 00       	call   3fe0 <__cxa_finalize@plt+0x13d0>
    3fc4:	48 83 c4 10          	add    rsp,0x10
    3fc8:	90                   	nop
    3fc9:	48 8b 45 f8          	mov    rax,QWORD PTR [rbp-0x8]
    3fcd:	64 48 33 04 25 28 00 	xor    rax,QWORD PTR fs:0x28
    3fd4:	00 00 
    3fd6:	74 05                	je     3fdd <__cxa_finalize@plt+0x13cd>
    3fd8:	e8 23 ea ff ff       	call   2a00 <__stack_chk_fail@plt>
    3fdd:	c9                   	leave  
    3fde:	c3                   	ret    
    3fdf:	90                   	nop
    3fe0:	55                   	push   rbp
    3fe1:	48 89 e5             	mov    rbp,rsp
    3fe4:	53                   	push   rbx
    3fe5:	48 83 ec 38          	sub    rsp,0x38
    3fe9:	48 89 7d d8          	mov    QWORD PTR [rbp-0x28],rdi
    3fed:	48 89 75 d0          	mov    QWORD PTR [rbp-0x30],rsi
    3ff1:	48 89 55 c8          	mov    QWORD PTR [rbp-0x38],rdx
    3ff5:	64 48 8b 04 25 28 00 	mov    rax,QWORD PTR fs:0x28
    3ffc:	00 00 
    3ffe:	48 89 45 e8          	mov    QWORD PTR [rbp-0x18],rax
    4002:	31 c0                	xor    eax,eax
    4004:	48 8b 45 d0          	mov    rax,QWORD PTR [rbp-0x30]
    4008:	48 89 c7             	mov    rdi,rax
    400b:	e8 07 01 00 00       	call   4117 <__cxa_finalize@plt+0x1507>
    4010:	84 c0                	test   al,al
    4012:	74 11                	je     4025 <__cxa_finalize@plt+0x1415>
    4014:	48 8b 45 d0          	mov    rax,QWORD PTR [rbp-0x30]
    4018:	48 3b 45 c8          	cmp    rax,QWORD PTR [rbp-0x38]
    401c:	74 07                	je     4025 <__cxa_finalize@plt+0x1415>
    401e:	b8 01 00 00 00       	mov    eax,0x1
    4023:	eb 05                	jmp    402a <__cxa_finalize@plt+0x141a>
    4025:	b8 00 00 00 00       	mov    eax,0x0
    402a:	84 c0                	test   al,al
    402c:	74 0c                	je     403a <__cxa_finalize@plt+0x142a>
    402e:	48 8d 3d 63 56 00 00 	lea    rdi,[rip+0x5663]        # 9698 <__cxa_finalize@plt+0x6a88>
    4035:	e8 c6 e8 ff ff       	call   2900 <_ZSt19__throw_logic_errorPKc@plt>
    403a:	48 8b 55 c8          	mov    rdx,QWORD PTR [rbp-0x38]
    403e:	48 8b 45 d0          	mov    rax,QWORD PTR [rbp-0x30]
    4042:	48 89 d6             	mov    rsi,rdx
    4045:	48 89 c7             	mov    rdi,rax
    4048:	e8 e6 00 00 00       	call   4133 <__cxa_finalize@plt+0x1523>
    404d:	48 89 45 e0          	mov    QWORD PTR [rbp-0x20],rax
    4051:	48 8b 45 e0          	mov    rax,QWORD PTR [rbp-0x20]
    4055:	48 83 f8 03          	cmp    rax,0x3
    4059:	76 3d                	jbe    4098 <__cxa_finalize@plt+0x1488>
    405b:	48 8d 4d e0          	lea    rcx,[rbp-0x20]
    405f:	48 8b 45 d8          	mov    rax,QWORD PTR [rbp-0x28]
    4063:	ba 00 00 00 00       	mov    edx,0x0
    4068:	48 89 ce             	mov    rsi,rcx
    406b:	48 89 c7             	mov    rdi,rax
    406e:	e8 3d e9 ff ff       	call   29b0 <_ZNSt7__cxx1112basic_stringIwSt11char_traitsIwESaIwEE9_M_createERmm@plt>
    4073:	48 89 c2             	mov    rdx,rax
    4076:	48 8b 45 d8          	mov    rax,QWORD PTR [rbp-0x28]
    407a:	48 89 d6             	mov    rsi,rdx
    407d:	48 89 c7             	mov    rdi,rax
    4080:	e8 4b e7 ff ff       	call   27d0 <_ZNSt7__cxx1112basic_stringIwSt11char_traitsIwESaIwEE7_M_dataEPw@plt>
    4085:	48 8b 55 e0          	mov    rdx,QWORD PTR [rbp-0x20]
    4089:	48 8b 45 d8          	mov    rax,QWORD PTR [rbp-0x28]
    408d:	48 89 d6             	mov    rsi,rdx
    4090:	48 89 c7             	mov    rdi,rax
    4093:	e8 d8 ea ff ff       	call   2b70 <_ZNSt7__cxx1112basic_stringIwSt11char_traitsIwESaIwEE11_M_capacityEm@plt>
    4098:	48 8b 45 d8          	mov    rax,QWORD PTR [rbp-0x28]
    409c:	48 89 c7             	mov    rdi,rax
    409f:	e8 ec e7 ff ff       	call   2890 <_ZNKSt7__cxx1112basic_stringIwSt11char_traitsIwESaIwEE7_M_dataEv@plt>
    40a4:	48 89 c1             	mov    rcx,rax
    40a7:	48 8b 55 c8          	mov    rdx,QWORD PTR [rbp-0x38]
    40ab:	48 8b 45 d0          	mov    rax,QWORD PTR [rbp-0x30]
    40af:	48 89 c6             	mov    rsi,rax
    40b2:	48 89 cf             	mov    rdi,rcx
    40b5:	e8 db 00 00 00       	call   4195 <__cxa_finalize@plt+0x1585>
    40ba:	48 8b 55 e0          	mov    rdx,QWORD PTR [rbp-0x20]
    40be:	48 8b 45 d8          	mov    rax,QWORD PTR [rbp-0x28]
    40c2:	48 89 d6             	mov    rsi,rdx
    40c5:	48 89 c7             	mov    rdi,rax
    40c8:	e8 53 ea ff ff       	call   2b20 <_ZNSt7__cxx1112basic_stringIwSt11char_traitsIwESaIwEE13_M_set_lengthEm@plt>
    40cd:	90                   	nop
    40ce:	48 8b 45 e8          	mov    rax,QWORD PTR [rbp-0x18]
    40d2:	64 48 33 04 25 28 00 	xor    rax,QWORD PTR fs:0x28
    40d9:	00 00 
    40db:	74 33                	je     4110 <__cxa_finalize@plt+0x1500>
    40dd:	eb 2c                	jmp    410b <__cxa_finalize@plt+0x14fb>
    40df:	48 89 c7             	mov    rdi,rax
    40e2:	e8 69 e7 ff ff       	call   2850 <__cxa_begin_catch@plt>
    40e7:	48 8b 45 d8          	mov    rax,QWORD PTR [rbp-0x28]
    40eb:	48 89 c7             	mov    rdi,rax
    40ee:	e8 5d e8 ff ff       	call   2950 <_ZNSt7__cxx1112basic_stringIwSt11char_traitsIwESaIwEE10_M_disposeEv@plt>
    40f3:	e8 c8 e9 ff ff       	call   2ac0 <__cxa_rethrow@plt>
    40f8:	48 89 c3             	mov    rbx,rax
    40fb:	e8 30 ea ff ff       	call   2b30 <__cxa_end_catch@plt>
    4100:	48 89 d8             	mov    rax,rbx
    4103:	48 89 c7             	mov    rdi,rax
    4106:	e8 85 ea ff ff       	call   2b90 <_Unwind_Resume@plt>
    410b:	e8 f0 e8 ff ff       	call   2a00 <__stack_chk_fail@plt>
    4110:	48 83 c4 38          	add    rsp,0x38
    4114:	5b                   	pop    rbx
    4115:	5d                   	pop    rbp
    4116:	c3                   	ret    
    4117:	55                   	push   rbp
    4118:	48 89 e5             	mov    rbp,rsp
    411b:	48 89 7d f8          	mov    QWORD PTR [rbp-0x8],rdi
    411f:	48 83 7d f8 00       	cmp    QWORD PTR [rbp-0x8],0x0
    4124:	0f 94 c0             	sete   al
    4127:	5d                   	pop    rbp
    4128:	c3                   	ret    
    4129:	55                   	push   rbp
    412a:	48 89 e5             	mov    rbp,rsp
    412d:	48 89 7d f8          	mov    QWORD PTR [rbp-0x8],rdi
    4131:	5d                   	pop    rbp
    4132:	c3                   	ret    
    4133:	55                   	push   rbp
    4134:	48 89 e5             	mov    rbp,rsp
    4137:	53                   	push   rbx
    4138:	48 83 ec 28          	sub    rsp,0x28
    413c:	48 89 7d d8          	mov    QWORD PTR [rbp-0x28],rdi
    4140:	48 89 75 d0          	mov    QWORD PTR [rbp-0x30],rsi
    4144:	64 48 8b 04 25 28 00 	mov    rax,QWORD PTR fs:0x28
    414b:	00 00 
    414d:	48 89 45 e8          	mov    QWORD PTR [rbp-0x18],rax
    4151:	31 c0                	xor    eax,eax
    4153:	48 8d 45 d8          	lea    rax,[rbp-0x28]
    4157:	48 89 c7             	mov    rdi,rax
    415a:	e8 ca ff ff ff       	call   4129 <__cxa_finalize@plt+0x1519>
    415f:	48 8b 45 d8          	mov    rax,QWORD PTR [rbp-0x28]
    4163:	48 8b 55 d0          	mov    rdx,QWORD PTR [rbp-0x30]
    4167:	48 83 ec 08          	sub    rsp,0x8
    416b:	53                   	push   rbx
    416c:	48 89 d6             	mov    rsi,rdx
    416f:	48 89 c7             	mov    rdi,rax
    4172:	e8 8e 00 00 00       	call   4205 <__cxa_finalize@plt+0x15f5>
    4177:	48 83 c4 10          	add    rsp,0x10
    417b:	48 8b 4d e8          	mov    rcx,QWORD PTR [rbp-0x18]
    417f:	64 48 33 0c 25 28 00 	xor    rcx,QWORD PTR fs:0x28
    4186:	00 00 
    4188:	74 05                	je     418f <__cxa_finalize@plt+0x157f>
    418a:	e8 71 e8 ff ff       	call   2a00 <__stack_chk_fail@plt>
    418f:	48 8b 5d f8          	mov    rbx,QWORD PTR [rbp-0x8]
    4193:	c9                   	leave  
    4194:	c3                   	ret    
    4195:	55                   	push   rbp
    4196:	48 89 e5             	mov    rbp,rsp
    4199:	48 83 ec 30          	sub    rsp,0x30
    419d:	48 89 7d e8          	mov    QWORD PTR [rbp-0x18],rdi
    41a1:	48 89 75 e0          	mov    QWORD PTR [rbp-0x20],rsi
    41a5:	48 89 55 d8          	mov    QWORD PTR [rbp-0x28],rdx
    41a9:	64 48 8b 04 25 28 00 	mov    rax,QWORD PTR fs:0x28
    41b0:	00 00 
    41b2:	48 89 45 f8          	mov    QWORD PTR [rbp-0x8],rax
    41b6:	31 c0                	xor    eax,eax
    41b8:	48 8b 45 e0          	mov    rax,QWORD PTR [rbp-0x20]
    41bc:	48 3b 45 d8          	cmp    rax,QWORD PTR [rbp-0x28]
    41c0:	74 2c                	je     41ee <__cxa_finalize@plt+0x15de>
    41c2:	48 8b 45 e0          	mov    rax,QWORD PTR [rbp-0x20]
    41c6:	0f b6 00             	movzx  eax,BYTE PTR [rax]
    41c9:	0f be c0             	movsx  eax,al
    41cc:	89 45 f4             	mov    DWORD PTR [rbp-0xc],eax
    41cf:	48 8d 55 f4          	lea    rdx,[rbp-0xc]
    41d3:	48 8b 45 e8          	mov    rax,QWORD PTR [rbp-0x18]
    41d7:	48 89 d6             	mov    rsi,rdx
    41da:	48 89 c7             	mov    rdi,rax
    41dd:	e8 dc ee ff ff       	call   30be <__cxa_finalize@plt+0x4ae>
    41e2:	48 83 45 e0 01       	add    QWORD PTR [rbp-0x20],0x1
    41e7:	48 83 45 e8 04       	add    QWORD PTR [rbp-0x18],0x4
    41ec:	eb ca                	jmp    41b8 <__cxa_finalize@plt+0x15a8>
    41ee:	90                   	nop
    41ef:	48 8b 45 f8          	mov    rax,QWORD PTR [rbp-0x8]
    41f3:	64 48 33 04 25 28 00 	xor    rax,QWORD PTR fs:0x28
    41fa:	00 00 
    41fc:	74 05                	je     4203 <__cxa_finalize@plt+0x15f3>
    41fe:	e8 fd e7 ff ff       	call   2a00 <__stack_chk_fail@plt>
    4203:	c9                   	leave  
    4204:	c3                   	ret    
    4205:	55                   	push   rbp
    4206:	48 89 e5             	mov    rbp,rsp
    4209:	48 89 7d f8          	mov    QWORD PTR [rbp-0x8],rdi
    420d:	48 89 75 f0          	mov    QWORD PTR [rbp-0x10],rsi
    4211:	48 8b 55 f0          	mov    rdx,QWORD PTR [rbp-0x10]
    4215:	48 8b 45 f8          	mov    rax,QWORD PTR [rbp-0x8]
    4219:	48 29 c2             	sub    rdx,rax
    421c:	48 89 d0             	mov    rax,rdx
    421f:	5d                   	pop    rbp
    4220:	c3                   	ret    
    4221:	55                   	push   rbp
    4222:	48 89 e5             	mov    rbp,rsp
    4225:	48 83 ec 10          	sub    rsp,0x10
    4229:	64 48 8b 04 25 28 00 	mov    rax,QWORD PTR fs:0x28
    4230:	00 00 
    4232:	48 89 45 f8          	mov    QWORD PTR [rbp-0x8],rax
    4236:	31 c0                	xor    eax,eax
    4238:	c7 45 f4 33 f2 01 00 	mov    DWORD PTR [rbp-0xc],0x1f233
    423f:	48 8d 45 f4          	lea    rax,[rbp-0xc]
    4243:	48 89 c6             	mov    rsi,rax
    4246:	48 8d 3d 33 9f 20 00 	lea    rdi,[rip+0x209f33]        # 20e180 <_ZSt5wcout@@GLIBCXX_3.4+0x120>
    424d:	e8 62 1a 00 00       	call   5cb4 <__cxa_finalize@plt+0x30a4>
    4252:	c7 00 01 00 00 00    	mov    DWORD PTR [rax],0x1
    4258:	c7 45 f4 95 27 00 00 	mov    DWORD PTR [rbp-0xc],0x2795
    425f:	48 8d 45 f4          	lea    rax,[rbp-0xc]
    4263:	48 89 c6             	mov    rsi,rax
    4266:	48 8d 3d 13 9f 20 00 	lea    rdi,[rip+0x209f13]        # 20e180 <_ZSt5wcout@@GLIBCXX_3.4+0x120>
    426d:	e8 42 1a 00 00       	call   5cb4 <__cxa_finalize@plt+0x30a4>
    4272:	c7 00 02 00 00 00    	mov    DWORD PTR [rax],0x2
    4278:	c7 45 f4 96 27 00 00 	mov    DWORD PTR [rbp-0xc],0x2796
    427f:	48 8d 45 f4          	lea    rax,[rbp-0xc]
    4283:	48 89 c6             	mov    rsi,rax
    4286:	48 8d 3d f3 9e 20 00 	lea    rdi,[rip+0x209ef3]        # 20e180 <_ZSt5wcout@@GLIBCXX_3.4+0x120>
    428d:	e8 22 1a 00 00       	call   5cb4 <__cxa_finalize@plt+0x30a4>
    4292:	c7 00 03 00 00 00    	mov    DWORD PTR [rax],0x3
    4298:	c7 45 f4 4c 27 00 00 	mov    DWORD PTR [rbp-0xc],0x274c
    429f:	48 8d 45 f4          	lea    rax,[rbp-0xc]
    42a3:	48 89 c6             	mov    rsi,rax
    42a6:	48 8d 3d d3 9e 20 00 	lea    rdi,[rip+0x209ed3]        # 20e180 <_ZSt5wcout@@GLIBCXX_3.4+0x120>
    42ad:	e8 02 1a 00 00       	call   5cb4 <__cxa_finalize@plt+0x30a4>
    42b2:	c7 00 04 00 00 00    	mov    DWORD PTR [rax],0x4
    42b8:	c7 45 f4 53 27 00 00 	mov    DWORD PTR [rbp-0xc],0x2753
    42bf:	48 8d 45 f4          	lea    rax,[rbp-0xc]
    42c3:	48 89 c6             	mov    rsi,rax
    42c6:	48 8d 3d b3 9e 20 00 	lea    rdi,[rip+0x209eb3]        # 20e180 <_ZSt5wcout@@GLIBCXX_3.4+0x120>
    42cd:	e8 e2 19 00 00       	call   5cb4 <__cxa_finalize@plt+0x30a4>
    42d2:	c7 00 05 00 00 00    	mov    DWORD PTR [rax],0x5
    42d8:	c7 45 f4 4e 27 00 00 	mov    DWORD PTR [rbp-0xc],0x274e
    42df:	48 8d 45 f4          	lea    rax,[rbp-0xc]
    42e3:	48 89 c6             	mov    rsi,rax
    42e6:	48 8d 3d 93 9e 20 00 	lea    rdi,[rip+0x209e93]        # 20e180 <_ZSt5wcout@@GLIBCXX_3.4+0x120>
    42ed:	e8 c2 19 00 00       	call   5cb4 <__cxa_finalize@plt+0x30a4>
    42f2:	c7 00 06 00 00 00    	mov    DWORD PTR [rax],0x6
    42f8:	c7 45 f4 6b f4 01 00 	mov    DWORD PTR [rbp-0xc],0x1f46b
    42ff:	48 8d 45 f4          	lea    rax,[rbp-0xc]
    4303:	48 89 c6             	mov    rsi,rax
    4306:	48 8d 3d 73 9e 20 00 	lea    rdi,[rip+0x209e73]        # 20e180 <_ZSt5wcout@@GLIBCXX_3.4+0x120>
    430d:	e8 a2 19 00 00       	call   5cb4 <__cxa_finalize@plt+0x30a4>
    4312:	c7 00 07 00 00 00    	mov    DWORD PTR [rax],0x7
    4318:	c7 45 f4 80 f4 01 00 	mov    DWORD PTR [rbp-0xc],0x1f480
    431f:	48 8d 45 f4          	lea    rax,[rbp-0xc]
    4323:	48 89 c6             	mov    rsi,rax
    4326:	48 8d 3d 53 9e 20 00 	lea    rdi,[rip+0x209e53]        # 20e180 <_ZSt5wcout@@GLIBCXX_3.4+0x120>
    432d:	e8 82 19 00 00       	call   5cb4 <__cxa_finalize@plt+0x30a4>
    4332:	c7 00 08 00 00 00    	mov    DWORD PTR [rax],0x8
    4338:	c7 45 f4 af f4 01 00 	mov    DWORD PTR [rbp-0xc],0x1f4af
    433f:	48 8d 45 f4          	lea    rax,[rbp-0xc]
    4343:	48 89 c6             	mov    rsi,rax
    4346:	48 8d 3d 33 9e 20 00 	lea    rdi,[rip+0x209e33]        # 20e180 <_ZSt5wcout@@GLIBCXX_3.4+0x120>
    434d:	e8 62 19 00 00       	call   5cb4 <__cxa_finalize@plt+0x30a4>
    4352:	c7 00 09 00 00 00    	mov    DWORD PTR [rax],0x9
    4358:	c7 45 f4 80 f6 01 00 	mov    DWORD PTR [rbp-0xc],0x1f680
    435f:	48 8d 45 f4          	lea    rax,[rbp-0xc]
    4363:	48 89 c6             	mov    rsi,rax
    4366:	48 8d 3d 13 9e 20 00 	lea    rdi,[rip+0x209e13]        # 20e180 <_ZSt5wcout@@GLIBCXX_3.4+0x120>
    436d:	e8 42 19 00 00       	call   5cb4 <__cxa_finalize@plt+0x30a4>
    4372:	c7 00 0a 00 00 00    	mov    DWORD PTR [rax],0xa
    4378:	c7 45 f4 36 f2 01 00 	mov    DWORD PTR [rbp-0xc],0x1f236
    437f:	48 8d 45 f4          	lea    rax,[rbp-0xc]
    4383:	48 89 c6             	mov    rsi,rax
    4386:	48 8d 3d f3 9d 20 00 	lea    rdi,[rip+0x209df3]        # 20e180 <_ZSt5wcout@@GLIBCXX_3.4+0x120>
    438d:	e8 22 19 00 00       	call   5cb4 <__cxa_finalize@plt+0x30a4>
    4392:	c7 00 0b 00 00 00    	mov    DWORD PTR [rax],0xb
    4398:	c7 45 f4 1a f2 01 00 	mov    DWORD PTR [rbp-0xc],0x1f21a
    439f:	48 8d 45 f4          	lea    rax,[rbp-0xc]
    43a3:	48 89 c6             	mov    rsi,rax
    43a6:	48 8d 3d d3 9d 20 00 	lea    rdi,[rip+0x209dd3]        # 20e180 <_ZSt5wcout@@GLIBCXX_3.4+0x120>
    43ad:	e8 02 19 00 00       	call   5cb4 <__cxa_finalize@plt+0x30a4>
    43b2:	c7 00 0c 00 00 00    	mov    DWORD PTR [rax],0xc
    43b8:	c7 45 f4 ec 23 00 00 	mov    DWORD PTR [rbp-0xc],0x23ec
    43bf:	48 8d 45 f4          	lea    rax,[rbp-0xc]
    43c3:	48 89 c6             	mov    rsi,rax
    43c6:	48 8d 3d b3 9d 20 00 	lea    rdi,[rip+0x209db3]        # 20e180 <_ZSt5wcout@@GLIBCXX_3.4+0x120>
    43cd:	e8 e2 18 00 00       	call   5cb4 <__cxa_finalize@plt+0x30a4>
    43d2:	c7 00 0d 00 00 00    	mov    DWORD PTR [rax],0xd
    43d8:	c7 45 f4 1d f5 01 00 	mov    DWORD PTR [rbp-0xc],0x1f51d
    43df:	48 8d 45 f4          	lea    rax,[rbp-0xc]
    43e3:	48 89 c6             	mov    rsi,rax
    43e6:	48 8d 3d 93 9d 20 00 	lea    rdi,[rip+0x209d93]        # 20e180 <_ZSt5wcout@@GLIBCXX_3.4+0x120>
    43ed:	e8 c2 18 00 00       	call   5cb4 <__cxa_finalize@plt+0x30a4>
    43f2:	c7 00 0e 00 00 00    	mov    DWORD PTR [rax],0xe
    43f8:	c7 45 f4 e4 f4 01 00 	mov    DWORD PTR [rbp-0xc],0x1f4e4
    43ff:	48 8d 45 f4          	lea    rax,[rbp-0xc]
    4403:	48 89 c6             	mov    rsi,rax
    4406:	48 8d 3d 73 9d 20 00 	lea    rdi,[rip+0x209d73]        # 20e180 <_ZSt5wcout@@GLIBCXX_3.4+0x120>
    440d:	e8 a2 18 00 00       	call   5cb4 <__cxa_finalize@plt+0x30a4>
    4412:	c7 00 0f 00 00 00    	mov    DWORD PTR [rax],0xf
    4418:	c7 45 f4 e5 f4 01 00 	mov    DWORD PTR [rbp-0xc],0x1f4e5
    441f:	48 8d 45 f4          	lea    rax,[rbp-0xc]
    4423:	48 89 c6             	mov    rsi,rax
    4426:	48 8d 3d 53 9d 20 00 	lea    rdi,[rip+0x209d53]        # 20e180 <_ZSt5wcout@@GLIBCXX_3.4+0x120>
    442d:	e8 82 18 00 00       	call   5cb4 <__cxa_finalize@plt+0x30a4>
    4432:	c7 00 10 00 00 00    	mov    DWORD PTR [rax],0x10
    4438:	c7 45 f4 95 f1 01 00 	mov    DWORD PTR [rbp-0xc],0x1f195
    443f:	48 8d 45 f4          	lea    rax,[rbp-0xc]
    4443:	48 89 c6             	mov    rsi,rax
    4446:	48 8d 3d 33 9d 20 00 	lea    rdi,[rip+0x209d33]        # 20e180 <_ZSt5wcout@@GLIBCXX_3.4+0x120>
    444d:	e8 62 18 00 00       	call   5cb4 <__cxa_finalize@plt+0x30a4>
    4452:	c7 00 11 00 00 00    	mov    DWORD PTR [rax],0x11
    4458:	c7 45 f4 93 f1 01 00 	mov    DWORD PTR [rbp-0xc],0x1f193
    445f:	48 8d 45 f4          	lea    rax,[rbp-0xc]
    4463:	48 89 c6             	mov    rsi,rax
    4466:	48 8d 3d 13 9d 20 00 	lea    rdi,[rip+0x209d13]        # 20e180 <_ZSt5wcout@@GLIBCXX_3.4+0x120>
    446d:	e8 42 18 00 00       	call   5cb4 <__cxa_finalize@plt+0x30a4>
    4472:	c7 00 12 00 00 00    	mov    DWORD PTR [rax],0x12
    4478:	c7 45 f4 c4 f4 01 00 	mov    DWORD PTR [rbp-0xc],0x1f4c4
    447f:	48 8d 45 f4          	lea    rax,[rbp-0xc]
    4483:	48 89 c6             	mov    rsi,rax
    4486:	48 8d 3d f3 9c 20 00 	lea    rdi,[rip+0x209cf3]        # 20e180 <_ZSt5wcout@@GLIBCXX_3.4+0x120>
    448d:	e8 22 18 00 00       	call   5cb4 <__cxa_finalize@plt+0x30a4>
    4492:	c7 00 13 00 00 00    	mov    DWORD PTR [rax],0x13
    4498:	c7 45 f4 dd f4 01 00 	mov    DWORD PTR [rbp-0xc],0x1f4dd
    449f:	48 8d 45 f4          	lea    rax,[rbp-0xc]
    44a3:	48 89 c6             	mov    rsi,rax
    44a6:	48 8d 3d d3 9c 20 00 	lea    rdi,[rip+0x209cd3]        # 20e180 <_ZSt5wcout@@GLIBCXX_3.4+0x120>
    44ad:	e8 02 18 00 00       	call   5cb4 <__cxa_finalize@plt+0x30a4>
    44b2:	c7 00 14 00 00 00    	mov    DWORD PTR [rax],0x14
    44b8:	c7 45 f4 21 f5 01 00 	mov    DWORD PTR [rbp-0xc],0x1f521
    44bf:	48 8d 45 f4          	lea    rax,[rbp-0xc]
    44c3:	48 89 c6             	mov    rsi,rax
    44c6:	48 8d 3d b3 9c 20 00 	lea    rdi,[rip+0x209cb3]        # 20e180 <_ZSt5wcout@@GLIBCXX_3.4+0x120>
    44cd:	e8 e2 17 00 00       	call   5cb4 <__cxa_finalize@plt+0x30a4>
    44d2:	c7 00 15 00 00 00    	mov    DWORD PTR [rax],0x15
    44d8:	c7 45 f4 22 f5 01 00 	mov    DWORD PTR [rbp-0xc],0x1f522
    44df:	48 8d 45 f4          	lea    rax,[rbp-0xc]
    44e3:	48 89 c6             	mov    rsi,rax
    44e6:	48 8d 3d 93 9c 20 00 	lea    rdi,[rip+0x209c93]        # 20e180 <_ZSt5wcout@@GLIBCXX_3.4+0x120>
    44ed:	e8 c2 17 00 00       	call   5cb4 <__cxa_finalize@plt+0x30a4>
    44f2:	c7 00 16 00 00 00    	mov    DWORD PTR [rax],0x16
    44f8:	c7 45 f4 d1 f6 01 00 	mov    DWORD PTR [rbp-0xc],0x1f6d1
    44ff:	48 8d 45 f4          	lea    rax,[rbp-0xc]
    4503:	48 89 c6             	mov    rsi,rax
    4506:	48 8d 3d 73 9c 20 00 	lea    rdi,[rip+0x209c73]        # 20e180 <_ZSt5wcout@@GLIBCXX_3.4+0x120>
    450d:	e8 a2 17 00 00       	call   5cb4 <__cxa_finalize@plt+0x30a4>
    4512:	c7 00 17 00 00 00    	mov    DWORD PTR [rax],0x17
    4518:	c7 45 f4 00 f6 01 00 	mov    DWORD PTR [rbp-0xc],0x1f600
    451f:	48 8d 45 f4          	lea    rax,[rbp-0xc]
    4523:	48 89 c6             	mov    rsi,rax
    4526:	48 8d 3d 93 9c 20 00 	lea    rdi,[rip+0x209c93]        # 20e1c0 <_ZSt5wcout@@GLIBCXX_3.4+0x160>
    452d:	e8 aa 18 00 00       	call   5ddc <__cxa_finalize@plt+0x31cc>
    4532:	c7 00 00 00 00 00    	mov    DWORD PTR [rax],0x0
    4538:	c7 45 f4 01 f6 01 00 	mov    DWORD PTR [rbp-0xc],0x1f601
    453f:	48 8d 45 f4          	lea    rax,[rbp-0xc]
    4543:	48 89 c6             	mov    rsi,rax
    4546:	48 8d 3d 73 9c 20 00 	lea    rdi,[rip+0x209c73]        # 20e1c0 <_ZSt5wcout@@GLIBCXX_3.4+0x160>
    454d:	e8 8a 18 00 00       	call   5ddc <__cxa_finalize@plt+0x31cc>
    4552:	c7 00 01 00 00 00    	mov    DWORD PTR [rax],0x1
    4558:	c7 45 f4 02 f6 01 00 	mov    DWORD PTR [rbp-0xc],0x1f602
    455f:	48 8d 45 f4          	lea    rax,[rbp-0xc]
    4563:	48 89 c6             	mov    rsi,rax
    4566:	48 8d 3d 53 9c 20 00 	lea    rdi,[rip+0x209c53]        # 20e1c0 <_ZSt5wcout@@GLIBCXX_3.4+0x160>
    456d:	e8 6a 18 00 00       	call   5ddc <__cxa_finalize@plt+0x31cc>
    4572:	c7 00 02 00 00 00    	mov    DWORD PTR [rax],0x2
    4578:	c7 45 f4 23 f9 01 00 	mov    DWORD PTR [rbp-0xc],0x1f923
    457f:	48 8d 45 f4          	lea    rax,[rbp-0xc]
    4583:	48 89 c6             	mov    rsi,rax
    4586:	48 8d 3d 33 9c 20 00 	lea    rdi,[rip+0x209c33]        # 20e1c0 <_ZSt5wcout@@GLIBCXX_3.4+0x160>
    458d:	e8 4a 18 00 00       	call   5ddc <__cxa_finalize@plt+0x31cc>
    4592:	c7 00 03 00 00 00    	mov    DWORD PTR [rax],0x3
    4598:	c7 45 f4 1c f6 01 00 	mov    DWORD PTR [rbp-0xc],0x1f61c
    459f:	48 8d 45 f4          	lea    rax,[rbp-0xc]
    45a3:	48 89 c6             	mov    rsi,rax
    45a6:	48 8d 3d 13 9c 20 00 	lea    rdi,[rip+0x209c13]        # 20e1c0 <_ZSt5wcout@@GLIBCXX_3.4+0x160>
    45ad:	e8 2a 18 00 00       	call   5ddc <__cxa_finalize@plt+0x31cc>
    45b2:	c7 00 04 00 00 00    	mov    DWORD PTR [rax],0x4
    45b8:	c7 45 f4 04 f6 01 00 	mov    DWORD PTR [rbp-0xc],0x1f604
    45bf:	48 8d 45 f4          	lea    rax,[rbp-0xc]
    45c3:	48 89 c6             	mov    rsi,rax
    45c6:	48 8d 3d f3 9b 20 00 	lea    rdi,[rip+0x209bf3]        # 20e1c0 <_ZSt5wcout@@GLIBCXX_3.4+0x160>
    45cd:	e8 0a 18 00 00       	call   5ddc <__cxa_finalize@plt+0x31cc>
    45d2:	c7 00 05 00 00 00    	mov    DWORD PTR [rax],0x5
    45d8:	c7 45 f4 05 f6 01 00 	mov    DWORD PTR [rbp-0xc],0x1f605
    45df:	48 8d 45 f4          	lea    rax,[rbp-0xc]
    45e3:	48 89 c6             	mov    rsi,rax
    45e6:	48 8d 3d d3 9b 20 00 	lea    rdi,[rip+0x209bd3]        # 20e1c0 <_ZSt5wcout@@GLIBCXX_3.4+0x160>
    45ed:	e8 ea 17 00 00       	call   5ddc <__cxa_finalize@plt+0x31cc>
    45f2:	c7 00 06 00 00 00    	mov    DWORD PTR [rax],0x6
    45f8:	c7 45 f4 06 f6 01 00 	mov    DWORD PTR [rbp-0xc],0x1f606
    45ff:	48 8d 45 f4          	lea    rax,[rbp-0xc]
    4603:	48 89 c6             	mov    rsi,rax
    4606:	48 8d 3d b3 9b 20 00 	lea    rdi,[rip+0x209bb3]        # 20e1c0 <_ZSt5wcout@@GLIBCXX_3.4+0x160>
    460d:	e8 ca 17 00 00       	call   5ddc <__cxa_finalize@plt+0x31cc>
    4612:	c7 00 07 00 00 00    	mov    DWORD PTR [rax],0x7
    4618:	c7 45 f4 09 f6 01 00 	mov    DWORD PTR [rbp-0xc],0x1f609
    461f:	48 8d 45 f4          	lea    rax,[rbp-0xc]
    4623:	48 89 c6             	mov    rsi,rax
    4626:	48 8d 3d 93 9b 20 00 	lea    rdi,[rip+0x209b93]        # 20e1c0 <_ZSt5wcout@@GLIBCXX_3.4+0x160>
    462d:	e8 aa 17 00 00       	call   5ddc <__cxa_finalize@plt+0x31cc>
    4632:	c7 00 08 00 00 00    	mov    DWORD PTR [rax],0x8
    4638:	c7 45 f4 0a f6 01 00 	mov    DWORD PTR [rbp-0xc],0x1f60a
    463f:	48 8d 45 f4          	lea    rax,[rbp-0xc]
    4643:	48 89 c6             	mov    rsi,rax
    4646:	48 8d 3d 73 9b 20 00 	lea    rdi,[rip+0x209b73]        # 20e1c0 <_ZSt5wcout@@GLIBCXX_3.4+0x160>
    464d:	e8 8a 17 00 00       	call   5ddc <__cxa_finalize@plt+0x31cc>
    4652:	c7 00 09 00 00 00    	mov    DWORD PTR [rax],0x9
    4658:	c7 45 f4 0d f6 01 00 	mov    DWORD PTR [rbp-0xc],0x1f60d
    465f:	48 8d 45 f4          	lea    rax,[rbp-0xc]
    4663:	48 89 c6             	mov    rsi,rax
    4666:	48 8d 3d 53 9b 20 00 	lea    rdi,[rip+0x209b53]        # 20e1c0 <_ZSt5wcout@@GLIBCXX_3.4+0x160>
    466d:	e8 6a 17 00 00       	call   5ddc <__cxa_finalize@plt+0x31cc>
    4672:	c7 00 0a 00 00 00    	mov    DWORD PTR [rax],0xa
    4678:	90                   	nop
    4679:	48 8b 45 f8          	mov    rax,QWORD PTR [rbp-0x8]
    467d:	64 48 33 04 25 28 00 	xor    rax,QWORD PTR fs:0x28
    4684:	00 00 
    4686:	74 05                	je     468d <__cxa_finalize@plt+0x1a7d>
    4688:	e8 73 e3 ff ff       	call   2a00 <__stack_chk_fail@plt>
    468d:	c9                   	leave  
    468e:	c3                   	ret    
    468f:	55                   	push   rbp
    4690:	48 89 e5             	mov    rbp,rsp
    4693:	48 83 ec 10          	sub    rsp,0x10
    4697:	89 7d fc             	mov    DWORD PTR [rbp-0x4],edi
    469a:	48 8d 45 fc          	lea    rax,[rbp-0x4]
    469e:	48 89 c6             	mov    rsi,rax
    46a1:	48 8d 3d 18 9b 20 00 	lea    rdi,[rip+0x209b18]        # 20e1c0 <_ZSt5wcout@@GLIBCXX_3.4+0x160>
    46a8:	e8 57 18 00 00       	call   5f04 <__cxa_finalize@plt+0x32f4>
    46ad:	48 85 c0             	test   rax,rax
    46b0:	0f 95 c0             	setne  al
    46b3:	84 c0                	test   al,al
    46b5:	74 17                	je     46ce <__cxa_finalize@plt+0x1abe>
    46b7:	48 8d 45 fc          	lea    rax,[rbp-0x4]
    46bb:	48 89 c6             	mov    rsi,rax
    46be:	48 8d 3d fb 9a 20 00 	lea    rdi,[rip+0x209afb]        # 20e1c0 <_ZSt5wcout@@GLIBCXX_3.4+0x160>
    46c5:	e8 20 19 00 00       	call   5fea <__cxa_finalize@plt+0x33da>
    46ca:	8b 00                	mov    eax,DWORD PTR [rax]
    46cc:	eb 42                	jmp    4710 <__cxa_finalize@plt+0x1b00>
    46ce:	48 8d 35 eb 50 00 00 	lea    rsi,[rip+0x50eb]        # 97c0 <__cxa_finalize@plt+0x6bb0>
    46d5:	48 8d 3d 84 99 20 00 	lea    rdi,[rip+0x209984]        # 20e060 <_ZSt5wcout@@GLIBCXX_3.4>
    46dc:	e8 bf e0 ff ff       	call   27a0 <_ZStlsIwSt11char_traitsIwEERSt13basic_ostreamIT_T0_ES6_PKc@plt>
    46e1:	48 89 c2             	mov    rdx,rax
    46e4:	8b 45 fc             	mov    eax,DWORD PTR [rbp-0x4]
    46e7:	89 c6                	mov    esi,eax
    46e9:	48 89 d7             	mov    rdi,rdx
    46ec:	e8 ef e2 ff ff       	call   29e0 <_ZStlsIwSt11char_traitsIwEERSt13basic_ostreamIT_T0_ES6_S3_@plt>
    46f1:	48 89 c2             	mov    rdx,rax
    46f4:	48 8b 05 d5 98 20 00 	mov    rax,QWORD PTR [rip+0x2098d5]        # 20dfd0 <_ZSt4endlIwSt11char_traitsIwEERSt13basic_ostreamIT_T0_ES6_@GLIBCXX_3.4>
    46fb:	48 89 c6             	mov    rsi,rax
    46fe:	48 89 d7             	mov    rdi,rdx
    4701:	e8 7a e4 ff ff       	call   2b80 <_ZNSt13basic_ostreamIwSt11char_traitsIwEElsEPFRS2_S3_E@plt>
    4706:	bf 01 00 00 00       	mov    edi,0x1
    470b:	e8 30 e3 ff ff       	call   2a40 <exit@plt>
    4710:	c9                   	leave  
    4711:	c3                   	ret    
    4712:	55                   	push   rbp
    4713:	48 89 e5             	mov    rbp,rsp
    4716:	89 7d fc             	mov    DWORD PTR [rbp-0x4],edi
    4719:	89 75 f8             	mov    DWORD PTR [rbp-0x8],esi
    471c:	89 55 f4             	mov    DWORD PTR [rbp-0xc],edx
    471f:	8b 45 f4             	mov    eax,DWORD PTR [rbp-0xc]
    4722:	3b 45 fc             	cmp    eax,DWORD PTR [rbp-0x4]
    4725:	7d 07                	jge    472e <__cxa_finalize@plt+0x1b1e>
    4727:	b8 00 00 00 00       	mov    eax,0x0
    472c:	eb 14                	jmp    4742 <__cxa_finalize@plt+0x1b32>
    472e:	8b 45 f4             	mov    eax,DWORD PTR [rbp-0xc]
    4731:	3b 45 f8             	cmp    eax,DWORD PTR [rbp-0x8]
    4734:	7c 07                	jl     473d <__cxa_finalize@plt+0x1b2d>
    4736:	b8 00 00 00 00       	mov    eax,0x0
    473b:	eb 05                	jmp    4742 <__cxa_finalize@plt+0x1b32>
    473d:	b8 01 00 00 00       	mov    eax,0x1
    4742:	5d                   	pop    rbp
    4743:	c3                   	ret    
    4744:	55                   	push   rbp
    4745:	48 89 e5             	mov    rbp,rsp
    4748:	48 83 ec 20          	sub    rsp,0x20
    474c:	89 7d ec             	mov    DWORD PTR [rbp-0x14],edi
    474f:	89 75 e8             	mov    DWORD PTR [rbp-0x18],esi
    4752:	8b 45 ec             	mov    eax,DWORD PTR [rbp-0x14]
    4755:	89 c2                	mov    edx,eax
    4757:	be 0a 00 00 00       	mov    esi,0xa
    475c:	bf 00 00 00 00       	mov    edi,0x0
    4761:	e8 ac ff ff ff       	call   4712 <__cxa_finalize@plt+0x1b02>
    4766:	83 f0 01             	xor    eax,0x1
    4769:	84 c0                	test   al,al
    476b:	75 1d                	jne    478a <__cxa_finalize@plt+0x1b7a>
    476d:	8b 45 ec             	mov    eax,DWORD PTR [rbp-0x14]
    4770:	48 98                	cdqe   
    4772:	48 8d 14 c5 00 00 00 	lea    rdx,[rax*8+0x0]
    4779:	00 
    477a:	48 8d 05 7f 9a 20 00 	lea    rax,[rip+0x209a7f]        # 20e200 <_ZSt5wcout@@GLIBCXX_3.4+0x1a0>
    4781:	48 8b 04 02          	mov    rax,QWORD PTR [rdx+rax*1]
    4785:	48 85 c0             	test   rax,rax
    4788:	75 07                	jne    4791 <__cxa_finalize@plt+0x1b81>
    478a:	b8 01 00 00 00       	mov    eax,0x1
    478f:	eb 05                	jmp    4796 <__cxa_finalize@plt+0x1b86>
    4791:	b8 00 00 00 00       	mov    eax,0x0
    4796:	84 c0                	test   al,al
    4798:	74 32                	je     47cc <__cxa_finalize@plt+0x1bbc>
    479a:	48 8d 35 33 50 00 00 	lea    rsi,[rip+0x5033]        # 97d4 <__cxa_finalize@plt+0x6bc4>
    47a1:	48 8d 3d b8 98 20 00 	lea    rdi,[rip+0x2098b8]        # 20e060 <_ZSt5wcout@@GLIBCXX_3.4>
    47a8:	e8 f3 df ff ff       	call   27a0 <_ZStlsIwSt11char_traitsIwEERSt13basic_ostreamIT_T0_ES6_PKc@plt>
    47ad:	48 89 c2             	mov    rdx,rax
    47b0:	48 8b 05 19 98 20 00 	mov    rax,QWORD PTR [rip+0x209819]        # 20dfd0 <_ZSt4endlIwSt11char_traitsIwEERSt13basic_ostreamIT_T0_ES6_@GLIBCXX_3.4>
    47b7:	48 89 c6             	mov    rsi,rax
    47ba:	48 89 d7             	mov    rdi,rdx
    47bd:	e8 be e3 ff ff       	call   2b80 <_ZNSt13basic_ostreamIwSt11char_traitsIwEElsEPFRS2_S3_E@plt>
    47c2:	bf 01 00 00 00       	mov    edi,0x1
    47c7:	e8 74 e2 ff ff       	call   2a40 <exit@plt>
    47cc:	8b 45 ec             	mov    eax,DWORD PTR [rbp-0x14]
    47cf:	48 98                	cdqe   
    47d1:	48 8d 14 c5 00 00 00 	lea    rdx,[rax*8+0x0]
    47d8:	00 
    47d9:	48 8d 05 20 9a 20 00 	lea    rax,[rip+0x209a20]        # 20e200 <_ZSt5wcout@@GLIBCXX_3.4+0x1a0>
    47e0:	48 8b 04 02          	mov    rax,QWORD PTR [rdx+rax*1]
    47e4:	48 89 45 f8          	mov    QWORD PTR [rbp-0x8],rax
    47e8:	48 8b 45 f8          	mov    rax,QWORD PTR [rbp-0x8]
    47ec:	48 8b 00             	mov    rax,QWORD PTR [rax]
    47ef:	89 c1                	mov    ecx,eax
    47f1:	8b 45 e8             	mov    eax,DWORD PTR [rbp-0x18]
    47f4:	89 c2                	mov    edx,eax
    47f6:	89 ce                	mov    esi,ecx
    47f8:	bf 00 00 00 00       	mov    edi,0x0
    47fd:	e8 10 ff ff ff       	call   4712 <__cxa_finalize@plt+0x1b02>
    4802:	83 f0 01             	xor    eax,0x1
    4805:	84 c0                	test   al,al
    4807:	74 32                	je     483b <__cxa_finalize@plt+0x1c2b>
    4809:	48 8d 35 d7 4f 00 00 	lea    rsi,[rip+0x4fd7]        # 97e7 <__cxa_finalize@plt+0x6bd7>
    4810:	48 8d 3d 49 98 20 00 	lea    rdi,[rip+0x209849]        # 20e060 <_ZSt5wcout@@GLIBCXX_3.4>
    4817:	e8 84 df ff ff       	call   27a0 <_ZStlsIwSt11char_traitsIwEERSt13basic_ostreamIT_T0_ES6_PKc@plt>
    481c:	48 89 c2             	mov    rdx,rax
    481f:	48 8b 05 aa 97 20 00 	mov    rax,QWORD PTR [rip+0x2097aa]        # 20dfd0 <_ZSt4endlIwSt11char_traitsIwEERSt13basic_ostreamIT_T0_ES6_@GLIBCXX_3.4>
    4826:	48 89 c6             	mov    rsi,rax
    4829:	48 89 d7             	mov    rdi,rdx
    482c:	e8 4f e3 ff ff       	call   2b80 <_ZNSt13basic_ostreamIwSt11char_traitsIwEElsEPFRS2_S3_E@plt>
    4831:	bf 01 00 00 00       	mov    edi,0x1
    4836:	e8 05 e2 ff ff       	call   2a40 <exit@plt>
    483b:	48 8b 45 f8          	mov    rax,QWORD PTR [rbp-0x8]
    483f:	48 8b 50 08          	mov    rdx,QWORD PTR [rax+0x8]
    4843:	8b 45 e8             	mov    eax,DWORD PTR [rbp-0x18]
    4846:	48 98                	cdqe   
    4848:	48 01 d0             	add    rax,rdx
    484b:	0f b6 00             	movzx  eax,BYTE PTR [rax]
    484e:	c9                   	leave  
    484f:	c3                   	ret    
    4850:	55                   	push   rbp
    4851:	48 89 e5             	mov    rbp,rsp
    4854:	48 83 ec 20          	sub    rsp,0x20
    4858:	89 7d ec             	mov    DWORD PTR [rbp-0x14],edi
    485b:	89 75 e8             	mov    DWORD PTR [rbp-0x18],esi
    485e:	89 d0                	mov    eax,edx
    4860:	88 45 e4             	mov    BYTE PTR [rbp-0x1c],al
    4863:	8b 45 ec             	mov    eax,DWORD PTR [rbp-0x14]
    4866:	89 c2                	mov    edx,eax
    4868:	be 0a 00 00 00       	mov    esi,0xa
    486d:	bf 00 00 00 00       	mov    edi,0x0
    4872:	e8 9b fe ff ff       	call   4712 <__cxa_finalize@plt+0x1b02>
    4877:	83 f0 01             	xor    eax,0x1
    487a:	84 c0                	test   al,al
    487c:	75 1d                	jne    489b <__cxa_finalize@plt+0x1c8b>
    487e:	8b 45 ec             	mov    eax,DWORD PTR [rbp-0x14]
    4881:	48 98                	cdqe   
    4883:	48 8d 14 c5 00 00 00 	lea    rdx,[rax*8+0x0]
    488a:	00 
    488b:	48 8d 05 6e 99 20 00 	lea    rax,[rip+0x20996e]        # 20e200 <_ZSt5wcout@@GLIBCXX_3.4+0x1a0>
    4892:	48 8b 04 02          	mov    rax,QWORD PTR [rdx+rax*1]
    4896:	48 85 c0             	test   rax,rax
    4899:	75 07                	jne    48a2 <__cxa_finalize@plt+0x1c92>
    489b:	b8 01 00 00 00       	mov    eax,0x1
    48a0:	eb 05                	jmp    48a7 <__cxa_finalize@plt+0x1c97>
    48a2:	b8 00 00 00 00       	mov    eax,0x0
    48a7:	84 c0                	test   al,al
    48a9:	74 32                	je     48dd <__cxa_finalize@plt+0x1ccd>
    48ab:	48 8d 35 22 4f 00 00 	lea    rsi,[rip+0x4f22]        # 97d4 <__cxa_finalize@plt+0x6bc4>
    48b2:	48 8d 3d a7 97 20 00 	lea    rdi,[rip+0x2097a7]        # 20e060 <_ZSt5wcout@@GLIBCXX_3.4>
    48b9:	e8 e2 de ff ff       	call   27a0 <_ZStlsIwSt11char_traitsIwEERSt13basic_ostreamIT_T0_ES6_PKc@plt>
    48be:	48 89 c2             	mov    rdx,rax
    48c1:	48 8b 05 08 97 20 00 	mov    rax,QWORD PTR [rip+0x209708]        # 20dfd0 <_ZSt4endlIwSt11char_traitsIwEERSt13basic_ostreamIT_T0_ES6_@GLIBCXX_3.4>
    48c8:	48 89 c6             	mov    rsi,rax
    48cb:	48 89 d7             	mov    rdi,rdx
    48ce:	e8 ad e2 ff ff       	call   2b80 <_ZNSt13basic_ostreamIwSt11char_traitsIwEElsEPFRS2_S3_E@plt>
    48d3:	bf 01 00 00 00       	mov    edi,0x1
    48d8:	e8 63 e1 ff ff       	call   2a40 <exit@plt>
    48dd:	8b 45 ec             	mov    eax,DWORD PTR [rbp-0x14]
    48e0:	48 98                	cdqe   
    48e2:	48 8d 14 c5 00 00 00 	lea    rdx,[rax*8+0x0]
    48e9:	00 
    48ea:	48 8d 05 0f 99 20 00 	lea    rax,[rip+0x20990f]        # 20e200 <_ZSt5wcout@@GLIBCXX_3.4+0x1a0>
    48f1:	48 8b 04 02          	mov    rax,QWORD PTR [rdx+rax*1]
    48f5:	48 89 45 f8          	mov    QWORD PTR [rbp-0x8],rax
    48f9:	48 8b 45 f8          	mov    rax,QWORD PTR [rbp-0x8]
    48fd:	48 8b 00             	mov    rax,QWORD PTR [rax]
    4900:	89 c1                	mov    ecx,eax
    4902:	8b 45 e8             	mov    eax,DWORD PTR [rbp-0x18]
    4905:	89 c2                	mov    edx,eax
    4907:	89 ce                	mov    esi,ecx
    4909:	bf 00 00 00 00       	mov    edi,0x0
    490e:	e8 ff fd ff ff       	call   4712 <__cxa_finalize@plt+0x1b02>
    4913:	83 f0 01             	xor    eax,0x1
    4916:	84 c0                	test   al,al
    4918:	74 32                	je     494c <__cxa_finalize@plt+0x1d3c>
    491a:	48 8d 35 e4 4e 00 00 	lea    rsi,[rip+0x4ee4]        # 9805 <__cxa_finalize@plt+0x6bf5>
    4921:	48 8d 3d 38 97 20 00 	lea    rdi,[rip+0x209738]        # 20e060 <_ZSt5wcout@@GLIBCXX_3.4>
    4928:	e8 73 de ff ff       	call   27a0 <_ZStlsIwSt11char_traitsIwEERSt13basic_ostreamIT_T0_ES6_PKc@plt>
    492d:	48 89 c2             	mov    rdx,rax
    4930:	48 8b 05 99 96 20 00 	mov    rax,QWORD PTR [rip+0x209699]        # 20dfd0 <_ZSt4endlIwSt11char_traitsIwEERSt13basic_ostreamIT_T0_ES6_@GLIBCXX_3.4>
    4937:	48 89 c6             	mov    rsi,rax
    493a:	48 89 d7             	mov    rdi,rdx
    493d:	e8 3e e2 ff ff       	call   2b80 <_ZNSt13basic_ostreamIwSt11char_traitsIwEElsEPFRS2_S3_E@plt>
    4942:	bf 01 00 00 00       	mov    edi,0x1
    4947:	e8 f4 e0 ff ff       	call   2a40 <exit@plt>
    494c:	48 8b 45 f8          	mov    rax,QWORD PTR [rbp-0x8]
    4950:	48 8b 50 08          	mov    rdx,QWORD PTR [rax+0x8]
    4954:	8b 45 e8             	mov    eax,DWORD PTR [rbp-0x18]
    4957:	48 98                	cdqe   
    4959:	48 01 c2             	add    rdx,rax
    495c:	0f b6 45 e4          	movzx  eax,BYTE PTR [rbp-0x1c]
    4960:	88 02                	mov    BYTE PTR [rdx],al
    4962:	90                   	nop
    4963:	c9                   	leave  
    4964:	c3                   	ret    
    4965:	55                   	push   rbp
    4966:	48 89 e5             	mov    rbp,rsp
    4969:	48 83 ec 20          	sub    rsp,0x20
    496d:	89 7d ec             	mov    DWORD PTR [rbp-0x14],edi
    4970:	8b 45 ec             	mov    eax,DWORD PTR [rbp-0x14]
    4973:	89 c2                	mov    edx,eax
    4975:	be 0a 00 00 00       	mov    esi,0xa
    497a:	bf 00 00 00 00       	mov    edi,0x0
    497f:	e8 8e fd ff ff       	call   4712 <__cxa_finalize@plt+0x1b02>
    4984:	83 f0 01             	xor    eax,0x1
    4987:	84 c0                	test   al,al
    4989:	75 1d                	jne    49a8 <__cxa_finalize@plt+0x1d98>
    498b:	8b 45 ec             	mov    eax,DWORD PTR [rbp-0x14]
    498e:	48 98                	cdqe   
    4990:	48 8d 14 c5 00 00 00 	lea    rdx,[rax*8+0x0]
    4997:	00 
    4998:	48 8d 05 61 98 20 00 	lea    rax,[rip+0x209861]        # 20e200 <_ZSt5wcout@@GLIBCXX_3.4+0x1a0>
    499f:	48 8b 04 02          	mov    rax,QWORD PTR [rdx+rax*1]
    49a3:	48 85 c0             	test   rax,rax
    49a6:	75 07                	jne    49af <__cxa_finalize@plt+0x1d9f>
    49a8:	b8 01 00 00 00       	mov    eax,0x1
    49ad:	eb 05                	jmp    49b4 <__cxa_finalize@plt+0x1da4>
    49af:	b8 00 00 00 00       	mov    eax,0x0
    49b4:	84 c0                	test   al,al
    49b6:	74 32                	je     49ea <__cxa_finalize@plt+0x1dda>
    49b8:	48 8d 35 15 4e 00 00 	lea    rsi,[rip+0x4e15]        # 97d4 <__cxa_finalize@plt+0x6bc4>
    49bf:	48 8d 3d 9a 96 20 00 	lea    rdi,[rip+0x20969a]        # 20e060 <_ZSt5wcout@@GLIBCXX_3.4>
    49c6:	e8 d5 dd ff ff       	call   27a0 <_ZStlsIwSt11char_traitsIwEERSt13basic_ostreamIT_T0_ES6_PKc@plt>
    49cb:	48 89 c2             	mov    rdx,rax
    49ce:	48 8b 05 fb 95 20 00 	mov    rax,QWORD PTR [rip+0x2095fb]        # 20dfd0 <_ZSt4endlIwSt11char_traitsIwEERSt13basic_ostreamIT_T0_ES6_@GLIBCXX_3.4>
    49d5:	48 89 c6             	mov    rsi,rax
    49d8:	48 89 d7             	mov    rdi,rdx
    49db:	e8 a0 e1 ff ff       	call   2b80 <_ZNSt13basic_ostreamIwSt11char_traitsIwEElsEPFRS2_S3_E@plt>
    49e0:	bf 01 00 00 00       	mov    edi,0x1
    49e5:	e8 56 e0 ff ff       	call   2a40 <exit@plt>
    49ea:	8b 45 ec             	mov    eax,DWORD PTR [rbp-0x14]
    49ed:	48 98                	cdqe   
    49ef:	48 8d 14 c5 00 00 00 	lea    rdx,[rax*8+0x0]
    49f6:	00 
    49f7:	48 8d 05 02 98 20 00 	lea    rax,[rip+0x209802]        # 20e200 <_ZSt5wcout@@GLIBCXX_3.4+0x1a0>
    49fe:	48 8b 04 02          	mov    rax,QWORD PTR [rdx+rax*1]
    4a02:	48 89 45 f8          	mov    QWORD PTR [rbp-0x8],rax
    4a06:	48 8b 45 f8          	mov    rax,QWORD PTR [rbp-0x8]
    4a0a:	48 8b 10             	mov    rdx,QWORD PTR [rax]
    4a0d:	48 8b 45 f8          	mov    rax,QWORD PTR [rbp-0x8]
    4a11:	48 8b 40 08          	mov    rax,QWORD PTR [rax+0x8]
    4a15:	48 89 c6             	mov    rsi,rax
    4a18:	bf 00 00 00 00       	mov    edi,0x0
    4a1d:	e8 7e e0 ff ff       	call   2aa0 <read@plt>
    4a22:	90                   	nop
    4a23:	c9                   	leave  
    4a24:	c3                   	ret    
    4a25:	55                   	push   rbp
    4a26:	48 89 e5             	mov    rbp,rsp
    4a29:	48 83 ec 20          	sub    rsp,0x20
    4a2d:	89 7d ec             	mov    DWORD PTR [rbp-0x14],edi
    4a30:	8b 45 ec             	mov    eax,DWORD PTR [rbp-0x14]
    4a33:	89 c2                	mov    edx,eax
    4a35:	be 0a 00 00 00       	mov    esi,0xa
    4a3a:	bf 00 00 00 00       	mov    edi,0x0
    4a3f:	e8 ce fc ff ff       	call   4712 <__cxa_finalize@plt+0x1b02>
    4a44:	83 f0 01             	xor    eax,0x1
    4a47:	84 c0                	test   al,al
    4a49:	75 1d                	jne    4a68 <__cxa_finalize@plt+0x1e58>
    4a4b:	8b 45 ec             	mov    eax,DWORD PTR [rbp-0x14]
    4a4e:	48 98                	cdqe   
    4a50:	48 8d 14 c5 00 00 00 	lea    rdx,[rax*8+0x0]
    4a57:	00 
    4a58:	48 8d 05 a1 97 20 00 	lea    rax,[rip+0x2097a1]        # 20e200 <_ZSt5wcout@@GLIBCXX_3.4+0x1a0>
    4a5f:	48 8b 04 02          	mov    rax,QWORD PTR [rdx+rax*1]
    4a63:	48 85 c0             	test   rax,rax
    4a66:	75 07                	jne    4a6f <__cxa_finalize@plt+0x1e5f>
    4a68:	b8 01 00 00 00       	mov    eax,0x1
    4a6d:	eb 05                	jmp    4a74 <__cxa_finalize@plt+0x1e64>
    4a6f:	b8 00 00 00 00       	mov    eax,0x0
    4a74:	84 c0                	test   al,al
    4a76:	74 32                	je     4aaa <__cxa_finalize@plt+0x1e9a>
    4a78:	48 8d 35 55 4d 00 00 	lea    rsi,[rip+0x4d55]        # 97d4 <__cxa_finalize@plt+0x6bc4>
    4a7f:	48 8d 3d da 95 20 00 	lea    rdi,[rip+0x2095da]        # 20e060 <_ZSt5wcout@@GLIBCXX_3.4>
    4a86:	e8 15 dd ff ff       	call   27a0 <_ZStlsIwSt11char_traitsIwEERSt13basic_ostreamIT_T0_ES6_PKc@plt>
    4a8b:	48 89 c2             	mov    rdx,rax
    4a8e:	48 8b 05 3b 95 20 00 	mov    rax,QWORD PTR [rip+0x20953b]        # 20dfd0 <_ZSt4endlIwSt11char_traitsIwEERSt13basic_ostreamIT_T0_ES6_@GLIBCXX_3.4>
    4a95:	48 89 c6             	mov    rsi,rax
    4a98:	48 89 d7             	mov    rdi,rdx
    4a9b:	e8 e0 e0 ff ff       	call   2b80 <_ZNSt13basic_ostreamIwSt11char_traitsIwEElsEPFRS2_S3_E@plt>
    4aa0:	bf 01 00 00 00       	mov    edi,0x1
    4aa5:	e8 96 df ff ff       	call   2a40 <exit@plt>
    4aaa:	8b 45 ec             	mov    eax,DWORD PTR [rbp-0x14]
    4aad:	48 98                	cdqe   
    4aaf:	48 8d 14 c5 00 00 00 	lea    rdx,[rax*8+0x0]
    4ab6:	00 
    4ab7:	48 8d 05 42 97 20 00 	lea    rax,[rip+0x209742]        # 20e200 <_ZSt5wcout@@GLIBCXX_3.4+0x1a0>
    4abe:	48 8b 04 02          	mov    rax,QWORD PTR [rdx+rax*1]
    4ac2:	48 89 45 f8          	mov    QWORD PTR [rbp-0x8],rax
    4ac6:	48 8b 45 f8          	mov    rax,QWORD PTR [rbp-0x8]
    4aca:	48 8b 40 08          	mov    rax,QWORD PTR [rax+0x8]
    4ace:	48 89 c7             	mov    rdi,rax
    4ad1:	e8 9a dd ff ff       	call   2870 <strlen@plt>
    4ad6:	48 89 c2             	mov    rdx,rax
    4ad9:	48 8b 45 f8          	mov    rax,QWORD PTR [rbp-0x8]
    4add:	48 8b 40 08          	mov    rax,QWORD PTR [rax+0x8]
    4ae1:	48 89 c6             	mov    rsi,rax
    4ae4:	bf 01 00 00 00       	mov    edi,0x1
    4ae9:	e8 32 dd ff ff       	call   2820 <write@plt>
    4aee:	90                   	nop
    4aef:	c9                   	leave  
    4af0:	c3                   	ret    
    4af1:	55                   	push   rbp
    4af2:	48 89 e5             	mov    rbp,rsp
    4af5:	48 83 ec 20          	sub    rsp,0x20
    4af9:	48 89 7d e8          	mov    QWORD PTR [rbp-0x18],rdi
    4afd:	64 48 8b 04 25 28 00 	mov    rax,QWORD PTR fs:0x28
    4b04:	00 00 
    4b06:	48 89 45 f8          	mov    QWORD PTR [rbp-0x8],rax
    4b0a:	31 c0                	xor    eax,eax
    4b0c:	48 8b 45 e8          	mov    rax,QWORD PTR [rbp-0x18]
    4b10:	8b 00                	mov    eax,DWORD PTR [rax]
    4b12:	83 f8 ff             	cmp    eax,0xffffffff
    4b15:	74 48                	je     4b5f <__cxa_finalize@plt+0x1f4f>
    4b17:	48 8b 45 e8          	mov    rax,QWORD PTR [rbp-0x18]
    4b1b:	8b 00                	mov    eax,DWORD PTR [rax]
    4b1d:	8d 48 ff             	lea    ecx,[rax-0x1]
    4b20:	48 8b 55 e8          	mov    rdx,QWORD PTR [rbp-0x18]
    4b24:	89 0a                	mov    DWORD PTR [rdx],ecx
    4b26:	48 98                	cdqe   
    4b28:	48 8d 14 c5 00 00 00 	lea    rdx,[rax*8+0x0]
    4b2f:	00 
    4b30:	48 8d 05 29 97 20 00 	lea    rax,[rip+0x209729]        # 20e260 <_ZSt5wcout@@GLIBCXX_3.4+0x200>
    4b37:	48 8b 04 02          	mov    rax,QWORD PTR [rdx+rax*1]
    4b3b:	88 45 f7             	mov    BYTE PTR [rbp-0x9],al
    4b3e:	0f b6 45 f7          	movzx  eax,BYTE PTR [rbp-0x9]
    4b42:	84 c0                	test   al,al
    4b44:	74 18                	je     4b5e <__cxa_finalize@plt+0x1f4e>
    4b46:	48 8d 45 f7          	lea    rax,[rbp-0x9]
    4b4a:	ba 01 00 00 00       	mov    edx,0x1
    4b4f:	48 89 c6             	mov    rsi,rax
    4b52:	bf 01 00 00 00       	mov    edi,0x1
    4b57:	e8 c4 dc ff ff       	call   2820 <write@plt>
    4b5c:	eb ae                	jmp    4b0c <__cxa_finalize@plt+0x1efc>
    4b5e:	90                   	nop
    4b5f:	48 8b 45 f8          	mov    rax,QWORD PTR [rbp-0x8]
    4b63:	64 48 33 04 25 28 00 	xor    rax,QWORD PTR fs:0x28
    4b6a:	00 00 
    4b6c:	74 05                	je     4b73 <__cxa_finalize@plt+0x1f63>
    4b6e:	e8 8d de ff ff       	call   2a00 <__stack_chk_fail@plt>
    4b73:	c9                   	leave  
    4b74:	c3                   	ret    
    4b75:	55                   	push   rbp
    4b76:	48 89 e5             	mov    rbp,rsp
    4b79:	48 83 ec 10          	sub    rsp,0x10
    4b7d:	48 89 7d f8          	mov    QWORD PTR [rbp-0x8],rdi
    4b81:	48 8b 45 f8          	mov    rax,QWORD PTR [rbp-0x8]
    4b85:	48 89 c6             	mov    rsi,rax
    4b88:	48 8d 3d d1 94 20 00 	lea    rdi,[rip+0x2094d1]        # 20e060 <_ZSt5wcout@@GLIBCXX_3.4>
    4b8f:	e8 ac dd ff ff       	call   2940 <_ZNSt13basic_ostreamIwSt11char_traitsIwEElsEl@plt>
    4b94:	90                   	nop
    4b95:	c9                   	leave  
    4b96:	c3                   	ret    
    4b97:	55                   	push   rbp
    4b98:	48 89 e5             	mov    rbp,rsp
    4b9b:	48 83 ec 20          	sub    rsp,0x20
    4b9f:	48 89 7d e8          	mov    QWORD PTR [rbp-0x18],rdi
    4ba3:	48 81 7d e8 dc 05 00 	cmp    QWORD PTR [rbp-0x18],0x5dc
    4baa:	00 
    4bab:	76 44                	jbe    4bf1 <__cxa_finalize@plt+0x1fe1>
    4bad:	48 8d 35 6f 4c 00 00 	lea    rsi,[rip+0x4c6f]        # 9823 <__cxa_finalize@plt+0x6c13>
    4bb4:	48 8d 3d a5 94 20 00 	lea    rdi,[rip+0x2094a5]        # 20e060 <_ZSt5wcout@@GLIBCXX_3.4>
    4bbb:	e8 e0 db ff ff       	call   27a0 <_ZStlsIwSt11char_traitsIwEERSt13basic_ostreamIT_T0_ES6_PKc@plt>
    4bc0:	48 89 c2             	mov    rdx,rax
    4bc3:	48 8b 45 e8          	mov    rax,QWORD PTR [rbp-0x18]
    4bc7:	48 89 c6             	mov    rsi,rax
    4bca:	48 89 d7             	mov    rdi,rdx
    4bcd:	e8 fe dc ff ff       	call   28d0 <_ZNSt13basic_ostreamIwSt11char_traitsIwEElsEm@plt>
    4bd2:	48 89 c2             	mov    rdx,rax
    4bd5:	48 8b 05 f4 93 20 00 	mov    rax,QWORD PTR [rip+0x2093f4]        # 20dfd0 <_ZSt4endlIwSt11char_traitsIwEERSt13basic_ostreamIT_T0_ES6_@GLIBCXX_3.4>
    4bdc:	48 89 c6             	mov    rsi,rax
    4bdf:	48 89 d7             	mov    rdi,rdx
    4be2:	e8 99 df ff ff       	call   2b80 <_ZNSt13basic_ostreamIwSt11char_traitsIwEElsEPFRS2_S3_E@plt>
    4be7:	bf 01 00 00 00       	mov    edi,0x1
    4bec:	e8 4f de ff ff       	call   2a40 <exit@plt>
    4bf1:	bf 10 00 00 00       	mov    edi,0x10
    4bf6:	e8 a5 dd ff ff       	call   29a0 <_Znwm@plt>
    4bfb:	48 89 45 f8          	mov    QWORD PTR [rbp-0x8],rax
    4bff:	48 8b 45 f8          	mov    rax,QWORD PTR [rbp-0x8]
    4c03:	48 8b 55 e8          	mov    rdx,QWORD PTR [rbp-0x18]
    4c07:	48 89 10             	mov    QWORD PTR [rax],rdx
    4c0a:	48 8b 45 e8          	mov    rax,QWORD PTR [rbp-0x18]
    4c0e:	48 83 c0 01          	add    rax,0x1
    4c12:	48 89 c7             	mov    rdi,rax
    4c15:	e8 46 db ff ff       	call   2760 <_Znam@plt>
    4c1a:	48 89 c2             	mov    rdx,rax
    4c1d:	48 8b 45 f8          	mov    rax,QWORD PTR [rbp-0x8]
    4c21:	48 89 50 08          	mov    QWORD PTR [rax+0x8],rdx
    4c25:	48 8b 45 e8          	mov    rax,QWORD PTR [rbp-0x18]
    4c29:	48 8d 50 01          	lea    rdx,[rax+0x1]
    4c2d:	48 8b 45 f8          	mov    rax,QWORD PTR [rbp-0x8]
    4c31:	48 8b 40 08          	mov    rax,QWORD PTR [rax+0x8]
    4c35:	be 00 00 00 00       	mov    esi,0x0
    4c3a:	48 89 c7             	mov    rdi,rax
    4c3d:	e8 6e dc ff ff       	call   28b0 <memset@plt>
    4c42:	c6 45 f3 00          	mov    BYTE PTR [rbp-0xd],0x0
    4c46:	c7 45 f4 00 00 00 00 	mov    DWORD PTR [rbp-0xc],0x0
    4c4d:	83 7d f4 09          	cmp    DWORD PTR [rbp-0xc],0x9
    4c51:	7f 45                	jg     4c98 <__cxa_finalize@plt+0x2088>
    4c53:	8b 45 f4             	mov    eax,DWORD PTR [rbp-0xc]
    4c56:	48 98                	cdqe   
    4c58:	48 8d 14 c5 00 00 00 	lea    rdx,[rax*8+0x0]
    4c5f:	00 
    4c60:	48 8d 05 99 95 20 00 	lea    rax,[rip+0x209599]        # 20e200 <_ZSt5wcout@@GLIBCXX_3.4+0x1a0>
    4c67:	48 8b 04 02          	mov    rax,QWORD PTR [rdx+rax*1]
    4c6b:	48 85 c0             	test   rax,rax
    4c6e:	75 22                	jne    4c92 <__cxa_finalize@plt+0x2082>
    4c70:	8b 45 f4             	mov    eax,DWORD PTR [rbp-0xc]
    4c73:	48 98                	cdqe   
    4c75:	48 8d 0c c5 00 00 00 	lea    rcx,[rax*8+0x0]
    4c7c:	00 
    4c7d:	48 8d 05 7c 95 20 00 	lea    rax,[rip+0x20957c]        # 20e200 <_ZSt5wcout@@GLIBCXX_3.4+0x1a0>
    4c84:	48 8b 55 f8          	mov    rdx,QWORD PTR [rbp-0x8]
    4c88:	48 89 14 01          	mov    QWORD PTR [rcx+rax*1],rdx
    4c8c:	c6 45 f3 01          	mov    BYTE PTR [rbp-0xd],0x1
    4c90:	eb 06                	jmp    4c98 <__cxa_finalize@plt+0x2088>
    4c92:	83 45 f4 01          	add    DWORD PTR [rbp-0xc],0x1
    4c96:	eb b5                	jmp    4c4d <__cxa_finalize@plt+0x203d>
    4c98:	0f b6 45 f3          	movzx  eax,BYTE PTR [rbp-0xd]
    4c9c:	83 f0 01             	xor    eax,0x1
    4c9f:	84 c0                	test   al,al
    4ca1:	74 29                	je     4ccc <__cxa_finalize@plt+0x20bc>
    4ca3:	48 8b 45 f8          	mov    rax,QWORD PTR [rbp-0x8]
    4ca7:	48 8b 40 08          	mov    rax,QWORD PTR [rax+0x8]
    4cab:	48 85 c0             	test   rax,rax
    4cae:	74 10                	je     4cc0 <__cxa_finalize@plt+0x20b0>
    4cb0:	48 8b 45 f8          	mov    rax,QWORD PTR [rbp-0x8]
    4cb4:	48 8b 40 08          	mov    rax,QWORD PTR [rax+0x8]
    4cb8:	48 89 c7             	mov    rdi,rax
    4cbb:	e8 b0 dd ff ff       	call   2a70 <_ZdaPv@plt>
    4cc0:	48 8b 45 f8          	mov    rax,QWORD PTR [rbp-0x8]
    4cc4:	48 89 c7             	mov    rdi,rax
    4cc7:	e8 c4 dc ff ff       	call   2990 <_ZdlPv@plt>
    4ccc:	90                   	nop
    4ccd:	c9                   	leave  
    4cce:	c3                   	ret    
    4ccf:	55                   	push   rbp
    4cd0:	48 89 e5             	mov    rbp,rsp
    4cd3:	48 83 ec 20          	sub    rsp,0x20
    4cd7:	89 7d ec             	mov    DWORD PTR [rbp-0x14],edi
    4cda:	8b 45 ec             	mov    eax,DWORD PTR [rbp-0x14]
    4cdd:	89 c2                	mov    edx,eax
    4cdf:	be 0a 00 00 00       	mov    esi,0xa
    4ce4:	bf 00 00 00 00       	mov    edi,0x0
    4ce9:	e8 24 fa ff ff       	call   4712 <__cxa_finalize@plt+0x1b02>
    4cee:	83 f0 01             	xor    eax,0x1
    4cf1:	84 c0                	test   al,al
    4cf3:	75 1d                	jne    4d12 <__cxa_finalize@plt+0x2102>
    4cf5:	8b 45 ec             	mov    eax,DWORD PTR [rbp-0x14]
    4cf8:	48 98                	cdqe   
    4cfa:	48 8d 14 c5 00 00 00 	lea    rdx,[rax*8+0x0]
    4d01:	00 
    4d02:	48 8d 05 f7 94 20 00 	lea    rax,[rip+0x2094f7]        # 20e200 <_ZSt5wcout@@GLIBCXX_3.4+0x1a0>
    4d09:	48 8b 04 02          	mov    rax,QWORD PTR [rdx+rax*1]
    4d0d:	48 85 c0             	test   rax,rax
    4d10:	75 07                	jne    4d19 <__cxa_finalize@plt+0x2109>
    4d12:	b8 01 00 00 00       	mov    eax,0x1
    4d17:	eb 05                	jmp    4d1e <__cxa_finalize@plt+0x210e>
    4d19:	b8 00 00 00 00       	mov    eax,0x0
    4d1e:	84 c0                	test   al,al
    4d20:	74 32                	je     4d54 <__cxa_finalize@plt+0x2144>
    4d22:	48 8d 35 ab 4a 00 00 	lea    rsi,[rip+0x4aab]        # 97d4 <__cxa_finalize@plt+0x6bc4>
    4d29:	48 8d 3d 30 93 20 00 	lea    rdi,[rip+0x209330]        # 20e060 <_ZSt5wcout@@GLIBCXX_3.4>
    4d30:	e8 6b da ff ff       	call   27a0 <_ZStlsIwSt11char_traitsIwEERSt13basic_ostreamIT_T0_ES6_PKc@plt>
    4d35:	48 89 c2             	mov    rdx,rax
    4d38:	48 8b 05 91 92 20 00 	mov    rax,QWORD PTR [rip+0x209291]        # 20dfd0 <_ZSt4endlIwSt11char_traitsIwEERSt13basic_ostreamIT_T0_ES6_@GLIBCXX_3.4>
    4d3f:	48 89 c6             	mov    rsi,rax
    4d42:	48 89 d7             	mov    rdi,rdx
    4d45:	e8 36 de ff ff       	call   2b80 <_ZNSt13basic_ostreamIwSt11char_traitsIwEElsEPFRS2_S3_E@plt>
    4d4a:	bf 01 00 00 00       	mov    edi,0x1
    4d4f:	e8 ec dc ff ff       	call   2a40 <exit@plt>
    4d54:	8b 45 ec             	mov    eax,DWORD PTR [rbp-0x14]
    4d57:	48 98                	cdqe   
    4d59:	48 8d 14 c5 00 00 00 	lea    rdx,[rax*8+0x0]
    4d60:	00 
    4d61:	48 8d 05 98 94 20 00 	lea    rax,[rip+0x209498]        # 20e200 <_ZSt5wcout@@GLIBCXX_3.4+0x1a0>
    4d68:	48 8b 04 02          	mov    rax,QWORD PTR [rdx+rax*1]
    4d6c:	48 89 45 f8          	mov    QWORD PTR [rbp-0x8],rax
    4d70:	48 8b 45 f8          	mov    rax,QWORD PTR [rbp-0x8]
    4d74:	48 8b 40 08          	mov    rax,QWORD PTR [rax+0x8]
    4d78:	48 85 c0             	test   rax,rax
    4d7b:	74 10                	je     4d8d <__cxa_finalize@plt+0x217d>
    4d7d:	48 8b 45 f8          	mov    rax,QWORD PTR [rbp-0x8]
    4d81:	48 8b 40 08          	mov    rax,QWORD PTR [rax+0x8]
    4d85:	48 89 c7             	mov    rdi,rax
    4d88:	e8 e3 dc ff ff       	call   2a70 <_ZdaPv@plt>
    4d8d:	48 8b 45 f8          	mov    rax,QWORD PTR [rbp-0x8]
    4d91:	48 89 c7             	mov    rdi,rax
    4d94:	e8 f7 db ff ff       	call   2990 <_ZdlPv@plt>
    4d99:	8b 45 ec             	mov    eax,DWORD PTR [rbp-0x14]
    4d9c:	48 98                	cdqe   
    4d9e:	48 8d 14 c5 00 00 00 	lea    rdx,[rax*8+0x0]
    4da5:	00 
    4da6:	48 8d 05 53 94 20 00 	lea    rax,[rip+0x209453]        # 20e200 <_ZSt5wcout@@GLIBCXX_3.4+0x1a0>
    4dad:	48 c7 04 02 00 00 00 	mov    QWORD PTR [rdx+rax*1],0x0
    4db4:	00 
    4db5:	90                   	nop
    4db6:	c9                   	leave  
    4db7:	c3                   	ret    
    4db8:	55                   	push   rbp
    4db9:	48 89 e5             	mov    rbp,rsp
    4dbc:	48 83 ec 40          	sub    rsp,0x40
    4dc0:	48 89 7d c8          	mov    QWORD PTR [rbp-0x38],rdi
    4dc4:	64 48 8b 04 25 28 00 	mov    rax,QWORD PTR fs:0x28
    4dcb:	00 00 
    4dcd:	48 89 45 f8          	mov    QWORD PTR [rbp-0x8],rax
    4dd1:	31 c0                	xor    eax,eax
    4dd3:	c7 45 d4 ff ff ff ff 	mov    DWORD PTR [rbp-0x2c],0xffffffff
    4dda:	48 8b 45 c8          	mov    rax,QWORD PTR [rbp-0x38]
    4dde:	48 89 c7             	mov    rdi,rax
    4de1:	e8 6a dd ff ff       	call   2b50 <_ZNKSt7__cxx1112basic_stringIwSt11char_traitsIwESaIwEE6lengthEv@plt>
    4de6:	89 45 e4             	mov    DWORD PTR [rbp-0x1c],eax
    4de9:	c7 45 dc 00 00 00 00 	mov    DWORD PTR [rbp-0x24],0x0
    4df0:	48 c7 45 e8 00 00 00 	mov    QWORD PTR [rbp-0x18],0x0
    4df7:	00 
    4df8:	48 c7 45 f0 00 00 00 	mov    QWORD PTR [rbp-0x10],0x0
    4dff:	00 
    4e00:	c6 45 d3 00          	mov    BYTE PTR [rbp-0x2d],0x0
    4e04:	c7 45 e0 00 00 00 00 	mov    DWORD PTR [rbp-0x20],0x0
    4e0b:	8b 45 dc             	mov    eax,DWORD PTR [rbp-0x24]
    4e0e:	3b 45 e4             	cmp    eax,DWORD PTR [rbp-0x1c]
    4e11:	0f 8d 21 09 00 00    	jge    5738 <__cxa_finalize@plt+0x2b28>
    4e17:	83 45 e0 01          	add    DWORD PTR [rbp-0x20],0x1
    4e1b:	81 7d e0 40 42 0f 00 	cmp    DWORD PTR [rbp-0x20],0xf4240
    4e22:	76 32                	jbe    4e56 <__cxa_finalize@plt+0x2246>
    4e24:	48 8d 35 1d 4a 00 00 	lea    rsi,[rip+0x4a1d]        # 9848 <__cxa_finalize@plt+0x6c38>
    4e2b:	48 8d 3d 2e 92 20 00 	lea    rdi,[rip+0x20922e]        # 20e060 <_ZSt5wcout@@GLIBCXX_3.4>
    4e32:	e8 69 d9 ff ff       	call   27a0 <_ZStlsIwSt11char_traitsIwEERSt13basic_ostreamIT_T0_ES6_PKc@plt>
    4e37:	48 89 c2             	mov    rdx,rax
    4e3a:	48 8b 05 8f 91 20 00 	mov    rax,QWORD PTR [rip+0x20918f]        # 20dfd0 <_ZSt4endlIwSt11char_traitsIwEERSt13basic_ostreamIT_T0_ES6_@GLIBCXX_3.4>
    4e41:	48 89 c6             	mov    rsi,rax
    4e44:	48 89 d7             	mov    rdi,rdx
    4e47:	e8 34 dd ff ff       	call   2b80 <_ZNSt13basic_ostreamIwSt11char_traitsIwEElsEPFRS2_S3_E@plt>
    4e4c:	bf 01 00 00 00       	mov    edi,0x1
    4e51:	e8 ea db ff ff       	call   2a40 <exit@plt>
    4e56:	8b 45 dc             	mov    eax,DWORD PTR [rbp-0x24]
    4e59:	48 63 d0             	movsxd rdx,eax
    4e5c:	48 8b 45 c8          	mov    rax,QWORD PTR [rbp-0x38]
    4e60:	48 89 d6             	mov    rsi,rdx
    4e63:	48 89 c7             	mov    rdi,rax
    4e66:	e8 e5 db ff ff       	call   2a50 <_ZNSt7__cxx1112basic_stringIwSt11char_traitsIwESaIwEEixEm@plt>
    4e6b:	8b 00                	mov    eax,DWORD PTR [rax]
    4e6d:	89 45 d8             	mov    DWORD PTR [rbp-0x28],eax
    4e70:	48 8d 45 d8          	lea    rax,[rbp-0x28]
    4e74:	48 89 c6             	mov    rsi,rax
    4e77:	48 8d 3d 02 93 20 00 	lea    rdi,[rip+0x209302]        # 20e180 <_ZSt5wcout@@GLIBCXX_3.4+0x120>
    4e7e:	e8 85 12 00 00       	call   6108 <__cxa_finalize@plt+0x34f8>
    4e83:	8b 00                	mov    eax,DWORD PTR [rax]
    4e85:	83 f8 17             	cmp    eax,0x17
    4e88:	0f 87 54 08 00 00    	ja     56e2 <__cxa_finalize@plt+0x2ad2>
    4e8e:	89 c0                	mov    eax,eax
    4e90:	48 8d 14 85 00 00 00 	lea    rdx,[rax*4+0x0]
    4e97:	00 
    4e98:	48 8d 05 85 4a 00 00 	lea    rax,[rip+0x4a85]        # 9924 <__cxa_finalize@plt+0x6d14>
    4e9f:	8b 04 02             	mov    eax,DWORD PTR [rdx+rax*1]
    4ea2:	48 63 d0             	movsxd rdx,eax
    4ea5:	48 8d 05 78 4a 00 00 	lea    rax,[rip+0x4a78]        # 9924 <__cxa_finalize@plt+0x6d14>
    4eac:	48 01 d0             	add    rax,rdx
    4eaf:	ff e0                	jmp    rax
    4eb1:	83 45 dc 01          	add    DWORD PTR [rbp-0x24],0x1
    4eb5:	e9 51 ff ff ff       	jmp    4e0b <__cxa_finalize@plt+0x21fb>
    4eba:	8b 45 d4             	mov    eax,DWORD PTR [rbp-0x2c]
    4ebd:	8d 50 ff             	lea    edx,[rax-0x1]
    4ec0:	89 55 d4             	mov    DWORD PTR [rbp-0x2c],edx
    4ec3:	48 98                	cdqe   
    4ec5:	48 8d 14 c5 00 00 00 	lea    rdx,[rax*8+0x0]
    4ecc:	00 
    4ecd:	48 8d 05 8c 93 20 00 	lea    rax,[rip+0x20938c]        # 20e260 <_ZSt5wcout@@GLIBCXX_3.4+0x200>
    4ed4:	48 8b 04 02          	mov    rax,QWORD PTR [rdx+rax*1]
    4ed8:	48 89 45 e8          	mov    QWORD PTR [rbp-0x18],rax
    4edc:	8b 45 d4             	mov    eax,DWORD PTR [rbp-0x2c]
    4edf:	8d 50 ff             	lea    edx,[rax-0x1]
    4ee2:	89 55 d4             	mov    DWORD PTR [rbp-0x2c],edx
    4ee5:	48 98                	cdqe   
    4ee7:	48 8d 14 c5 00 00 00 	lea    rdx,[rax*8+0x0]
    4eee:	00 
    4eef:	48 8d 05 6a 93 20 00 	lea    rax,[rip+0x20936a]        # 20e260 <_ZSt5wcout@@GLIBCXX_3.4+0x200>
    4ef6:	48 8b 04 02          	mov    rax,QWORD PTR [rdx+rax*1]
    4efa:	48 89 45 f0          	mov    QWORD PTR [rbp-0x10],rax
    4efe:	8b 45 d4             	mov    eax,DWORD PTR [rbp-0x2c]
    4f01:	83 c0 01             	add    eax,0x1
    4f04:	89 45 d4             	mov    DWORD PTR [rbp-0x2c],eax
    4f07:	8b 45 d4             	mov    eax,DWORD PTR [rbp-0x2c]
    4f0a:	48 8b 4d e8          	mov    rcx,QWORD PTR [rbp-0x18]
    4f0e:	48 8b 55 f0          	mov    rdx,QWORD PTR [rbp-0x10]
    4f12:	48 01 d1             	add    rcx,rdx
    4f15:	48 98                	cdqe   
    4f17:	48 8d 14 c5 00 00 00 	lea    rdx,[rax*8+0x0]
    4f1e:	00 
    4f1f:	48 8d 05 3a 93 20 00 	lea    rax,[rip+0x20933a]        # 20e260 <_ZSt5wcout@@GLIBCXX_3.4+0x200>
    4f26:	48 89 0c 02          	mov    QWORD PTR [rdx+rax*1],rcx
    4f2a:	83 45 dc 01          	add    DWORD PTR [rbp-0x24],0x1
    4f2e:	e9 00 08 00 00       	jmp    5733 <__cxa_finalize@plt+0x2b23>
    4f33:	8b 45 d4             	mov    eax,DWORD PTR [rbp-0x2c]
    4f36:	8d 50 ff             	lea    edx,[rax-0x1]
    4f39:	89 55 d4             	mov    DWORD PTR [rbp-0x2c],edx
    4f3c:	48 98                	cdqe   
    4f3e:	48 8d 14 c5 00 00 00 	lea    rdx,[rax*8+0x0]
    4f45:	00 
    4f46:	48 8d 05 13 93 20 00 	lea    rax,[rip+0x209313]        # 20e260 <_ZSt5wcout@@GLIBCXX_3.4+0x200>
    4f4d:	48 8b 04 02          	mov    rax,QWORD PTR [rdx+rax*1]
    4f51:	48 89 45 e8          	mov    QWORD PTR [rbp-0x18],rax
    4f55:	8b 45 d4             	mov    eax,DWORD PTR [rbp-0x2c]
    4f58:	8d 50 ff             	lea    edx,[rax-0x1]
    4f5b:	89 55 d4             	mov    DWORD PTR [rbp-0x2c],edx
    4f5e:	48 98                	cdqe   
    4f60:	48 8d 14 c5 00 00 00 	lea    rdx,[rax*8+0x0]
    4f67:	00 
    4f68:	48 8d 05 f1 92 20 00 	lea    rax,[rip+0x2092f1]        # 20e260 <_ZSt5wcout@@GLIBCXX_3.4+0x200>
    4f6f:	48 8b 04 02          	mov    rax,QWORD PTR [rdx+rax*1]
    4f73:	48 89 45 f0          	mov    QWORD PTR [rbp-0x10],rax
    4f77:	8b 45 d4             	mov    eax,DWORD PTR [rbp-0x2c]
    4f7a:	83 c0 01             	add    eax,0x1
    4f7d:	89 45 d4             	mov    DWORD PTR [rbp-0x2c],eax
    4f80:	8b 4d d4             	mov    ecx,DWORD PTR [rbp-0x2c]
    4f83:	48 8b 45 e8          	mov    rax,QWORD PTR [rbp-0x18]
    4f87:	48 2b 45 f0          	sub    rax,QWORD PTR [rbp-0x10]
    4f8b:	48 89 c2             	mov    rdx,rax
    4f8e:	48 63 c1             	movsxd rax,ecx
    4f91:	48 8d 0c c5 00 00 00 	lea    rcx,[rax*8+0x0]
    4f98:	00 
    4f99:	48 8d 05 c0 92 20 00 	lea    rax,[rip+0x2092c0]        # 20e260 <_ZSt5wcout@@GLIBCXX_3.4+0x200>
    4fa0:	48 89 14 01          	mov    QWORD PTR [rcx+rax*1],rdx
    4fa4:	83 45 dc 01          	add    DWORD PTR [rbp-0x24],0x1
    4fa8:	e9 86 07 00 00       	jmp    5733 <__cxa_finalize@plt+0x2b23>
    4fad:	8b 45 d4             	mov    eax,DWORD PTR [rbp-0x2c]
    4fb0:	8d 50 ff             	lea    edx,[rax-0x1]
    4fb3:	89 55 d4             	mov    DWORD PTR [rbp-0x2c],edx
    4fb6:	48 98                	cdqe   
    4fb8:	48 8d 14 c5 00 00 00 	lea    rdx,[rax*8+0x0]
    4fbf:	00 
    4fc0:	48 8d 05 99 92 20 00 	lea    rax,[rip+0x209299]        # 20e260 <_ZSt5wcout@@GLIBCXX_3.4+0x200>
    4fc7:	48 8b 04 02          	mov    rax,QWORD PTR [rdx+rax*1]
    4fcb:	48 89 45 e8          	mov    QWORD PTR [rbp-0x18],rax
    4fcf:	8b 45 d4             	mov    eax,DWORD PTR [rbp-0x2c]
    4fd2:	8d 50 ff             	lea    edx,[rax-0x1]
    4fd5:	89 55 d4             	mov    DWORD PTR [rbp-0x2c],edx
    4fd8:	48 98                	cdqe   
    4fda:	48 8d 14 c5 00 00 00 	lea    rdx,[rax*8+0x0]
    4fe1:	00 
    4fe2:	48 8d 05 77 92 20 00 	lea    rax,[rip+0x209277]        # 20e260 <_ZSt5wcout@@GLIBCXX_3.4+0x200>
    4fe9:	48 8b 04 02          	mov    rax,QWORD PTR [rdx+rax*1]
    4fed:	48 89 45 f0          	mov    QWORD PTR [rbp-0x10],rax
    4ff1:	8b 45 d4             	mov    eax,DWORD PTR [rbp-0x2c]
    4ff4:	83 c0 01             	add    eax,0x1
    4ff7:	89 45 d4             	mov    DWORD PTR [rbp-0x2c],eax
    4ffa:	8b 4d d4             	mov    ecx,DWORD PTR [rbp-0x2c]
    4ffd:	48 8b 45 e8          	mov    rax,QWORD PTR [rbp-0x18]
    5001:	48 0f af 45 f0       	imul   rax,QWORD PTR [rbp-0x10]
    5006:	48 89 c2             	mov    rdx,rax
    5009:	48 63 c1             	movsxd rax,ecx
    500c:	48 8d 0c c5 00 00 00 	lea    rcx,[rax*8+0x0]
    5013:	00 
    5014:	48 8d 05 45 92 20 00 	lea    rax,[rip+0x209245]        # 20e260 <_ZSt5wcout@@GLIBCXX_3.4+0x200>
    501b:	48 89 14 01          	mov    QWORD PTR [rcx+rax*1],rdx
    501f:	83 45 dc 01          	add    DWORD PTR [rbp-0x24],0x1
    5023:	e9 0b 07 00 00       	jmp    5733 <__cxa_finalize@plt+0x2b23>
    5028:	8b 45 d4             	mov    eax,DWORD PTR [rbp-0x2c]
    502b:	8d 50 ff             	lea    edx,[rax-0x1]
    502e:	89 55 d4             	mov    DWORD PTR [rbp-0x2c],edx
    5031:	48 98                	cdqe   
    5033:	48 8d 14 c5 00 00 00 	lea    rdx,[rax*8+0x0]
    503a:	00 
    503b:	48 8d 05 1e 92 20 00 	lea    rax,[rip+0x20921e]        # 20e260 <_ZSt5wcout@@GLIBCXX_3.4+0x200>
    5042:	48 8b 04 02          	mov    rax,QWORD PTR [rdx+rax*1]
    5046:	48 89 45 e8          	mov    QWORD PTR [rbp-0x18],rax
    504a:	8b 45 d4             	mov    eax,DWORD PTR [rbp-0x2c]
    504d:	8d 50 ff             	lea    edx,[rax-0x1]
    5050:	89 55 d4             	mov    DWORD PTR [rbp-0x2c],edx
    5053:	48 98                	cdqe   
    5055:	48 8d 14 c5 00 00 00 	lea    rdx,[rax*8+0x0]
    505c:	00 
    505d:	48 8d 05 fc 91 20 00 	lea    rax,[rip+0x2091fc]        # 20e260 <_ZSt5wcout@@GLIBCXX_3.4+0x200>
    5064:	48 8b 04 02          	mov    rax,QWORD PTR [rdx+rax*1]
    5068:	48 89 45 f0          	mov    QWORD PTR [rbp-0x10],rax
    506c:	8b 45 d4             	mov    eax,DWORD PTR [rbp-0x2c]
    506f:	83 c0 01             	add    eax,0x1
    5072:	89 45 d4             	mov    DWORD PTR [rbp-0x2c],eax
    5075:	8b 4d d4             	mov    ecx,DWORD PTR [rbp-0x2c]
    5078:	48 8b 45 e8          	mov    rax,QWORD PTR [rbp-0x18]
    507c:	48 99                	cqo    
    507e:	48 f7 7d f0          	idiv   QWORD PTR [rbp-0x10]
    5082:	48 89 d6             	mov    rsi,rdx
    5085:	48 63 c1             	movsxd rax,ecx
    5088:	48 8d 14 c5 00 00 00 	lea    rdx,[rax*8+0x0]
    508f:	00 
    5090:	48 8d 05 c9 91 20 00 	lea    rax,[rip+0x2091c9]        # 20e260 <_ZSt5wcout@@GLIBCXX_3.4+0x200>
    5097:	48 89 34 02          	mov    QWORD PTR [rdx+rax*1],rsi
    509b:	83 45 dc 01          	add    DWORD PTR [rbp-0x24],0x1
    509f:	e9 8f 06 00 00       	jmp    5733 <__cxa_finalize@plt+0x2b23>
    50a4:	8b 45 d4             	mov    eax,DWORD PTR [rbp-0x2c]
    50a7:	8d 50 ff             	lea    edx,[rax-0x1]
    50aa:	89 55 d4             	mov    DWORD PTR [rbp-0x2c],edx
    50ad:	48 98                	cdqe   
    50af:	48 8d 14 c5 00 00 00 	lea    rdx,[rax*8+0x0]
    50b6:	00 
    50b7:	48 8d 05 a2 91 20 00 	lea    rax,[rip+0x2091a2]        # 20e260 <_ZSt5wcout@@GLIBCXX_3.4+0x200>
    50be:	48 8b 04 02          	mov    rax,QWORD PTR [rdx+rax*1]
    50c2:	48 89 45 e8          	mov    QWORD PTR [rbp-0x18],rax
    50c6:	8b 45 d4             	mov    eax,DWORD PTR [rbp-0x2c]
    50c9:	8d 50 ff             	lea    edx,[rax-0x1]
    50cc:	89 55 d4             	mov    DWORD PTR [rbp-0x2c],edx
    50cf:	48 98                	cdqe   
    50d1:	48 8d 14 c5 00 00 00 	lea    rdx,[rax*8+0x0]
    50d8:	00 
    50d9:	48 8d 05 80 91 20 00 	lea    rax,[rip+0x209180]        # 20e260 <_ZSt5wcout@@GLIBCXX_3.4+0x200>
    50e0:	48 8b 04 02          	mov    rax,QWORD PTR [rdx+rax*1]
    50e4:	48 89 45 f0          	mov    QWORD PTR [rbp-0x10],rax
    50e8:	8b 45 d4             	mov    eax,DWORD PTR [rbp-0x2c]
    50eb:	83 c0 01             	add    eax,0x1
    50ee:	89 45 d4             	mov    DWORD PTR [rbp-0x2c],eax
    50f1:	8b 4d d4             	mov    ecx,DWORD PTR [rbp-0x2c]
    50f4:	48 8b 45 e8          	mov    rax,QWORD PTR [rbp-0x18]
    50f8:	48 33 45 f0          	xor    rax,QWORD PTR [rbp-0x10]
    50fc:	48 89 c2             	mov    rdx,rax
    50ff:	48 63 c1             	movsxd rax,ecx
    5102:	48 8d 0c c5 00 00 00 	lea    rcx,[rax*8+0x0]
    5109:	00 
    510a:	48 8d 05 4f 91 20 00 	lea    rax,[rip+0x20914f]        # 20e260 <_ZSt5wcout@@GLIBCXX_3.4+0x200>
    5111:	48 89 14 01          	mov    QWORD PTR [rcx+rax*1],rdx
    5115:	83 45 dc 01          	add    DWORD PTR [rbp-0x24],0x1
    5119:	e9 15 06 00 00       	jmp    5733 <__cxa_finalize@plt+0x2b23>
    511e:	8b 45 d4             	mov    eax,DWORD PTR [rbp-0x2c]
    5121:	8d 50 ff             	lea    edx,[rax-0x1]
    5124:	89 55 d4             	mov    DWORD PTR [rbp-0x2c],edx
    5127:	48 98                	cdqe   
    5129:	48 8d 14 c5 00 00 00 	lea    rdx,[rax*8+0x0]
    5130:	00 
    5131:	48 8d 05 28 91 20 00 	lea    rax,[rip+0x209128]        # 20e260 <_ZSt5wcout@@GLIBCXX_3.4+0x200>
    5138:	48 8b 04 02          	mov    rax,QWORD PTR [rdx+rax*1]
    513c:	48 89 45 e8          	mov    QWORD PTR [rbp-0x18],rax
    5140:	8b 45 d4             	mov    eax,DWORD PTR [rbp-0x2c]
    5143:	8d 50 ff             	lea    edx,[rax-0x1]
    5146:	89 55 d4             	mov    DWORD PTR [rbp-0x2c],edx
    5149:	48 98                	cdqe   
    514b:	48 8d 14 c5 00 00 00 	lea    rdx,[rax*8+0x0]
    5152:	00 
    5153:	48 8d 05 06 91 20 00 	lea    rax,[rip+0x209106]        # 20e260 <_ZSt5wcout@@GLIBCXX_3.4+0x200>
    515a:	48 8b 04 02          	mov    rax,QWORD PTR [rdx+rax*1]
    515e:	48 89 45 f0          	mov    QWORD PTR [rbp-0x10],rax
    5162:	8b 45 d4             	mov    eax,DWORD PTR [rbp-0x2c]
    5165:	83 c0 01             	add    eax,0x1
    5168:	89 45 d4             	mov    DWORD PTR [rbp-0x2c],eax
    516b:	8b 4d d4             	mov    ecx,DWORD PTR [rbp-0x2c]
    516e:	48 8b 45 e8          	mov    rax,QWORD PTR [rbp-0x18]
    5172:	48 23 45 f0          	and    rax,QWORD PTR [rbp-0x10]
    5176:	48 89 c2             	mov    rdx,rax
    5179:	48 63 c1             	movsxd rax,ecx
    517c:	48 8d 0c c5 00 00 00 	lea    rcx,[rax*8+0x0]
    5183:	00 
    5184:	48 8d 05 d5 90 20 00 	lea    rax,[rip+0x2090d5]        # 20e260 <_ZSt5wcout@@GLIBCXX_3.4+0x200>
    518b:	48 89 14 01          	mov    QWORD PTR [rcx+rax*1],rdx
    518f:	83 45 dc 01          	add    DWORD PTR [rbp-0x24],0x1
    5193:	e9 9b 05 00 00       	jmp    5733 <__cxa_finalize@plt+0x2b23>
    5198:	8b 45 d4             	mov    eax,DWORD PTR [rbp-0x2c]
    519b:	8d 50 ff             	lea    edx,[rax-0x1]
    519e:	89 55 d4             	mov    DWORD PTR [rbp-0x2c],edx
    51a1:	48 98                	cdqe   
    51a3:	48 8d 14 c5 00 00 00 	lea    rdx,[rax*8+0x0]
    51aa:	00 
    51ab:	48 8d 05 ae 90 20 00 	lea    rax,[rip+0x2090ae]        # 20e260 <_ZSt5wcout@@GLIBCXX_3.4+0x200>
    51b2:	48 8b 04 02          	mov    rax,QWORD PTR [rdx+rax*1]
    51b6:	48 89 45 e8          	mov    QWORD PTR [rbp-0x18],rax
    51ba:	8b 45 d4             	mov    eax,DWORD PTR [rbp-0x2c]
    51bd:	8d 50 ff             	lea    edx,[rax-0x1]
    51c0:	89 55 d4             	mov    DWORD PTR [rbp-0x2c],edx
    51c3:	48 98                	cdqe   
    51c5:	48 8d 14 c5 00 00 00 	lea    rdx,[rax*8+0x0]
    51cc:	00 
    51cd:	48 8d 05 8c 90 20 00 	lea    rax,[rip+0x20908c]        # 20e260 <_ZSt5wcout@@GLIBCXX_3.4+0x200>
    51d4:	48 8b 04 02          	mov    rax,QWORD PTR [rdx+rax*1]
    51d8:	48 89 45 f0          	mov    QWORD PTR [rbp-0x10],rax
    51dc:	48 8b 45 e8          	mov    rax,QWORD PTR [rbp-0x18]
    51e0:	48 3b 45 f0          	cmp    rax,QWORD PTR [rbp-0x10]
    51e4:	7d 27                	jge    520d <__cxa_finalize@plt+0x25fd>
    51e6:	8b 45 d4             	mov    eax,DWORD PTR [rbp-0x2c]
    51e9:	83 c0 01             	add    eax,0x1
    51ec:	89 45 d4             	mov    DWORD PTR [rbp-0x2c],eax
    51ef:	8b 45 d4             	mov    eax,DWORD PTR [rbp-0x2c]
    51f2:	48 98                	cdqe   
    51f4:	48 8d 14 c5 00 00 00 	lea    rdx,[rax*8+0x0]
    51fb:	00 
    51fc:	48 8d 05 5d 90 20 00 	lea    rax,[rip+0x20905d]        # 20e260 <_ZSt5wcout@@GLIBCXX_3.4+0x200>
    5203:	48 c7 04 02 01 00 00 	mov    QWORD PTR [rdx+rax*1],0x1
    520a:	00 
    520b:	eb 25                	jmp    5232 <__cxa_finalize@plt+0x2622>
    520d:	8b 45 d4             	mov    eax,DWORD PTR [rbp-0x2c]
    5210:	83 c0 01             	add    eax,0x1
    5213:	89 45 d4             	mov    DWORD PTR [rbp-0x2c],eax
    5216:	8b 45 d4             	mov    eax,DWORD PTR [rbp-0x2c]
    5219:	48 98                	cdqe   
    521b:	48 8d 14 c5 00 00 00 	lea    rdx,[rax*8+0x0]
    5222:	00 
    5223:	48 8d 05 36 90 20 00 	lea    rax,[rip+0x209036]        # 20e260 <_ZSt5wcout@@GLIBCXX_3.4+0x200>
    522a:	48 c7 04 02 00 00 00 	mov    QWORD PTR [rdx+rax*1],0x0
    5231:	00 
    5232:	83 45 dc 01          	add    DWORD PTR [rbp-0x24],0x1
    5236:	e9 f8 04 00 00       	jmp    5733 <__cxa_finalize@plt+0x2b23>
    523b:	8b 45 d4             	mov    eax,DWORD PTR [rbp-0x2c]
    523e:	8d 50 ff             	lea    edx,[rax-0x1]
    5241:	89 55 d4             	mov    DWORD PTR [rbp-0x2c],edx
    5244:	48 98                	cdqe   
    5246:	48 8d 14 c5 00 00 00 	lea    rdx,[rax*8+0x0]
    524d:	00 
    524e:	48 8d 05 0b 90 20 00 	lea    rax,[rip+0x20900b]        # 20e260 <_ZSt5wcout@@GLIBCXX_3.4+0x200>
    5255:	48 8b 04 02          	mov    rax,QWORD PTR [rdx+rax*1]
    5259:	48 89 45 e8          	mov    QWORD PTR [rbp-0x18],rax
    525d:	8b 45 d4             	mov    eax,DWORD PTR [rbp-0x2c]
    5260:	8d 50 ff             	lea    edx,[rax-0x1]
    5263:	89 55 d4             	mov    DWORD PTR [rbp-0x2c],edx
    5266:	48 98                	cdqe   
    5268:	48 8d 14 c5 00 00 00 	lea    rdx,[rax*8+0x0]
    526f:	00 
    5270:	48 8d 05 e9 8f 20 00 	lea    rax,[rip+0x208fe9]        # 20e260 <_ZSt5wcout@@GLIBCXX_3.4+0x200>
    5277:	48 8b 04 02          	mov    rax,QWORD PTR [rdx+rax*1]
    527b:	48 89 45 f0          	mov    QWORD PTR [rbp-0x10],rax
    527f:	48 8b 45 e8          	mov    rax,QWORD PTR [rbp-0x18]
    5283:	48 3b 45 f0          	cmp    rax,QWORD PTR [rbp-0x10]
    5287:	75 27                	jne    52b0 <__cxa_finalize@plt+0x26a0>
    5289:	8b 45 d4             	mov    eax,DWORD PTR [rbp-0x2c]
    528c:	83 c0 01             	add    eax,0x1
    528f:	89 45 d4             	mov    DWORD PTR [rbp-0x2c],eax
    5292:	8b 45 d4             	mov    eax,DWORD PTR [rbp-0x2c]
    5295:	48 98                	cdqe   
    5297:	48 8d 14 c5 00 00 00 	lea    rdx,[rax*8+0x0]
    529e:	00 
    529f:	48 8d 05 ba 8f 20 00 	lea    rax,[rip+0x208fba]        # 20e260 <_ZSt5wcout@@GLIBCXX_3.4+0x200>
    52a6:	48 c7 04 02 01 00 00 	mov    QWORD PTR [rdx+rax*1],0x1
    52ad:	00 
    52ae:	eb 25                	jmp    52d5 <__cxa_finalize@plt+0x26c5>
    52b0:	8b 45 d4             	mov    eax,DWORD PTR [rbp-0x2c]
    52b3:	83 c0 01             	add    eax,0x1
    52b6:	89 45 d4             	mov    DWORD PTR [rbp-0x2c],eax
    52b9:	8b 45 d4             	mov    eax,DWORD PTR [rbp-0x2c]
    52bc:	48 98                	cdqe   
    52be:	48 8d 14 c5 00 00 00 	lea    rdx,[rax*8+0x0]
    52c5:	00 
    52c6:	48 8d 05 93 8f 20 00 	lea    rax,[rip+0x208f93]        # 20e260 <_ZSt5wcout@@GLIBCXX_3.4+0x200>
    52cd:	48 c7 04 02 00 00 00 	mov    QWORD PTR [rdx+rax*1],0x0
    52d4:	00 
    52d5:	83 45 dc 01          	add    DWORD PTR [rbp-0x24],0x1
    52d9:	e9 55 04 00 00       	jmp    5733 <__cxa_finalize@plt+0x2b23>
    52de:	8b 45 d4             	mov    eax,DWORD PTR [rbp-0x2c]
    52e1:	8d 50 ff             	lea    edx,[rax-0x1]
    52e4:	89 55 d4             	mov    DWORD PTR [rbp-0x2c],edx
    52e7:	48 98                	cdqe   
    52e9:	48 8d 14 c5 00 00 00 	lea    rdx,[rax*8+0x0]
    52f0:	00 
    52f1:	48 8d 05 68 8f 20 00 	lea    rax,[rip+0x208f68]        # 20e260 <_ZSt5wcout@@GLIBCXX_3.4+0x200>
    52f8:	48 8b 04 02          	mov    rax,QWORD PTR [rdx+rax*1]
    52fc:	48 89 45 e8          	mov    QWORD PTR [rbp-0x18],rax
    5300:	48 8b 45 e8          	mov    rax,QWORD PTR [rbp-0x18]
    5304:	89 45 dc             	mov    DWORD PTR [rbp-0x24],eax
    5307:	e9 27 04 00 00       	jmp    5733 <__cxa_finalize@plt+0x2b23>
    530c:	8b 45 d4             	mov    eax,DWORD PTR [rbp-0x2c]
    530f:	8d 50 ff             	lea    edx,[rax-0x1]
    5312:	89 55 d4             	mov    DWORD PTR [rbp-0x2c],edx
    5315:	48 98                	cdqe   
    5317:	48 8d 14 c5 00 00 00 	lea    rdx,[rax*8+0x0]
    531e:	00 
    531f:	48 8d 05 3a 8f 20 00 	lea    rax,[rip+0x208f3a]        # 20e260 <_ZSt5wcout@@GLIBCXX_3.4+0x200>
    5326:	48 8b 04 02          	mov    rax,QWORD PTR [rdx+rax*1]
    532a:	48 89 45 e8          	mov    QWORD PTR [rbp-0x18],rax
    532e:	8b 45 d4             	mov    eax,DWORD PTR [rbp-0x2c]
    5331:	8d 50 ff             	lea    edx,[rax-0x1]
    5334:	89 55 d4             	mov    DWORD PTR [rbp-0x2c],edx
    5337:	48 98                	cdqe   
    5339:	48 8d 14 c5 00 00 00 	lea    rdx,[rax*8+0x0]
    5340:	00 
    5341:	48 8d 05 18 8f 20 00 	lea    rax,[rip+0x208f18]        # 20e260 <_ZSt5wcout@@GLIBCXX_3.4+0x200>
    5348:	48 8b 04 02          	mov    rax,QWORD PTR [rdx+rax*1]
    534c:	48 89 45 f0          	mov    QWORD PTR [rbp-0x10],rax
    5350:	48 83 7d f0 00       	cmp    QWORD PTR [rbp-0x10],0x0
    5355:	74 0c                	je     5363 <__cxa_finalize@plt+0x2753>
    5357:	48 8b 45 e8          	mov    rax,QWORD PTR [rbp-0x18]
    535b:	89 45 dc             	mov    DWORD PTR [rbp-0x24],eax
    535e:	e9 d0 03 00 00       	jmp    5733 <__cxa_finalize@plt+0x2b23>
    5363:	83 45 dc 01          	add    DWORD PTR [rbp-0x24],0x1
    5367:	e9 c7 03 00 00       	jmp    5733 <__cxa_finalize@plt+0x2b23>
    536c:	8b 45 d4             	mov    eax,DWORD PTR [rbp-0x2c]
    536f:	8d 50 ff             	lea    edx,[rax-0x1]
    5372:	89 55 d4             	mov    DWORD PTR [rbp-0x2c],edx
    5375:	48 98                	cdqe   
    5377:	48 8d 14 c5 00 00 00 	lea    rdx,[rax*8+0x0]
    537e:	00 
    537f:	48 8d 05 da 8e 20 00 	lea    rax,[rip+0x208eda]        # 20e260 <_ZSt5wcout@@GLIBCXX_3.4+0x200>
    5386:	48 8b 04 02          	mov    rax,QWORD PTR [rdx+rax*1]
    538a:	48 89 45 e8          	mov    QWORD PTR [rbp-0x18],rax
    538e:	8b 45 d4             	mov    eax,DWORD PTR [rbp-0x2c]
    5391:	8d 50 ff             	lea    edx,[rax-0x1]
    5394:	89 55 d4             	mov    DWORD PTR [rbp-0x2c],edx
    5397:	48 98                	cdqe   
    5399:	48 8d 14 c5 00 00 00 	lea    rdx,[rax*8+0x0]
    53a0:	00 
    53a1:	48 8d 05 b8 8e 20 00 	lea    rax,[rip+0x208eb8]        # 20e260 <_ZSt5wcout@@GLIBCXX_3.4+0x200>
    53a8:	48 8b 04 02          	mov    rax,QWORD PTR [rdx+rax*1]
    53ac:	48 89 45 f0          	mov    QWORD PTR [rbp-0x10],rax
    53b0:	48 83 7d f0 00       	cmp    QWORD PTR [rbp-0x10],0x0
    53b5:	75 0c                	jne    53c3 <__cxa_finalize@plt+0x27b3>
    53b7:	48 8b 45 e8          	mov    rax,QWORD PTR [rbp-0x18]
    53bb:	89 45 dc             	mov    DWORD PTR [rbp-0x24],eax
    53be:	e9 70 03 00 00       	jmp    5733 <__cxa_finalize@plt+0x2b23>
    53c3:	83 45 dc 01          	add    DWORD PTR [rbp-0x24],0x1
    53c7:	e9 67 03 00 00       	jmp    5733 <__cxa_finalize@plt+0x2b23>
    53cc:	8b 45 d4             	mov    eax,DWORD PTR [rbp-0x2c]
    53cf:	3d 00 04 00 00       	cmp    eax,0x400
    53d4:	75 32                	jne    5408 <__cxa_finalize@plt+0x27f8>
    53d6:	48 8d 35 93 44 00 00 	lea    rsi,[rip+0x4493]        # 9870 <__cxa_finalize@plt+0x6c60>
    53dd:	48 8d 3d 7c 8c 20 00 	lea    rdi,[rip+0x208c7c]        # 20e060 <_ZSt5wcout@@GLIBCXX_3.4>
    53e4:	e8 e7 d7 ff ff       	call   2bd0 <_ZStlsIwSt11char_traitsIwEERSt13basic_ostreamIT_T0_ES6_PKS3_@plt>
    53e9:	48 89 c2             	mov    rdx,rax
    53ec:	48 8b 05 dd 8b 20 00 	mov    rax,QWORD PTR [rip+0x208bdd]        # 20dfd0 <_ZSt4endlIwSt11char_traitsIwEERSt13basic_ostreamIT_T0_ES6_@GLIBCXX_3.4>
    53f3:	48 89 c6             	mov    rsi,rax
    53f6:	48 89 d7             	mov    rdi,rdx
    53f9:	e8 82 d7 ff ff       	call   2b80 <_ZNSt13basic_ostreamIwSt11char_traitsIwEElsEPFRS2_S3_E@plt>
    53fe:	bf 01 00 00 00       	mov    edi,0x1
    5403:	e8 38 d6 ff ff       	call   2a40 <exit@plt>
    5408:	8b 45 dc             	mov    eax,DWORD PTR [rbp-0x24]
    540b:	83 c0 01             	add    eax,0x1
    540e:	48 63 d0             	movsxd rdx,eax
    5411:	48 8b 45 c8          	mov    rax,QWORD PTR [rbp-0x38]
    5415:	48 89 d6             	mov    rsi,rdx
    5418:	48 89 c7             	mov    rdi,rax
    541b:	e8 30 d6 ff ff       	call   2a50 <_ZNSt7__cxx1112basic_stringIwSt11char_traitsIwESaIwEEixEm@plt>
    5420:	8b 00                	mov    eax,DWORD PTR [rax]
    5422:	89 c7                	mov    edi,eax
    5424:	e8 66 f2 ff ff       	call   468f <__cxa_finalize@plt+0x1a7f>
    5429:	48 98                	cdqe   
    542b:	48 89 45 e8          	mov    QWORD PTR [rbp-0x18],rax
    542f:	8b 45 d4             	mov    eax,DWORD PTR [rbp-0x2c]
    5432:	83 c0 01             	add    eax,0x1
    5435:	89 45 d4             	mov    DWORD PTR [rbp-0x2c],eax
    5438:	8b 45 d4             	mov    eax,DWORD PTR [rbp-0x2c]
    543b:	48 98                	cdqe   
    543d:	48 8d 0c c5 00 00 00 	lea    rcx,[rax*8+0x0]
    5444:	00 
    5445:	48 8d 05 14 8e 20 00 	lea    rax,[rip+0x208e14]        # 20e260 <_ZSt5wcout@@GLIBCXX_3.4+0x200>
    544c:	48 8b 55 e8          	mov    rdx,QWORD PTR [rbp-0x18]
    5450:	48 89 14 01          	mov    QWORD PTR [rcx+rax*1],rdx
    5454:	83 45 dc 02          	add    DWORD PTR [rbp-0x24],0x2
    5458:	e9 d6 02 00 00       	jmp    5733 <__cxa_finalize@plt+0x2b23>
    545d:	8b 45 d4             	mov    eax,DWORD PTR [rbp-0x2c]
    5460:	83 f8 ff             	cmp    eax,0xffffffff
    5463:	75 32                	jne    5497 <__cxa_finalize@plt+0x2887>
    5465:	48 8d 35 54 44 00 00 	lea    rsi,[rip+0x4454]        # 98c0 <__cxa_finalize@plt+0x6cb0>
    546c:	48 8d 3d ed 8b 20 00 	lea    rdi,[rip+0x208bed]        # 20e060 <_ZSt5wcout@@GLIBCXX_3.4>
    5473:	e8 58 d7 ff ff       	call   2bd0 <_ZStlsIwSt11char_traitsIwEERSt13basic_ostreamIT_T0_ES6_PKS3_@plt>
    5478:	48 89 c2             	mov    rdx,rax
    547b:	48 8b 05 4e 8b 20 00 	mov    rax,QWORD PTR [rip+0x208b4e]        # 20dfd0 <_ZSt4endlIwSt11char_traitsIwEERSt13basic_ostreamIT_T0_ES6_@GLIBCXX_3.4>
    5482:	48 89 c6             	mov    rsi,rax
    5485:	48 89 d7             	mov    rdi,rdx
    5488:	e8 f3 d6 ff ff       	call   2b80 <_ZNSt13basic_ostreamIwSt11char_traitsIwEElsEPFRS2_S3_E@plt>
    548d:	bf 01 00 00 00       	mov    edi,0x1
    5492:	e8 a9 d5 ff ff       	call   2a40 <exit@plt>
    5497:	8b 45 d4             	mov    eax,DWORD PTR [rbp-0x2c]
    549a:	83 e8 01             	sub    eax,0x1
    549d:	89 45 d4             	mov    DWORD PTR [rbp-0x2c],eax
    54a0:	83 45 dc 01          	add    DWORD PTR [rbp-0x24],0x1
    54a4:	e9 8a 02 00 00       	jmp    5733 <__cxa_finalize@plt+0x2b23>
    54a9:	8b 45 d4             	mov    eax,DWORD PTR [rbp-0x2c]
    54ac:	8d 50 ff             	lea    edx,[rax-0x1]
    54af:	89 55 d4             	mov    DWORD PTR [rbp-0x2c],edx
    54b2:	48 98                	cdqe   
    54b4:	48 8d 14 c5 00 00 00 	lea    rdx,[rax*8+0x0]
    54bb:	00 
    54bc:	48 8d 05 9d 8d 20 00 	lea    rax,[rip+0x208d9d]        # 20e260 <_ZSt5wcout@@GLIBCXX_3.4+0x200>
    54c3:	48 8b 04 02          	mov    rax,QWORD PTR [rdx+rax*1]
    54c7:	48 89 45 e8          	mov    QWORD PTR [rbp-0x18],rax
    54cb:	8b 45 d4             	mov    eax,DWORD PTR [rbp-0x2c]
    54ce:	8d 50 ff             	lea    edx,[rax-0x1]
    54d1:	89 55 d4             	mov    DWORD PTR [rbp-0x2c],edx
    54d4:	48 98                	cdqe   
    54d6:	48 8d 14 c5 00 00 00 	lea    rdx,[rax*8+0x0]
    54dd:	00 
    54de:	48 8d 05 7b 8d 20 00 	lea    rax,[rip+0x208d7b]        # 20e260 <_ZSt5wcout@@GLIBCXX_3.4+0x200>
    54e5:	48 8b 04 02          	mov    rax,QWORD PTR [rdx+rax*1]
    54e9:	48 89 45 f0          	mov    QWORD PTR [rbp-0x10],rax
    54ed:	48 8b 45 f0          	mov    rax,QWORD PTR [rbp-0x10]
    54f1:	89 c2                	mov    edx,eax
    54f3:	48 8b 45 e8          	mov    rax,QWORD PTR [rbp-0x18]
    54f7:	89 d6                	mov    esi,edx
    54f9:	89 c7                	mov    edi,eax
    54fb:	e8 44 f2 ff ff       	call   4744 <__cxa_finalize@plt+0x1b34>
    5500:	88 45 d3             	mov    BYTE PTR [rbp-0x2d],al
    5503:	8b 45 d4             	mov    eax,DWORD PTR [rbp-0x2c]
    5506:	83 c0 01             	add    eax,0x1
    5509:	89 45 d4             	mov    DWORD PTR [rbp-0x2c],eax
    550c:	8b 45 d4             	mov    eax,DWORD PTR [rbp-0x2c]
    550f:	48 0f be 55 d3       	movsx  rdx,BYTE PTR [rbp-0x2d]
    5514:	48 98                	cdqe   
    5516:	48 8d 0c c5 00 00 00 	lea    rcx,[rax*8+0x0]
    551d:	00 
    551e:	48 8d 05 3b 8d 20 00 	lea    rax,[rip+0x208d3b]        # 20e260 <_ZSt5wcout@@GLIBCXX_3.4+0x200>
    5525:	48 89 14 01          	mov    QWORD PTR [rcx+rax*1],rdx
    5529:	83 45 dc 01          	add    DWORD PTR [rbp-0x24],0x1
    552d:	e9 01 02 00 00       	jmp    5733 <__cxa_finalize@plt+0x2b23>
    5532:	8b 45 d4             	mov    eax,DWORD PTR [rbp-0x2c]
    5535:	8d 50 ff             	lea    edx,[rax-0x1]
    5538:	89 55 d4             	mov    DWORD PTR [rbp-0x2c],edx
    553b:	48 98                	cdqe   
    553d:	48 8d 14 c5 00 00 00 	lea    rdx,[rax*8+0x0]
    5544:	00 
    5545:	48 8d 05 14 8d 20 00 	lea    rax,[rip+0x208d14]        # 20e260 <_ZSt5wcout@@GLIBCXX_3.4+0x200>
    554c:	48 8b 04 02          	mov    rax,QWORD PTR [rdx+rax*1]
    5550:	48 89 45 e8          	mov    QWORD PTR [rbp-0x18],rax
    5554:	8b 45 d4             	mov    eax,DWORD PTR [rbp-0x2c]
    5557:	8d 50 ff             	lea    edx,[rax-0x1]
    555a:	89 55 d4             	mov    DWORD PTR [rbp-0x2c],edx
    555d:	48 98                	cdqe   
    555f:	48 8d 14 c5 00 00 00 	lea    rdx,[rax*8+0x0]
    5566:	00 
    5567:	48 8d 05 f2 8c 20 00 	lea    rax,[rip+0x208cf2]        # 20e260 <_ZSt5wcout@@GLIBCXX_3.4+0x200>
    556e:	48 8b 04 02          	mov    rax,QWORD PTR [rdx+rax*1]
    5572:	48 89 45 f0          	mov    QWORD PTR [rbp-0x10],rax
    5576:	8b 45 d4             	mov    eax,DWORD PTR [rbp-0x2c]
    5579:	8d 50 ff             	lea    edx,[rax-0x1]
    557c:	89 55 d4             	mov    DWORD PTR [rbp-0x2c],edx
    557f:	48 98                	cdqe   
    5581:	48 8d 14 c5 00 00 00 	lea    rdx,[rax*8+0x0]
    5588:	00 
    5589:	48 8d 05 d0 8c 20 00 	lea    rax,[rip+0x208cd0]        # 20e260 <_ZSt5wcout@@GLIBCXX_3.4+0x200>
    5590:	48 8b 04 02          	mov    rax,QWORD PTR [rdx+rax*1]
    5594:	88 45 d3             	mov    BYTE PTR [rbp-0x2d],al
    5597:	0f be 45 d3          	movsx  eax,BYTE PTR [rbp-0x2d]
    559b:	48 8b 55 f0          	mov    rdx,QWORD PTR [rbp-0x10]
    559f:	89 d6                	mov    esi,edx
    55a1:	48 8b 55 e8          	mov    rdx,QWORD PTR [rbp-0x18]
    55a5:	89 d1                	mov    ecx,edx
    55a7:	89 c2                	mov    edx,eax
    55a9:	89 cf                	mov    edi,ecx
    55ab:	e8 a0 f2 ff ff       	call   4850 <__cxa_finalize@plt+0x1c40>
    55b0:	83 45 dc 01          	add    DWORD PTR [rbp-0x24],0x1
    55b4:	e9 7a 01 00 00       	jmp    5733 <__cxa_finalize@plt+0x2b23>
    55b9:	8b 45 d4             	mov    eax,DWORD PTR [rbp-0x2c]
    55bc:	8d 50 ff             	lea    edx,[rax-0x1]
    55bf:	89 55 d4             	mov    DWORD PTR [rbp-0x2c],edx
    55c2:	48 98                	cdqe   
    55c4:	48 8d 14 c5 00 00 00 	lea    rdx,[rax*8+0x0]
    55cb:	00 
    55cc:	48 8d 05 8d 8c 20 00 	lea    rax,[rip+0x208c8d]        # 20e260 <_ZSt5wcout@@GLIBCXX_3.4+0x200>
    55d3:	48 8b 04 02          	mov    rax,QWORD PTR [rdx+rax*1]
    55d7:	48 89 45 e8          	mov    QWORD PTR [rbp-0x18],rax
    55db:	48 8b 45 e8          	mov    rax,QWORD PTR [rbp-0x18]
    55df:	48 89 c7             	mov    rdi,rax
    55e2:	e8 b0 f5 ff ff       	call   4b97 <__cxa_finalize@plt+0x1f87>
    55e7:	83 45 dc 01          	add    DWORD PTR [rbp-0x24],0x1
    55eb:	e9 43 01 00 00       	jmp    5733 <__cxa_finalize@plt+0x2b23>
    55f0:	8b 45 d4             	mov    eax,DWORD PTR [rbp-0x2c]
    55f3:	8d 50 ff             	lea    edx,[rax-0x1]
    55f6:	89 55 d4             	mov    DWORD PTR [rbp-0x2c],edx
    55f9:	48 98                	cdqe   
    55fb:	48 8d 14 c5 00 00 00 	lea    rdx,[rax*8+0x0]
    5602:	00 
    5603:	48 8d 05 56 8c 20 00 	lea    rax,[rip+0x208c56]        # 20e260 <_ZSt5wcout@@GLIBCXX_3.4+0x200>
    560a:	48 8b 04 02          	mov    rax,QWORD PTR [rdx+rax*1]
    560e:	48 89 45 e8          	mov    QWORD PTR [rbp-0x18],rax
    5612:	48 8b 45 e8          	mov    rax,QWORD PTR [rbp-0x18]
    5616:	89 c7                	mov    edi,eax
    5618:	e8 b2 f6 ff ff       	call   4ccf <__cxa_finalize@plt+0x20bf>
    561d:	83 45 dc 01          	add    DWORD PTR [rbp-0x24],0x1
    5621:	e9 0d 01 00 00       	jmp    5733 <__cxa_finalize@plt+0x2b23>
    5626:	8b 45 d4             	mov    eax,DWORD PTR [rbp-0x2c]
    5629:	8d 50 ff             	lea    edx,[rax-0x1]
    562c:	89 55 d4             	mov    DWORD PTR [rbp-0x2c],edx
    562f:	48 98                	cdqe   
    5631:	48 8d 14 c5 00 00 00 	lea    rdx,[rax*8+0x0]
    5638:	00 
    5639:	48 8d 05 20 8c 20 00 	lea    rax,[rip+0x208c20]        # 20e260 <_ZSt5wcout@@GLIBCXX_3.4+0x200>
    5640:	48 8b 04 02          	mov    rax,QWORD PTR [rdx+rax*1]
    5644:	48 89 45 e8          	mov    QWORD PTR [rbp-0x18],rax
    5648:	48 8b 45 e8          	mov    rax,QWORD PTR [rbp-0x18]
    564c:	89 c7                	mov    edi,eax
    564e:	e8 12 f3 ff ff       	call   4965 <__cxa_finalize@plt+0x1d55>
    5653:	83 45 dc 01          	add    DWORD PTR [rbp-0x24],0x1
    5657:	e9 d7 00 00 00       	jmp    5733 <__cxa_finalize@plt+0x2b23>
    565c:	8b 45 d4             	mov    eax,DWORD PTR [rbp-0x2c]
    565f:	8d 50 ff             	lea    edx,[rax-0x1]
    5662:	89 55 d4             	mov    DWORD PTR [rbp-0x2c],edx
    5665:	48 98                	cdqe   
    5667:	48 8d 14 c5 00 00 00 	lea    rdx,[rax*8+0x0]
    566e:	00 
    566f:	48 8d 05 ea 8b 20 00 	lea    rax,[rip+0x208bea]        # 20e260 <_ZSt5wcout@@GLIBCXX_3.4+0x200>
    5676:	48 8b 04 02          	mov    rax,QWORD PTR [rdx+rax*1]
    567a:	48 89 45 e8          	mov    QWORD PTR [rbp-0x18],rax
    567e:	48 8b 45 e8          	mov    rax,QWORD PTR [rbp-0x18]
    5682:	89 c7                	mov    edi,eax
    5684:	e8 9c f3 ff ff       	call   4a25 <__cxa_finalize@plt+0x1e15>
    5689:	83 45 dc 01          	add    DWORD PTR [rbp-0x24],0x1
    568d:	e9 a1 00 00 00       	jmp    5733 <__cxa_finalize@plt+0x2b23>
    5692:	48 8d 45 d4          	lea    rax,[rbp-0x2c]
    5696:	48 89 c7             	mov    rdi,rax
    5699:	e8 53 f4 ff ff       	call   4af1 <__cxa_finalize@plt+0x1ee1>
    569e:	83 45 dc 01          	add    DWORD PTR [rbp-0x24],0x1
    56a2:	e9 8c 00 00 00       	jmp    5733 <__cxa_finalize@plt+0x2b23>
    56a7:	8b 45 d4             	mov    eax,DWORD PTR [rbp-0x2c]
    56aa:	8d 50 ff             	lea    edx,[rax-0x1]
    56ad:	89 55 d4             	mov    DWORD PTR [rbp-0x2c],edx
    56b0:	48 98                	cdqe   
    56b2:	48 8d 14 c5 00 00 00 	lea    rdx,[rax*8+0x0]
    56b9:	00 
    56ba:	48 8d 05 9f 8b 20 00 	lea    rax,[rip+0x208b9f]        # 20e260 <_ZSt5wcout@@GLIBCXX_3.4+0x200>
    56c1:	48 8b 04 02          	mov    rax,QWORD PTR [rdx+rax*1]
    56c5:	48 89 45 e8          	mov    QWORD PTR [rbp-0x18],rax
    56c9:	48 8b 45 e8          	mov    rax,QWORD PTR [rbp-0x18]
    56cd:	48 89 c7             	mov    rdi,rax
    56d0:	e8 a0 f4 ff ff       	call   4b75 <__cxa_finalize@plt+0x1f65>
    56d5:	83 45 dc 01          	add    DWORD PTR [rbp-0x24],0x1
    56d9:	eb 58                	jmp    5733 <__cxa_finalize@plt+0x2b23>
    56db:	b8 00 00 00 00       	mov    eax,0x0
    56e0:	eb 5b                	jmp    573d <__cxa_finalize@plt+0x2b2d>
    56e2:	48 8d 35 27 42 00 00 	lea    rsi,[rip+0x4227]        # 9910 <__cxa_finalize@plt+0x6d00>
    56e9:	48 8d 3d 70 89 20 00 	lea    rdi,[rip+0x208970]        # 20e060 <_ZSt5wcout@@GLIBCXX_3.4>
    56f0:	e8 ab d0 ff ff       	call   27a0 <_ZStlsIwSt11char_traitsIwEERSt13basic_ostreamIT_T0_ES6_PKc@plt>
    56f5:	48 8d 35 1e 02 00 00 	lea    rsi,[rip+0x21e]        # 591a <__cxa_finalize@plt+0x2d0a>
    56fc:	48 89 c7             	mov    rdi,rax
    56ff:	e8 0c d3 ff ff       	call   2a10 <_ZNSt13basic_ostreamIwSt11char_traitsIwEElsEPFRSt8ios_baseS4_E@plt>
    5704:	48 89 c2             	mov    rdx,rax
    5707:	8b 45 d8             	mov    eax,DWORD PTR [rbp-0x28]
    570a:	89 c6                	mov    esi,eax
    570c:	48 89 d7             	mov    rdi,rdx
    570f:	e8 ec d4 ff ff       	call   2c00 <_ZNSt13basic_ostreamIwSt11char_traitsIwEElsEi@plt>
    5714:	48 89 c2             	mov    rdx,rax
    5717:	48 8b 05 b2 88 20 00 	mov    rax,QWORD PTR [rip+0x2088b2]        # 20dfd0 <_ZSt4endlIwSt11char_traitsIwEERSt13basic_ostreamIT_T0_ES6_@GLIBCXX_3.4>
    571e:	48 89 c6             	mov    rsi,rax
    5721:	48 89 d7             	mov    rdi,rdx
    5724:	e8 57 d4 ff ff       	call   2b80 <_ZNSt13basic_ostreamIwSt11char_traitsIwEElsEPFRS2_S3_E@plt>
    5729:	bf 01 00 00 00       	mov    edi,0x1
    572e:	e8 0d d3 ff ff       	call   2a40 <exit@plt>
    5733:	e9 d3 f6 ff ff       	jmp    4e0b <__cxa_finalize@plt+0x21fb>
    5738:	b8 00 00 00 00       	mov    eax,0x0
    573d:	48 8b 75 f8          	mov    rsi,QWORD PTR [rbp-0x8]
    5741:	64 48 33 34 25 28 00 	xor    rsi,QWORD PTR fs:0x28
    5748:	00 00 
    574a:	74 0f                	je     575b <__cxa_finalize@plt+0x2b4b>
    574c:	eb 08                	jmp    5756 <__cxa_finalize@plt+0x2b46>
    574e:	48 89 c7             	mov    rdi,rax
    5751:	e8 3a d4 ff ff       	call   2b90 <_Unwind_Resume@plt>
    5756:	e8 a5 d2 ff ff       	call   2a00 <__stack_chk_fail@plt>
    575b:	c9                   	leave  
    575c:	c3                   	ret    
    575d:	55                   	push   rbp
    575e:	48 89 e5             	mov    rbp,rsp
    5761:	48 83 ec 10          	sub    rsp,0x10
    5765:	89 7d fc             	mov    DWORD PTR [rbp-0x4],edi
    5768:	89 75 f8             	mov    DWORD PTR [rbp-0x8],esi
    576b:	83 7d fc 01          	cmp    DWORD PTR [rbp-0x4],0x1
    576f:	75 7e                	jne    57ef <__cxa_finalize@plt+0x2bdf>
    5771:	81 7d f8 ff ff 00 00 	cmp    DWORD PTR [rbp-0x8],0xffff
    5778:	75 75                	jne    57ef <__cxa_finalize@plt+0x2bdf>
    577a:	48 8d 3d df aa 20 00 	lea    rdi,[rip+0x20aadf]        # 210260 <_ZSt5wcout@@GLIBCXX_3.4+0x2200>
    5781:	e8 6a d3 ff ff       	call   2af0 <_ZNSt8ios_base4InitC1Ev@plt>
    5786:	48 8d 15 7b 88 20 00 	lea    rdx,[rip+0x20887b]        # 20e008 <_ZTVSt19__codecvt_utf8_baseIwE@@GLIBCXX_3.4.21+0x588>
    578d:	48 8d 35 cc aa 20 00 	lea    rsi,[rip+0x20aacc]        # 210260 <_ZSt5wcout@@GLIBCXX_3.4+0x2200>
    5794:	48 8b 05 5d 88 20 00 	mov    rax,QWORD PTR [rip+0x20885d]        # 20dff8 <_ZNSt8ios_base4InitD1Ev@GLIBCXX_3.4>
    579b:	48 89 c7             	mov    rdi,rax
    579e:	e8 bd d1 ff ff       	call   2960 <__cxa_atexit@plt>
    57a3:	48 8d 3d d6 89 20 00 	lea    rdi,[rip+0x2089d6]        # 20e180 <_ZSt5wcout@@GLIBCXX_3.4+0x120>
    57aa:	e8 65 02 00 00       	call   5a14 <__cxa_finalize@plt+0x2e04>
    57af:	48 8d 15 52 88 20 00 	lea    rdx,[rip+0x208852]        # 20e008 <_ZTVSt19__codecvt_utf8_baseIwE@@GLIBCXX_3.4.21+0x588>
    57b6:	48 8d 35 c3 89 20 00 	lea    rsi,[rip+0x2089c3]        # 20e180 <_ZSt5wcout@@GLIBCXX_3.4+0x120>
    57bd:	48 8d 3d ee 3c 00 00 	lea    rdi,[rip+0x3cee]        # 94b2 <__cxa_finalize@plt+0x68a2>
    57c4:	e8 97 d1 ff ff       	call   2960 <__cxa_atexit@plt>
    57c9:	48 8d 3d f0 89 20 00 	lea    rdi,[rip+0x2089f0]        # 20e1c0 <_ZSt5wcout@@GLIBCXX_3.4+0x160>
    57d0:	e8 cb 02 00 00       	call   5aa0 <__cxa_finalize@plt+0x2e90>
    57d5:	48 8d 15 2c 88 20 00 	lea    rdx,[rip+0x20882c]        # 20e008 <_ZTVSt19__codecvt_utf8_baseIwE@@GLIBCXX_3.4.21+0x588>
    57dc:	48 8d 35 dd 89 20 00 	lea    rsi,[rip+0x2089dd]        # 20e1c0 <_ZSt5wcout@@GLIBCXX_3.4+0x160>
    57e3:	48 8d 3d e4 3c 00 00 	lea    rdi,[rip+0x3ce4]        # 94ce <__cxa_finalize@plt+0x68be>
    57ea:	e8 71 d1 ff ff       	call   2960 <__cxa_atexit@plt>
    57ef:	90                   	nop
    57f0:	c9                   	leave  
    57f1:	c3                   	ret    
    57f2:	55                   	push   rbp
    57f3:	48 89 e5             	mov    rbp,rsp
    57f6:	be ff ff 00 00       	mov    esi,0xffff
    57fb:	bf 01 00 00 00       	mov    edi,0x1
    5800:	e8 58 ff ff ff       	call   575d <__cxa_finalize@plt+0x2b4d>
    5805:	5d                   	pop    rbp
    5806:	c3                   	ret    
    5807:	55                   	push   rbp
    5808:	48 89 e5             	mov    rbp,rsp
    580b:	48 89 7d f8          	mov    QWORD PTR [rbp-0x8],rdi
    580f:	48 89 75 f0          	mov    QWORD PTR [rbp-0x10],rsi
    5813:	48 8b 45 f0          	mov    rax,QWORD PTR [rbp-0x10]
    5817:	5d                   	pop    rbp
    5818:	c3                   	ret    
    5819:	55                   	push   rbp
    581a:	48 89 e5             	mov    rbp,rsp
    581d:	48 89 7d f8          	mov    QWORD PTR [rbp-0x8],rdi
    5821:	48 89 75 f0          	mov    QWORD PTR [rbp-0x10],rsi
    5825:	90                   	nop
    5826:	5d                   	pop    rbp
    5827:	c3                   	ret    
    5828:	55                   	push   rbp
    5829:	48 89 e5             	mov    rbp,rsp
    582c:	89 7d fc             	mov    DWORD PTR [rbp-0x4],edi
    582f:	89 75 f8             	mov    DWORD PTR [rbp-0x8],esi
    5832:	8b 45 fc             	mov    eax,DWORD PTR [rbp-0x4]
    5835:	23 45 f8             	and    eax,DWORD PTR [rbp-0x8]
    5838:	5d                   	pop    rbp
    5839:	c3                   	ret    
    583a:	55                   	push   rbp
    583b:	48 89 e5             	mov    rbp,rsp
    583e:	89 7d fc             	mov    DWORD PTR [rbp-0x4],edi
    5841:	89 75 f8             	mov    DWORD PTR [rbp-0x8],esi
    5844:	8b 45 fc             	mov    eax,DWORD PTR [rbp-0x4]
    5847:	0b 45 f8             	or     eax,DWORD PTR [rbp-0x8]
    584a:	5d                   	pop    rbp
    584b:	c3                   	ret    
    584c:	55                   	push   rbp
    584d:	48 89 e5             	mov    rbp,rsp
    5850:	89 7d fc             	mov    DWORD PTR [rbp-0x4],edi
    5853:	8b 45 fc             	mov    eax,DWORD PTR [rbp-0x4]
    5856:	f7 d0                	not    eax
    5858:	5d                   	pop    rbp
    5859:	c3                   	ret    
    585a:	55                   	push   rbp
    585b:	48 89 e5             	mov    rbp,rsp
    585e:	48 83 ec 10          	sub    rsp,0x10
    5862:	48 89 7d f8          	mov    QWORD PTR [rbp-0x8],rdi
    5866:	89 75 f4             	mov    DWORD PTR [rbp-0xc],esi
    5869:	48 8b 45 f8          	mov    rax,QWORD PTR [rbp-0x8]
    586d:	8b 00                	mov    eax,DWORD PTR [rax]
    586f:	8b 55 f4             	mov    edx,DWORD PTR [rbp-0xc]
    5872:	89 d6                	mov    esi,edx
    5874:	89 c7                	mov    edi,eax
    5876:	e8 bf ff ff ff       	call   583a <__cxa_finalize@plt+0x2c2a>
    587b:	89 c2                	mov    edx,eax
    587d:	48 8b 45 f8          	mov    rax,QWORD PTR [rbp-0x8]
    5881:	89 10                	mov    DWORD PTR [rax],edx
    5883:	48 8b 45 f8          	mov    rax,QWORD PTR [rbp-0x8]
    5887:	c9                   	leave  
    5888:	c3                   	ret    
    5889:	55                   	push   rbp
    588a:	48 89 e5             	mov    rbp,rsp
    588d:	48 83 ec 10          	sub    rsp,0x10
    5891:	48 89 7d f8          	mov    QWORD PTR [rbp-0x8],rdi
    5895:	89 75 f4             	mov    DWORD PTR [rbp-0xc],esi
    5898:	48 8b 45 f8          	mov    rax,QWORD PTR [rbp-0x8]
    589c:	8b 00                	mov    eax,DWORD PTR [rax]
    589e:	8b 55 f4             	mov    edx,DWORD PTR [rbp-0xc]
    58a1:	89 d6                	mov    esi,edx
    58a3:	89 c7                	mov    edi,eax
    58a5:	e8 7e ff ff ff       	call   5828 <__cxa_finalize@plt+0x2c18>
    58aa:	89 c2                	mov    edx,eax
    58ac:	48 8b 45 f8          	mov    rax,QWORD PTR [rbp-0x8]
    58b0:	89 10                	mov    DWORD PTR [rax],edx
    58b2:	48 8b 45 f8          	mov    rax,QWORD PTR [rbp-0x8]
    58b6:	c9                   	leave  
    58b7:	c3                   	ret    
    58b8:	55                   	push   rbp
    58b9:	48 89 e5             	mov    rbp,rsp
    58bc:	48 83 ec 20          	sub    rsp,0x20
    58c0:	48 89 7d e8          	mov    QWORD PTR [rbp-0x18],rdi
    58c4:	89 75 e4             	mov    DWORD PTR [rbp-0x1c],esi
    58c7:	89 55 e0             	mov    DWORD PTR [rbp-0x20],edx
    58ca:	48 8b 45 e8          	mov    rax,QWORD PTR [rbp-0x18]
    58ce:	8b 40 18             	mov    eax,DWORD PTR [rax+0x18]
    58d1:	89 45 fc             	mov    DWORD PTR [rbp-0x4],eax
    58d4:	8b 45 e0             	mov    eax,DWORD PTR [rbp-0x20]
    58d7:	89 c7                	mov    edi,eax
    58d9:	e8 6e ff ff ff       	call   584c <__cxa_finalize@plt+0x2c3c>
    58de:	89 c2                	mov    edx,eax
    58e0:	48 8b 45 e8          	mov    rax,QWORD PTR [rbp-0x18]
    58e4:	48 83 c0 18          	add    rax,0x18
    58e8:	89 d6                	mov    esi,edx
    58ea:	48 89 c7             	mov    rdi,rax
    58ed:	e8 97 ff ff ff       	call   5889 <__cxa_finalize@plt+0x2c79>
    58f2:	8b 55 e0             	mov    edx,DWORD PTR [rbp-0x20]
    58f5:	8b 45 e4             	mov    eax,DWORD PTR [rbp-0x1c]
    58f8:	89 d6                	mov    esi,edx
    58fa:	89 c7                	mov    edi,eax
    58fc:	e8 27 ff ff ff       	call   5828 <__cxa_finalize@plt+0x2c18>
    5901:	89 c2                	mov    edx,eax
    5903:	48 8b 45 e8          	mov    rax,QWORD PTR [rbp-0x18]
    5907:	48 83 c0 18          	add    rax,0x18
    590b:	89 d6                	mov    esi,edx
    590d:	48 89 c7             	mov    rdi,rax
    5910:	e8 45 ff ff ff       	call   585a <__cxa_finalize@plt+0x2c4a>
    5915:	8b 45 fc             	mov    eax,DWORD PTR [rbp-0x4]
    5918:	c9                   	leave  
    5919:	c3                   	ret    
    591a:	55                   	push   rbp
    591b:	48 89 e5             	mov    rbp,rsp
    591e:	48 83 ec 10          	sub    rsp,0x10
    5922:	48 89 7d f8          	mov    QWORD PTR [rbp-0x8],rdi
    5926:	48 8b 45 f8          	mov    rax,QWORD PTR [rbp-0x8]
    592a:	ba 4a 00 00 00       	mov    edx,0x4a
    592f:	be 08 00 00 00       	mov    esi,0x8
    5934:	48 89 c7             	mov    rdi,rax
    5937:	e8 7c ff ff ff       	call   58b8 <__cxa_finalize@plt+0x2ca8>
    593c:	48 8b 45 f8          	mov    rax,QWORD PTR [rbp-0x8]
    5940:	c9                   	leave  
    5941:	c3                   	ret    
    5942:	55                   	push   rbp
    5943:	48 89 e5             	mov    rbp,rsp
    5946:	48 83 ec 10          	sub    rsp,0x10
    594a:	48 89 7d f8          	mov    QWORD PTR [rbp-0x8],rdi
    594e:	48 8b 45 f8          	mov    rax,QWORD PTR [rbp-0x8]
    5952:	c7 00 00 00 00 00    	mov    DWORD PTR [rax],0x0
    5958:	48 8b 45 f8          	mov    rax,QWORD PTR [rbp-0x8]
    595c:	48 89 c7             	mov    rdi,rax
    595f:	e8 04 00 00 00       	call   5968 <__cxa_finalize@plt+0x2d58>
    5964:	90                   	nop
    5965:	c9                   	leave  
    5966:	c3                   	ret    
    5967:	90                   	nop
    5968:	55                   	push   rbp
    5969:	48 89 e5             	mov    rbp,rsp
    596c:	48 89 7d f8          	mov    QWORD PTR [rbp-0x8],rdi
    5970:	48 8b 45 f8          	mov    rax,QWORD PTR [rbp-0x8]
    5974:	48 c7 40 08 00 00 00 	mov    QWORD PTR [rax+0x8],0x0
    597b:	00 
    597c:	48 8b 55 f8          	mov    rdx,QWORD PTR [rbp-0x8]
    5980:	48 8b 45 f8          	mov    rax,QWORD PTR [rbp-0x8]
    5984:	48 89 50 10          	mov    QWORD PTR [rax+0x10],rdx
    5988:	48 8b 55 f8          	mov    rdx,QWORD PTR [rbp-0x8]
    598c:	48 8b 45 f8          	mov    rax,QWORD PTR [rbp-0x8]
    5990:	48 89 50 18          	mov    QWORD PTR [rax+0x18],rdx
    5994:	48 8b 45 f8          	mov    rax,QWORD PTR [rbp-0x8]
    5998:	48 c7 40 20 00 00 00 	mov    QWORD PTR [rax+0x20],0x0
    599f:	00 
    59a0:	90                   	nop
    59a1:	5d                   	pop    rbp
    59a2:	c3                   	ret    
    59a3:	90                   	nop
    59a4:	55                   	push   rbp
    59a5:	48 89 e5             	mov    rbp,rsp
    59a8:	48 83 ec 10          	sub    rsp,0x10
    59ac:	48 89 7d f8          	mov    QWORD PTR [rbp-0x8],rdi
    59b0:	48 8b 45 f8          	mov    rax,QWORD PTR [rbp-0x8]
    59b4:	48 89 c7             	mov    rdi,rax
    59b7:	e8 00 01 00 00       	call   5abc <__cxa_finalize@plt+0x2eac>
    59bc:	48 8b 45 f8          	mov    rax,QWORD PTR [rbp-0x8]
    59c0:	48 89 c7             	mov    rdi,rax
    59c3:	e8 2c 01 00 00       	call   5af4 <__cxa_finalize@plt+0x2ee4>
    59c8:	48 8b 45 f8          	mov    rax,QWORD PTR [rbp-0x8]
    59cc:	48 83 c0 08          	add    rax,0x8
    59d0:	48 89 c7             	mov    rdi,rax
    59d3:	e8 6a ff ff ff       	call   5942 <__cxa_finalize@plt+0x2d32>
    59d8:	90                   	nop
    59d9:	c9                   	leave  
    59da:	c3                   	ret    
    59db:	90                   	nop
    59dc:	55                   	push   rbp
    59dd:	48 89 e5             	mov    rbp,rsp
    59e0:	48 83 ec 10          	sub    rsp,0x10
    59e4:	48 89 7d f8          	mov    QWORD PTR [rbp-0x8],rdi
    59e8:	48 8b 45 f8          	mov    rax,QWORD PTR [rbp-0x8]
    59ec:	48 89 c7             	mov    rdi,rax
    59ef:	e8 e4 00 00 00       	call   5ad8 <__cxa_finalize@plt+0x2ec8>
    59f4:	90                   	nop
    59f5:	c9                   	leave  
    59f6:	c3                   	ret    
    59f7:	90                   	nop
    59f8:	55                   	push   rbp
    59f9:	48 89 e5             	mov    rbp,rsp
    59fc:	48 83 ec 10          	sub    rsp,0x10
    5a00:	48 89 7d f8          	mov    QWORD PTR [rbp-0x8],rdi
    5a04:	48 8b 45 f8          	mov    rax,QWORD PTR [rbp-0x8]
    5a08:	48 89 c7             	mov    rdi,rax
    5a0b:	e8 94 ff ff ff       	call   59a4 <__cxa_finalize@plt+0x2d94>
    5a10:	90                   	nop
    5a11:	c9                   	leave  
    5a12:	c3                   	ret    
    5a13:	90                   	nop
    5a14:	55                   	push   rbp
    5a15:	48 89 e5             	mov    rbp,rsp
    5a18:	48 83 ec 10          	sub    rsp,0x10
    5a1c:	48 89 7d f8          	mov    QWORD PTR [rbp-0x8],rdi
    5a20:	48 8b 45 f8          	mov    rax,QWORD PTR [rbp-0x8]
    5a24:	48 89 c7             	mov    rdi,rax
    5a27:	e8 cc ff ff ff       	call   59f8 <__cxa_finalize@plt+0x2de8>
    5a2c:	90                   	nop
    5a2d:	c9                   	leave  
    5a2e:	c3                   	ret    
    5a2f:	90                   	nop
    5a30:	55                   	push   rbp
    5a31:	48 89 e5             	mov    rbp,rsp
    5a34:	48 83 ec 10          	sub    rsp,0x10
    5a38:	48 89 7d f8          	mov    QWORD PTR [rbp-0x8],rdi
    5a3c:	48 8b 45 f8          	mov    rax,QWORD PTR [rbp-0x8]
    5a40:	48 89 c7             	mov    rdi,rax
    5a43:	e8 f2 00 00 00       	call   5b3a <__cxa_finalize@plt+0x2f2a>
    5a48:	48 8b 45 f8          	mov    rax,QWORD PTR [rbp-0x8]
    5a4c:	48 89 c7             	mov    rdi,rax
    5a4f:	e8 a0 00 00 00       	call   5af4 <__cxa_finalize@plt+0x2ee4>
    5a54:	48 8b 45 f8          	mov    rax,QWORD PTR [rbp-0x8]
    5a58:	48 83 c0 08          	add    rax,0x8
    5a5c:	48 89 c7             	mov    rdi,rax
    5a5f:	e8 de fe ff ff       	call   5942 <__cxa_finalize@plt+0x2d32>
    5a64:	90                   	nop
    5a65:	c9                   	leave  
    5a66:	c3                   	ret    
    5a67:	90                   	nop
    5a68:	55                   	push   rbp
    5a69:	48 89 e5             	mov    rbp,rsp
    5a6c:	48 83 ec 10          	sub    rsp,0x10
    5a70:	48 89 7d f8          	mov    QWORD PTR [rbp-0x8],rdi
    5a74:	48 8b 45 f8          	mov    rax,QWORD PTR [rbp-0x8]
    5a78:	48 89 c7             	mov    rdi,rax
    5a7b:	e8 d6 00 00 00       	call   5b56 <__cxa_finalize@plt+0x2f46>
    5a80:	90                   	nop
    5a81:	c9                   	leave  
    5a82:	c3                   	ret    
    5a83:	90                   	nop
    5a84:	55                   	push   rbp
    5a85:	48 89 e5             	mov    rbp,rsp
    5a88:	48 83 ec 10          	sub    rsp,0x10
    5a8c:	48 89 7d f8          	mov    QWORD PTR [rbp-0x8],rdi
    5a90:	48 8b 45 f8          	mov    rax,QWORD PTR [rbp-0x8]
    5a94:	48 89 c7             	mov    rdi,rax
    5a97:	e8 94 ff ff ff       	call   5a30 <__cxa_finalize@plt+0x2e20>
    5a9c:	90                   	nop
    5a9d:	c9                   	leave  
    5a9e:	c3                   	ret    
    5a9f:	90                   	nop
    5aa0:	55                   	push   rbp
    5aa1:	48 89 e5             	mov    rbp,rsp
    5aa4:	48 83 ec 10          	sub    rsp,0x10
    5aa8:	48 89 7d f8          	mov    QWORD PTR [rbp-0x8],rdi
    5aac:	48 8b 45 f8          	mov    rax,QWORD PTR [rbp-0x8]
    5ab0:	48 89 c7             	mov    rdi,rax
    5ab3:	e8 cc ff ff ff       	call   5a84 <__cxa_finalize@plt+0x2e74>
    5ab8:	90                   	nop
    5ab9:	c9                   	leave  
    5aba:	c3                   	ret    
    5abb:	90                   	nop
    5abc:	55                   	push   rbp
    5abd:	48 89 e5             	mov    rbp,rsp
    5ac0:	48 83 ec 10          	sub    rsp,0x10
    5ac4:	48 89 7d f8          	mov    QWORD PTR [rbp-0x8],rdi
    5ac8:	48 8b 45 f8          	mov    rax,QWORD PTR [rbp-0x8]
    5acc:	48 89 c7             	mov    rdi,rax
    5acf:	e8 52 07 00 00       	call   6226 <__cxa_finalize@plt+0x3616>
    5ad4:	90                   	nop
    5ad5:	c9                   	leave  
    5ad6:	c3                   	ret    
    5ad7:	90                   	nop
    5ad8:	55                   	push   rbp
    5ad9:	48 89 e5             	mov    rbp,rsp
    5adc:	48 83 ec 10          	sub    rsp,0x10
    5ae0:	48 89 7d f8          	mov    QWORD PTR [rbp-0x8],rdi
    5ae4:	48 8b 45 f8          	mov    rax,QWORD PTR [rbp-0x8]
    5ae8:	48 89 c7             	mov    rdi,rax
    5aeb:	e8 42 07 00 00       	call   6232 <__cxa_finalize@plt+0x3622>
    5af0:	90                   	nop
    5af1:	c9                   	leave  
    5af2:	c3                   	ret    
    5af3:	90                   	nop
    5af4:	55                   	push   rbp
    5af5:	48 89 e5             	mov    rbp,rsp
    5af8:	48 89 7d f8          	mov    QWORD PTR [rbp-0x8],rdi
    5afc:	90                   	nop
    5afd:	5d                   	pop    rbp
    5afe:	c3                   	ret    
    5aff:	90                   	nop
    5b00:	55                   	push   rbp
    5b01:	48 89 e5             	mov    rbp,rsp
    5b04:	48 83 ec 10          	sub    rsp,0x10
    5b08:	48 89 7d f8          	mov    QWORD PTR [rbp-0x8],rdi
    5b0c:	48 8b 45 f8          	mov    rax,QWORD PTR [rbp-0x8]
    5b10:	48 89 c7             	mov    rdi,rax
    5b13:	e8 8c 07 00 00       	call   62a4 <__cxa_finalize@plt+0x3694>
    5b18:	48 89 c2             	mov    rdx,rax
    5b1b:	48 8b 45 f8          	mov    rax,QWORD PTR [rbp-0x8]
    5b1f:	48 89 d6             	mov    rsi,rdx
    5b22:	48 89 c7             	mov    rdi,rax
    5b25:	e8 14 07 00 00       	call   623e <__cxa_finalize@plt+0x362e>
    5b2a:	48 8b 45 f8          	mov    rax,QWORD PTR [rbp-0x8]
    5b2e:	48 89 c7             	mov    rdi,rax
    5b31:	e8 a6 fe ff ff       	call   59dc <__cxa_finalize@plt+0x2dcc>
    5b36:	90                   	nop
    5b37:	c9                   	leave  
    5b38:	c3                   	ret    
    5b39:	90                   	nop
    5b3a:	55                   	push   rbp
    5b3b:	48 89 e5             	mov    rbp,rsp
    5b3e:	48 83 ec 10          	sub    rsp,0x10
    5b42:	48 89 7d f8          	mov    QWORD PTR [rbp-0x8],rdi
    5b46:	48 8b 45 f8          	mov    rax,QWORD PTR [rbp-0x8]
    5b4a:	48 89 c7             	mov    rdi,rax
    5b4d:	e8 64 07 00 00       	call   62b6 <__cxa_finalize@plt+0x36a6>
    5b52:	90                   	nop
    5b53:	c9                   	leave  
    5b54:	c3                   	ret    
    5b55:	90                   	nop
    5b56:	55                   	push   rbp
    5b57:	48 89 e5             	mov    rbp,rsp
    5b5a:	48 83 ec 10          	sub    rsp,0x10
    5b5e:	48 89 7d f8          	mov    QWORD PTR [rbp-0x8],rdi
    5b62:	48 8b 45 f8          	mov    rax,QWORD PTR [rbp-0x8]
    5b66:	48 89 c7             	mov    rdi,rax
    5b69:	e8 54 07 00 00       	call   62c2 <__cxa_finalize@plt+0x36b2>
    5b6e:	90                   	nop
    5b6f:	c9                   	leave  
    5b70:	c3                   	ret    
    5b71:	90                   	nop
    5b72:	55                   	push   rbp
    5b73:	48 89 e5             	mov    rbp,rsp
    5b76:	48 83 ec 10          	sub    rsp,0x10
    5b7a:	48 89 7d f8          	mov    QWORD PTR [rbp-0x8],rdi
    5b7e:	48 8b 45 f8          	mov    rax,QWORD PTR [rbp-0x8]
    5b82:	48 89 c7             	mov    rdi,rax
    5b85:	e8 aa 07 00 00       	call   6334 <__cxa_finalize@plt+0x3724>
    5b8a:	48 89 c2             	mov    rdx,rax
    5b8d:	48 8b 45 f8          	mov    rax,QWORD PTR [rbp-0x8]
    5b91:	48 89 d6             	mov    rsi,rdx
    5b94:	48 89 c7             	mov    rdi,rax
    5b97:	e8 32 07 00 00       	call   62ce <__cxa_finalize@plt+0x36be>
    5b9c:	48 8b 45 f8          	mov    rax,QWORD PTR [rbp-0x8]
    5ba0:	48 89 c7             	mov    rdi,rax
    5ba3:	e8 c0 fe ff ff       	call   5a68 <__cxa_finalize@plt+0x2e58>
    5ba8:	90                   	nop
    5ba9:	c9                   	leave  
    5baa:	c3                   	ret    
    5bab:	55                   	push   rbp
    5bac:	48 89 e5             	mov    rbp,rsp
    5baf:	48 89 7d f8          	mov    QWORD PTR [rbp-0x8],rdi
    5bb3:	48 8b 45 f8          	mov    rax,QWORD PTR [rbp-0x8]
    5bb7:	5d                   	pop    rbp
    5bb8:	c3                   	ret    
    5bb9:	55                   	push   rbp
    5bba:	48 89 e5             	mov    rbp,rsp
    5bbd:	48 89 7d f8          	mov    QWORD PTR [rbp-0x8],rdi
    5bc1:	48 8b 45 f8          	mov    rax,QWORD PTR [rbp-0x8]
    5bc5:	5d                   	pop    rbp
    5bc6:	c3                   	ret    
    5bc7:	90                   	nop
    5bc8:	55                   	push   rbp
    5bc9:	48 89 e5             	mov    rbp,rsp
    5bcc:	53                   	push   rbx
    5bcd:	48 83 ec 18          	sub    rsp,0x18
    5bd1:	48 89 7d e8          	mov    QWORD PTR [rbp-0x18],rdi
    5bd5:	48 89 75 e0          	mov    QWORD PTR [rbp-0x20],rsi
    5bd9:	48 8b 5d e8          	mov    rbx,QWORD PTR [rbp-0x18]
    5bdd:	48 8b 45 e0          	mov    rax,QWORD PTR [rbp-0x20]
    5be1:	48 89 c7             	mov    rdi,rax
    5be4:	e8 d0 ff ff ff       	call   5bb9 <__cxa_finalize@plt+0x2fa9>
    5be9:	48 89 c6             	mov    rsi,rax
    5bec:	48 89 df             	mov    rdi,rbx
    5bef:	e8 08 00 00 00       	call   5bfc <__cxa_finalize@plt+0x2fec>
    5bf4:	90                   	nop
    5bf5:	48 83 c4 18          	add    rsp,0x18
    5bf9:	5b                   	pop    rbx
    5bfa:	5d                   	pop    rbp
    5bfb:	c3                   	ret    
    5bfc:	55                   	push   rbp
    5bfd:	48 89 e5             	mov    rbp,rsp
    5c00:	53                   	push   rbx
    5c01:	48 83 ec 18          	sub    rsp,0x18
    5c05:	48 89 7d e8          	mov    QWORD PTR [rbp-0x18],rdi
    5c09:	48 89 75 e0          	mov    QWORD PTR [rbp-0x20],rsi
    5c0d:	48 8b 5d e8          	mov    rbx,QWORD PTR [rbp-0x18]
    5c11:	48 8b 45 e0          	mov    rax,QWORD PTR [rbp-0x20]
    5c15:	48 89 c7             	mov    rdi,rax
    5c18:	e8 9c ff ff ff       	call   5bb9 <__cxa_finalize@plt+0x2fa9>
    5c1d:	48 89 c6             	mov    rsi,rax
    5c20:	48 89 df             	mov    rdi,rbx
    5c23:	e8 08 00 00 00       	call   5c30 <__cxa_finalize@plt+0x3020>
    5c28:	90                   	nop
    5c29:	48 83 c4 18          	add    rsp,0x18
    5c2d:	5b                   	pop    rbx
    5c2e:	5d                   	pop    rbp
    5c2f:	c3                   	ret    
    5c30:	55                   	push   rbp
    5c31:	48 89 e5             	mov    rbp,rsp
    5c34:	48 83 ec 10          	sub    rsp,0x10
    5c38:	48 89 7d f8          	mov    QWORD PTR [rbp-0x8],rdi
    5c3c:	48 89 75 f0          	mov    QWORD PTR [rbp-0x10],rsi
    5c40:	48 8b 45 f0          	mov    rax,QWORD PTR [rbp-0x10]
    5c44:	48 89 c7             	mov    rdi,rax
    5c47:	e8 6d ff ff ff       	call   5bb9 <__cxa_finalize@plt+0x2fa9>
    5c4c:	48 89 c2             	mov    rdx,rax
    5c4f:	48 8b 45 f8          	mov    rax,QWORD PTR [rbp-0x8]
    5c53:	48 89 10             	mov    QWORD PTR [rax],rdx
    5c56:	90                   	nop
    5c57:	c9                   	leave  
    5c58:	c3                   	ret    
    5c59:	90                   	nop
    5c5a:	55                   	push   rbp
    5c5b:	48 89 e5             	mov    rbp,rsp
    5c5e:	48 83 ec 10          	sub    rsp,0x10
    5c62:	48 89 7d f8          	mov    QWORD PTR [rbp-0x8],rdi
    5c66:	48 89 75 f0          	mov    QWORD PTR [rbp-0x10],rsi
    5c6a:	48 8b 45 f8          	mov    rax,QWORD PTR [rbp-0x8]
    5c6e:	48 8b 55 f0          	mov    rdx,QWORD PTR [rbp-0x10]
    5c72:	48 89 d6             	mov    rsi,rdx
    5c75:	48 89 c7             	mov    rdi,rax
    5c78:	e8 e5 07 00 00       	call   6462 <__cxa_finalize@plt+0x3852>
    5c7d:	90                   	nop
    5c7e:	c9                   	leave  
    5c7f:	c3                   	ret    
    5c80:	55                   	push   rbp
    5c81:	48 89 e5             	mov    rbp,rsp
    5c84:	48 83 ec 10          	sub    rsp,0x10
    5c88:	48 89 7d f8          	mov    QWORD PTR [rbp-0x8],rdi
    5c8c:	48 89 75 f0          	mov    QWORD PTR [rbp-0x10],rsi
    5c90:	48 8b 45 f0          	mov    rax,QWORD PTR [rbp-0x10]
    5c94:	48 89 c7             	mov    rdi,rax
    5c97:	e8 1d ff ff ff       	call   5bb9 <__cxa_finalize@plt+0x2fa9>
    5c9c:	48 89 c2             	mov    rdx,rax
    5c9f:	48 8b 45 f8          	mov    rax,QWORD PTR [rbp-0x8]
    5ca3:	48 89 d6             	mov    rsi,rdx
    5ca6:	48 89 c7             	mov    rdi,rax
    5ca9:	e8 1a ff ff ff       	call   5bc8 <__cxa_finalize@plt+0x2fb8>
    5cae:	48 8b 45 f8          	mov    rax,QWORD PTR [rbp-0x8]
    5cb2:	c9                   	leave  
    5cb3:	c3                   	ret    
    5cb4:	55                   	push   rbp
    5cb5:	48 89 e5             	mov    rbp,rsp
    5cb8:	53                   	push   rbx
    5cb9:	48 83 ec 48          	sub    rsp,0x48
    5cbd:	48 89 7d b8          	mov    QWORD PTR [rbp-0x48],rdi
    5cc1:	48 89 75 b0          	mov    QWORD PTR [rbp-0x50],rsi
    5cc5:	64 48 8b 04 25 28 00 	mov    rax,QWORD PTR fs:0x28
    5ccc:	00 00 
    5cce:	48 89 45 e8          	mov    QWORD PTR [rbp-0x18],rax
    5cd2:	31 c0                	xor    eax,eax
    5cd4:	48 8b 55 b0          	mov    rdx,QWORD PTR [rbp-0x50]
    5cd8:	48 8b 45 b8          	mov    rax,QWORD PTR [rbp-0x48]
    5cdc:	48 89 d6             	mov    rsi,rdx
    5cdf:	48 89 c7             	mov    rdi,rax
    5ce2:	e8 5f 06 00 00       	call   6346 <__cxa_finalize@plt+0x3736>
    5ce7:	48 89 45 d0          	mov    QWORD PTR [rbp-0x30],rax
    5ceb:	48 8b 45 b8          	mov    rax,QWORD PTR [rbp-0x48]
    5cef:	48 89 c7             	mov    rdi,rax
    5cf2:	e8 75 06 00 00       	call   636c <__cxa_finalize@plt+0x375c>
    5cf7:	48 89 45 e0          	mov    QWORD PTR [rbp-0x20],rax
    5cfb:	48 8d 55 e0          	lea    rdx,[rbp-0x20]
    5cff:	48 8d 45 d0          	lea    rax,[rbp-0x30]
    5d03:	48 89 d6             	mov    rsi,rdx
    5d06:	48 89 c7             	mov    rdi,rax
    5d09:	e8 78 06 00 00       	call   6386 <__cxa_finalize@plt+0x3776>
    5d0e:	84 c0                	test   al,al
    5d10:	75 32                	jne    5d44 <__cxa_finalize@plt+0x3134>
    5d12:	48 8b 45 b8          	mov    rax,QWORD PTR [rbp-0x48]
    5d16:	48 89 c7             	mov    rdi,rax
    5d19:	e8 8a 06 00 00       	call   63a8 <__cxa_finalize@plt+0x3798>
    5d1e:	48 8d 45 d0          	lea    rax,[rbp-0x30]
    5d22:	48 89 c7             	mov    rdi,rax
    5d25:	e8 a0 06 00 00       	call   63ca <__cxa_finalize@plt+0x37ba>
    5d2a:	48 89 c2             	mov    rdx,rax
    5d2d:	48 8b 4d b0          	mov    rcx,QWORD PTR [rbp-0x50]
    5d31:	48 8d 45 d8          	lea    rax,[rbp-0x28]
    5d35:	48 89 ce             	mov    rsi,rcx
    5d38:	48 89 c7             	mov    rdi,rax
    5d3b:	e8 a8 06 00 00       	call   63e8 <__cxa_finalize@plt+0x37d8>
    5d40:	84 c0                	test   al,al
    5d42:	74 07                	je     5d4b <__cxa_finalize@plt+0x313b>
    5d44:	b8 01 00 00 00       	mov    eax,0x1
    5d49:	eb 05                	jmp    5d50 <__cxa_finalize@plt+0x3140>
    5d4b:	b8 00 00 00 00       	mov    eax,0x0
    5d50:	84 c0                	test   al,al
    5d52:	74 5d                	je     5db1 <__cxa_finalize@plt+0x31a1>
    5d54:	48 8b 5d b8          	mov    rbx,QWORD PTR [rbp-0x48]
    5d58:	48 8b 45 b0          	mov    rax,QWORD PTR [rbp-0x50]
    5d5c:	48 89 c7             	mov    rdi,rax
    5d5f:	e8 47 fe ff ff       	call   5bab <__cxa_finalize@plt+0x2f9b>
    5d64:	48 89 c2             	mov    rdx,rax
    5d67:	48 8d 45 d8          	lea    rax,[rbp-0x28]
    5d6b:	48 89 d6             	mov    rsi,rdx
    5d6e:	48 89 c7             	mov    rdi,rax
    5d71:	e8 0a ff ff ff       	call   5c80 <__cxa_finalize@plt+0x3070>
    5d76:	48 8d 55 d0          	lea    rdx,[rbp-0x30]
    5d7a:	48 8d 45 e0          	lea    rax,[rbp-0x20]
    5d7e:	48 89 d6             	mov    rsi,rdx
    5d81:	48 89 c7             	mov    rdi,rax
    5d84:	e8 83 06 00 00       	call   640c <__cxa_finalize@plt+0x37fc>
    5d89:	48 8d 4d cf          	lea    rcx,[rbp-0x31]
    5d8d:	48 8d 55 d8          	lea    rdx,[rbp-0x28]
    5d91:	48 8b 45 e0          	mov    rax,QWORD PTR [rbp-0x20]
    5d95:	49 89 c8             	mov    r8,rcx
    5d98:	48 89 d1             	mov    rcx,rdx
    5d9b:	48 8d 15 76 39 00 00 	lea    rdx,[rip+0x3976]        # 9718 <__cxa_finalize@plt+0x6b08>
    5da2:	48 89 c6             	mov    rsi,rax
    5da5:	48 89 df             	mov    rdi,rbx
    5da8:	e8 1b 07 00 00       	call   64c8 <__cxa_finalize@plt+0x38b8>
    5dad:	48 89 45 d0          	mov    QWORD PTR [rbp-0x30],rax
    5db1:	48 8d 45 d0          	lea    rax,[rbp-0x30]
    5db5:	48 89 c7             	mov    rdi,rax
    5db8:	e8 0d 06 00 00       	call   63ca <__cxa_finalize@plt+0x37ba>
    5dbd:	48 83 c0 04          	add    rax,0x4
    5dc1:	48 8b 5d e8          	mov    rbx,QWORD PTR [rbp-0x18]
    5dc5:	64 48 33 1c 25 28 00 	xor    rbx,QWORD PTR fs:0x28
    5dcc:	00 00 
    5dce:	74 05                	je     5dd5 <__cxa_finalize@plt+0x31c5>
    5dd0:	e8 2b cc ff ff       	call   2a00 <__stack_chk_fail@plt>
    5dd5:	48 83 c4 48          	add    rsp,0x48
    5dd9:	5b                   	pop    rbx
    5dda:	5d                   	pop    rbp
    5ddb:	c3                   	ret    
    5ddc:	55                   	push   rbp
    5ddd:	48 89 e5             	mov    rbp,rsp
    5de0:	53                   	push   rbx
    5de1:	48 83 ec 48          	sub    rsp,0x48
    5de5:	48 89 7d b8          	mov    QWORD PTR [rbp-0x48],rdi
    5de9:	48 89 75 b0          	mov    QWORD PTR [rbp-0x50],rsi
    5ded:	64 48 8b 04 25 28 00 	mov    rax,QWORD PTR fs:0x28
    5df4:	00 00 
    5df6:	48 89 45 e8          	mov    QWORD PTR [rbp-0x18],rax
    5dfa:	31 c0                	xor    eax,eax
    5dfc:	48 8b 55 b0          	mov    rdx,QWORD PTR [rbp-0x50]
    5e00:	48 8b 45 b8          	mov    rax,QWORD PTR [rbp-0x48]
    5e04:	48 89 d6             	mov    rsi,rdx
    5e07:	48 89 c7             	mov    rdi,rax
    5e0a:	e8 f3 07 00 00       	call   6602 <__cxa_finalize@plt+0x39f2>
    5e0f:	48 89 45 d0          	mov    QWORD PTR [rbp-0x30],rax
    5e13:	48 8b 45 b8          	mov    rax,QWORD PTR [rbp-0x48]
    5e17:	48 89 c7             	mov    rdi,rax
    5e1a:	e8 09 08 00 00       	call   6628 <__cxa_finalize@plt+0x3a18>
    5e1f:	48 89 45 e0          	mov    QWORD PTR [rbp-0x20],rax
    5e23:	48 8d 55 e0          	lea    rdx,[rbp-0x20]
    5e27:	48 8d 45 d0          	lea    rax,[rbp-0x30]
    5e2b:	48 89 d6             	mov    rsi,rdx
    5e2e:	48 89 c7             	mov    rdi,rax
    5e31:	e8 0c 08 00 00       	call   6642 <__cxa_finalize@plt+0x3a32>
    5e36:	84 c0                	test   al,al
    5e38:	75 32                	jne    5e6c <__cxa_finalize@plt+0x325c>
    5e3a:	48 8b 45 b8          	mov    rax,QWORD PTR [rbp-0x48]
    5e3e:	48 89 c7             	mov    rdi,rax
    5e41:	e8 1e 08 00 00       	call   6664 <__cxa_finalize@plt+0x3a54>
    5e46:	48 8d 45 d0          	lea    rax,[rbp-0x30]
    5e4a:	48 89 c7             	mov    rdi,rax
    5e4d:	e8 34 08 00 00       	call   6686 <__cxa_finalize@plt+0x3a76>
    5e52:	48 89 c2             	mov    rdx,rax
    5e55:	48 8b 4d b0          	mov    rcx,QWORD PTR [rbp-0x50]
    5e59:	48 8d 45 d8          	lea    rax,[rbp-0x28]
    5e5d:	48 89 ce             	mov    rsi,rcx
    5e60:	48 89 c7             	mov    rdi,rax
    5e63:	e8 80 05 00 00       	call   63e8 <__cxa_finalize@plt+0x37d8>
    5e68:	84 c0                	test   al,al
    5e6a:	74 07                	je     5e73 <__cxa_finalize@plt+0x3263>
    5e6c:	b8 01 00 00 00       	mov    eax,0x1
    5e71:	eb 05                	jmp    5e78 <__cxa_finalize@plt+0x3268>
    5e73:	b8 00 00 00 00       	mov    eax,0x0
    5e78:	84 c0                	test   al,al
    5e7a:	74 5d                	je     5ed9 <__cxa_finalize@plt+0x32c9>
    5e7c:	48 8b 5d b8          	mov    rbx,QWORD PTR [rbp-0x48]
    5e80:	48 8b 45 b0          	mov    rax,QWORD PTR [rbp-0x50]
    5e84:	48 89 c7             	mov    rdi,rax
    5e87:	e8 1f fd ff ff       	call   5bab <__cxa_finalize@plt+0x2f9b>
    5e8c:	48 89 c2             	mov    rdx,rax
    5e8f:	48 8d 45 d8          	lea    rax,[rbp-0x28]
    5e93:	48 89 d6             	mov    rsi,rdx
    5e96:	48 89 c7             	mov    rdi,rax
    5e99:	e8 e2 fd ff ff       	call   5c80 <__cxa_finalize@plt+0x3070>
    5e9e:	48 8d 55 d0          	lea    rdx,[rbp-0x30]
    5ea2:	48 8d 45 e0          	lea    rax,[rbp-0x20]
    5ea6:	48 89 d6             	mov    rsi,rdx
    5ea9:	48 89 c7             	mov    rdi,rax
    5eac:	e8 f3 07 00 00       	call   66a4 <__cxa_finalize@plt+0x3a94>
    5eb1:	48 8d 4d cf          	lea    rcx,[rbp-0x31]
    5eb5:	48 8d 55 d8          	lea    rdx,[rbp-0x28]
    5eb9:	48 8b 45 e0          	mov    rax,QWORD PTR [rbp-0x20]
    5ebd:	49 89 c8             	mov    r8,rcx
    5ec0:	48 89 d1             	mov    rcx,rdx
    5ec3:	48 8d 15 4e 38 00 00 	lea    rdx,[rip+0x384e]        # 9718 <__cxa_finalize@plt+0x6b08>
    5eca:	48 89 c6             	mov    rsi,rax
    5ecd:	48 89 df             	mov    rdi,rbx
    5ed0:	e8 ed 07 00 00       	call   66c2 <__cxa_finalize@plt+0x3ab2>
    5ed5:	48 89 45 d0          	mov    QWORD PTR [rbp-0x30],rax
    5ed9:	48 8d 45 d0          	lea    rax,[rbp-0x30]
    5edd:	48 89 c7             	mov    rdi,rax
    5ee0:	e8 a1 07 00 00       	call   6686 <__cxa_finalize@plt+0x3a76>
    5ee5:	48 83 c0 04          	add    rax,0x4
    5ee9:	48 8b 5d e8          	mov    rbx,QWORD PTR [rbp-0x18]
    5eed:	64 48 33 1c 25 28 00 	xor    rbx,QWORD PTR fs:0x28
    5ef4:	00 00 
    5ef6:	74 05                	je     5efd <__cxa_finalize@plt+0x32ed>
    5ef8:	e8 03 cb ff ff       	call   2a00 <__stack_chk_fail@plt>
    5efd:	48 83 c4 48          	add    rsp,0x48
    5f01:	5b                   	pop    rbx
    5f02:	5d                   	pop    rbp
    5f03:	c3                   	ret    
    5f04:	55                   	push   rbp
    5f05:	48 89 e5             	mov    rbp,rsp
    5f08:	48 83 ec 30          	sub    rsp,0x30
    5f0c:	48 89 7d d8          	mov    QWORD PTR [rbp-0x28],rdi
    5f10:	48 89 75 d0          	mov    QWORD PTR [rbp-0x30],rsi
    5f14:	64 48 8b 04 25 28 00 	mov    rax,QWORD PTR fs:0x28
    5f1b:	00 00 
    5f1d:	48 89 45 f8          	mov    QWORD PTR [rbp-0x8],rax
    5f21:	31 c0                	xor    eax,eax
    5f23:	48 8b 45 d8          	mov    rax,QWORD PTR [rbp-0x28]
    5f27:	48 89 c7             	mov    rdi,rax
    5f2a:	e8 9f 09 00 00       	call   68ce <__cxa_finalize@plt+0x3cbe>
    5f2f:	48 89 45 f0          	mov    QWORD PTR [rbp-0x10],rax
    5f33:	48 8b 45 d8          	mov    rax,QWORD PTR [rbp-0x28]
    5f37:	48 8b 55 d0          	mov    rdx,QWORD PTR [rbp-0x30]
    5f3b:	48 89 d6             	mov    rsi,rdx
    5f3e:	48 89 c7             	mov    rdi,rax
    5f41:	e8 b6 08 00 00       	call   67fc <__cxa_finalize@plt+0x3bec>
    5f46:	48 89 45 e8          	mov    QWORD PTR [rbp-0x18],rax
    5f4a:	48 8d 55 f0          	lea    rdx,[rbp-0x10]
    5f4e:	48 8d 45 e8          	lea    rax,[rbp-0x18]
    5f52:	48 89 d6             	mov    rsi,rdx
    5f55:	48 89 c7             	mov    rdi,rax
    5f58:	e8 bd 09 00 00       	call   691a <__cxa_finalize@plt+0x3d0a>
    5f5d:	84 c0                	test   al,al
    5f5f:	74 07                	je     5f68 <__cxa_finalize@plt+0x3358>
    5f61:	b8 00 00 00 00       	mov    eax,0x0
    5f66:	eb 05                	jmp    5f6d <__cxa_finalize@plt+0x335d>
    5f68:	b8 01 00 00 00       	mov    eax,0x1
    5f6d:	48 8b 4d f8          	mov    rcx,QWORD PTR [rbp-0x8]
    5f71:	64 48 33 0c 25 28 00 	xor    rcx,QWORD PTR fs:0x28
    5f78:	00 00 
    5f7a:	74 05                	je     5f81 <__cxa_finalize@plt+0x3371>
    5f7c:	e8 7f ca ff ff       	call   2a00 <__stack_chk_fail@plt>
    5f81:	c9                   	leave  
    5f82:	c3                   	ret    
    5f83:	90                   	nop
    5f84:	55                   	push   rbp
    5f85:	48 89 e5             	mov    rbp,rsp
    5f88:	48 83 ec 10          	sub    rsp,0x10
    5f8c:	48 89 7d f8          	mov    QWORD PTR [rbp-0x8],rdi
    5f90:	48 89 75 f0          	mov    QWORD PTR [rbp-0x10],rsi
    5f94:	48 8b 45 f8          	mov    rax,QWORD PTR [rbp-0x8]
    5f98:	48 8b 55 f0          	mov    rdx,QWORD PTR [rbp-0x10]
    5f9c:	48 89 d6             	mov    rsi,rdx
    5f9f:	48 89 c7             	mov    rdi,rax
    5fa2:	e8 03 00 00 00       	call   5faa <__cxa_finalize@plt+0x339a>
    5fa7:	90                   	nop
    5fa8:	c9                   	leave  
    5fa9:	c3                   	ret    
    5faa:	55                   	push   rbp
    5fab:	48 89 e5             	mov    rbp,rsp
    5fae:	48 83 ec 10          	sub    rsp,0x10
    5fb2:	48 89 7d f8          	mov    QWORD PTR [rbp-0x8],rdi
    5fb6:	48 89 75 f0          	mov    QWORD PTR [rbp-0x10],rsi
    5fba:	48 8b 45 f8          	mov    rax,QWORD PTR [rbp-0x8]
    5fbe:	48 8b 55 f0          	mov    rdx,QWORD PTR [rbp-0x10]
    5fc2:	48 89 d6             	mov    rsi,rdx
    5fc5:	48 89 c7             	mov    rdi,rax
    5fc8:	e8 03 00 00 00       	call   5fd0 <__cxa_finalize@plt+0x33c0>
    5fcd:	90                   	nop
    5fce:	c9                   	leave  
    5fcf:	c3                   	ret    
    5fd0:	55                   	push   rbp
    5fd1:	48 89 e5             	mov    rbp,rsp
    5fd4:	48 89 7d f8          	mov    QWORD PTR [rbp-0x8],rdi
    5fd8:	48 89 75 f0          	mov    QWORD PTR [rbp-0x10],rsi
    5fdc:	48 8b 45 f8          	mov    rax,QWORD PTR [rbp-0x8]
    5fe0:	48 8b 55 f0          	mov    rdx,QWORD PTR [rbp-0x10]
    5fe4:	48 89 10             	mov    QWORD PTR [rax],rdx
    5fe7:	90                   	nop
    5fe8:	5d                   	pop    rbp
    5fe9:	c3                   	ret    
    5fea:	55                   	push   rbp
    5feb:	48 89 e5             	mov    rbp,rsp
    5fee:	53                   	push   rbx
    5fef:	48 83 ec 48          	sub    rsp,0x48
    5ff3:	48 89 7d b8          	mov    QWORD PTR [rbp-0x48],rdi
    5ff7:	48 89 75 b0          	mov    QWORD PTR [rbp-0x50],rsi
    5ffb:	64 48 8b 04 25 28 00 	mov    rax,QWORD PTR fs:0x28
    6002:	00 00 
    6004:	48 89 45 e8          	mov    QWORD PTR [rbp-0x18],rax
    6008:	31 c0                	xor    eax,eax
    600a:	48 8b 55 b0          	mov    rdx,QWORD PTR [rbp-0x50]
    600e:	48 8b 45 b8          	mov    rax,QWORD PTR [rbp-0x48]
    6012:	48 89 d6             	mov    rsi,rdx
    6015:	48 89 c7             	mov    rdi,rax
    6018:	e8 e5 05 00 00       	call   6602 <__cxa_finalize@plt+0x39f2>
    601d:	48 89 45 d0          	mov    QWORD PTR [rbp-0x30],rax
    6021:	48 8b 45 b8          	mov    rax,QWORD PTR [rbp-0x48]
    6025:	48 89 c7             	mov    rdi,rax
    6028:	e8 fb 05 00 00       	call   6628 <__cxa_finalize@plt+0x3a18>
    602d:	48 89 45 e0          	mov    QWORD PTR [rbp-0x20],rax
    6031:	48 8d 55 e0          	lea    rdx,[rbp-0x20]
    6035:	48 8d 45 d0          	lea    rax,[rbp-0x30]
    6039:	48 89 d6             	mov    rsi,rdx
    603c:	48 89 c7             	mov    rdi,rax
    603f:	e8 fe 05 00 00       	call   6642 <__cxa_finalize@plt+0x3a32>
    6044:	84 c0                	test   al,al
    6046:	75 32                	jne    607a <__cxa_finalize@plt+0x346a>
    6048:	48 8b 45 b8          	mov    rax,QWORD PTR [rbp-0x48]
    604c:	48 89 c7             	mov    rdi,rax
    604f:	e8 10 06 00 00       	call   6664 <__cxa_finalize@plt+0x3a54>
    6054:	48 8d 45 d0          	lea    rax,[rbp-0x30]
    6058:	48 89 c7             	mov    rdi,rax
    605b:	e8 26 06 00 00       	call   6686 <__cxa_finalize@plt+0x3a76>
    6060:	48 89 c2             	mov    rdx,rax
    6063:	48 8b 4d b0          	mov    rcx,QWORD PTR [rbp-0x50]
    6067:	48 8d 45 d8          	lea    rax,[rbp-0x28]
    606b:	48 89 ce             	mov    rsi,rcx
    606e:	48 89 c7             	mov    rdi,rax
    6071:	e8 72 03 00 00       	call   63e8 <__cxa_finalize@plt+0x37d8>
    6076:	84 c0                	test   al,al
    6078:	74 07                	je     6081 <__cxa_finalize@plt+0x3471>
    607a:	b8 01 00 00 00       	mov    eax,0x1
    607f:	eb 05                	jmp    6086 <__cxa_finalize@plt+0x3476>
    6081:	b8 00 00 00 00       	mov    eax,0x0
    6086:	84 c0                	test   al,al
    6088:	74 52                	je     60dc <__cxa_finalize@plt+0x34cc>
    608a:	48 8b 5d b8          	mov    rbx,QWORD PTR [rbp-0x48]
    608e:	48 8b 55 b0          	mov    rdx,QWORD PTR [rbp-0x50]
    6092:	48 8d 45 d8          	lea    rax,[rbp-0x28]
    6096:	48 89 d6             	mov    rsi,rdx
    6099:	48 89 c7             	mov    rdi,rax
    609c:	e8 e3 fe ff ff       	call   5f84 <__cxa_finalize@plt+0x3374>
    60a1:	48 8d 55 d0          	lea    rdx,[rbp-0x30]
    60a5:	48 8d 45 e0          	lea    rax,[rbp-0x20]
    60a9:	48 89 d6             	mov    rsi,rdx
    60ac:	48 89 c7             	mov    rdi,rax
    60af:	e8 f0 05 00 00       	call   66a4 <__cxa_finalize@plt+0x3a94>
    60b4:	48 8d 4d cf          	lea    rcx,[rbp-0x31]
    60b8:	48 8d 55 d8          	lea    rdx,[rbp-0x28]
    60bc:	48 8b 45 e0          	mov    rax,QWORD PTR [rbp-0x20]
    60c0:	49 89 c8             	mov    r8,rcx
    60c3:	48 89 d1             	mov    rcx,rdx
    60c6:	48 8d 15 4b 36 00 00 	lea    rdx,[rip+0x364b]        # 9718 <__cxa_finalize@plt+0x6b08>
    60cd:	48 89 c6             	mov    rsi,rax
    60d0:	48 89 df             	mov    rdi,rbx
    60d3:	e8 72 08 00 00       	call   694a <__cxa_finalize@plt+0x3d3a>
    60d8:	48 89 45 d0          	mov    QWORD PTR [rbp-0x30],rax
    60dc:	48 8d 45 d0          	lea    rax,[rbp-0x30]
    60e0:	48 89 c7             	mov    rdi,rax
    60e3:	e8 9e 05 00 00       	call   6686 <__cxa_finalize@plt+0x3a76>
    60e8:	48 83 c0 04          	add    rax,0x4
    60ec:	48 8b 5d e8          	mov    rbx,QWORD PTR [rbp-0x18]
    60f0:	64 48 33 1c 25 28 00 	xor    rbx,QWORD PTR fs:0x28
    60f7:	00 00 
    60f9:	74 05                	je     6100 <__cxa_finalize@plt+0x34f0>
    60fb:	e8 00 c9 ff ff       	call   2a00 <__stack_chk_fail@plt>
    6100:	48 83 c4 48          	add    rsp,0x48
    6104:	5b                   	pop    rbx
    6105:	5d                   	pop    rbp
    6106:	c3                   	ret    
    6107:	90                   	nop
    6108:	55                   	push   rbp
    6109:	48 89 e5             	mov    rbp,rsp
    610c:	53                   	push   rbx
    610d:	48 83 ec 48          	sub    rsp,0x48
    6111:	48 89 7d b8          	mov    QWORD PTR [rbp-0x48],rdi
    6115:	48 89 75 b0          	mov    QWORD PTR [rbp-0x50],rsi
    6119:	64 48 8b 04 25 28 00 	mov    rax,QWORD PTR fs:0x28
    6120:	00 00 
    6122:	48 89 45 e8          	mov    QWORD PTR [rbp-0x18],rax
    6126:	31 c0                	xor    eax,eax
    6128:	48 8b 55 b0          	mov    rdx,QWORD PTR [rbp-0x50]
    612c:	48 8b 45 b8          	mov    rax,QWORD PTR [rbp-0x48]
    6130:	48 89 d6             	mov    rsi,rdx
    6133:	48 89 c7             	mov    rdi,rax
    6136:	e8 0b 02 00 00       	call   6346 <__cxa_finalize@plt+0x3736>
    613b:	48 89 45 d0          	mov    QWORD PTR [rbp-0x30],rax
    613f:	48 8b 45 b8          	mov    rax,QWORD PTR [rbp-0x48]
    6143:	48 89 c7             	mov    rdi,rax
    6146:	e8 21 02 00 00       	call   636c <__cxa_finalize@plt+0x375c>
    614b:	48 89 45 e0          	mov    QWORD PTR [rbp-0x20],rax
    614f:	48 8d 55 e0          	lea    rdx,[rbp-0x20]
    6153:	48 8d 45 d0          	lea    rax,[rbp-0x30]
    6157:	48 89 d6             	mov    rsi,rdx
    615a:	48 89 c7             	mov    rdi,rax
    615d:	e8 24 02 00 00       	call   6386 <__cxa_finalize@plt+0x3776>
    6162:	84 c0                	test   al,al
    6164:	75 32                	jne    6198 <__cxa_finalize@plt+0x3588>
    6166:	48 8b 45 b8          	mov    rax,QWORD PTR [rbp-0x48]
    616a:	48 89 c7             	mov    rdi,rax
    616d:	e8 36 02 00 00       	call   63a8 <__cxa_finalize@plt+0x3798>
    6172:	48 8d 45 d0          	lea    rax,[rbp-0x30]
    6176:	48 89 c7             	mov    rdi,rax
    6179:	e8 4c 02 00 00       	call   63ca <__cxa_finalize@plt+0x37ba>
    617e:	48 89 c2             	mov    rdx,rax
    6181:	48 8b 4d b0          	mov    rcx,QWORD PTR [rbp-0x50]
    6185:	48 8d 45 d8          	lea    rax,[rbp-0x28]
    6189:	48 89 ce             	mov    rsi,rcx
    618c:	48 89 c7             	mov    rdi,rax
    618f:	e8 54 02 00 00       	call   63e8 <__cxa_finalize@plt+0x37d8>
    6194:	84 c0                	test   al,al
    6196:	74 07                	je     619f <__cxa_finalize@plt+0x358f>
    6198:	b8 01 00 00 00       	mov    eax,0x1
    619d:	eb 05                	jmp    61a4 <__cxa_finalize@plt+0x3594>
    619f:	b8 00 00 00 00       	mov    eax,0x0
    61a4:	84 c0                	test   al,al
    61a6:	74 52                	je     61fa <__cxa_finalize@plt+0x35ea>
    61a8:	48 8b 5d b8          	mov    rbx,QWORD PTR [rbp-0x48]
    61ac:	48 8b 55 b0          	mov    rdx,QWORD PTR [rbp-0x50]
    61b0:	48 8d 45 d8          	lea    rax,[rbp-0x28]
    61b4:	48 89 d6             	mov    rsi,rdx
    61b7:	48 89 c7             	mov    rdi,rax
    61ba:	e8 c5 fd ff ff       	call   5f84 <__cxa_finalize@plt+0x3374>
    61bf:	48 8d 55 d0          	lea    rdx,[rbp-0x30]
    61c3:	48 8d 45 e0          	lea    rax,[rbp-0x20]
    61c7:	48 89 d6             	mov    rsi,rdx
    61ca:	48 89 c7             	mov    rdi,rax
    61cd:	e8 3a 02 00 00       	call   640c <__cxa_finalize@plt+0x37fc>
    61d2:	48 8d 4d cf          	lea    rcx,[rbp-0x31]
    61d6:	48 8d 55 d8          	lea    rdx,[rbp-0x28]
    61da:	48 8b 45 e0          	mov    rax,QWORD PTR [rbp-0x20]
    61de:	49 89 c8             	mov    r8,rcx
    61e1:	48 89 d1             	mov    rcx,rdx
    61e4:	48 8d 15 2d 35 00 00 	lea    rdx,[rip+0x352d]        # 9718 <__cxa_finalize@plt+0x6b08>
    61eb:	48 89 c6             	mov    rsi,rax
    61ee:	48 89 df             	mov    rdi,rbx
    61f1:	e8 8e 08 00 00       	call   6a84 <__cxa_finalize@plt+0x3e74>
    61f6:	48 89 45 d0          	mov    QWORD PTR [rbp-0x30],rax
    61fa:	48 8d 45 d0          	lea    rax,[rbp-0x30]
    61fe:	48 89 c7             	mov    rdi,rax
    6201:	e8 c4 01 00 00       	call   63ca <__cxa_finalize@plt+0x37ba>
    6206:	48 83 c0 04          	add    rax,0x4
    620a:	48 8b 5d e8          	mov    rbx,QWORD PTR [rbp-0x18]
    620e:	64 48 33 1c 25 28 00 	xor    rbx,QWORD PTR fs:0x28
    6215:	00 00 
    6217:	74 05                	je     621e <__cxa_finalize@plt+0x360e>
    6219:	e8 e2 c7 ff ff       	call   2a00 <__stack_chk_fail@plt>
    621e:	48 83 c4 48          	add    rsp,0x48
    6222:	5b                   	pop    rbx
    6223:	5d                   	pop    rbp
    6224:	c3                   	ret    
    6225:	90                   	nop
    6226:	55                   	push   rbp
    6227:	48 89 e5             	mov    rbp,rsp
    622a:	48 89 7d f8          	mov    QWORD PTR [rbp-0x8],rdi
    622e:	90                   	nop
    622f:	5d                   	pop    rbp
    6230:	c3                   	ret    
    6231:	90                   	nop
    6232:	55                   	push   rbp
    6233:	48 89 e5             	mov    rbp,rsp
    6236:	48 89 7d f8          	mov    QWORD PTR [rbp-0x8],rdi
    623a:	90                   	nop
    623b:	5d                   	pop    rbp
    623c:	c3                   	ret    
    623d:	90                   	nop
    623e:	55                   	push   rbp
    623f:	48 89 e5             	mov    rbp,rsp
    6242:	48 83 ec 20          	sub    rsp,0x20
    6246:	48 89 7d e8          	mov    QWORD PTR [rbp-0x18],rdi
    624a:	48 89 75 e0          	mov    QWORD PTR [rbp-0x20],rsi
    624e:	48 83 7d e0 00       	cmp    QWORD PTR [rbp-0x20],0x0
    6253:	74 4b                	je     62a0 <__cxa_finalize@plt+0x3690>
    6255:	48 8b 45 e0          	mov    rax,QWORD PTR [rbp-0x20]
    6259:	48 89 c7             	mov    rdi,rax
    625c:	e8 5d 09 00 00       	call   6bbe <__cxa_finalize@plt+0x3fae>
    6261:	48 89 c2             	mov    rdx,rax
    6264:	48 8b 45 e8          	mov    rax,QWORD PTR [rbp-0x18]
    6268:	48 89 d6             	mov    rsi,rdx
    626b:	48 89 c7             	mov    rdi,rax
    626e:	e8 cb ff ff ff       	call   623e <__cxa_finalize@plt+0x362e>
    6273:	48 8b 45 e0          	mov    rax,QWORD PTR [rbp-0x20]
    6277:	48 89 c7             	mov    rdi,rax
    627a:	e8 51 09 00 00       	call   6bd0 <__cxa_finalize@plt+0x3fc0>
    627f:	48 89 45 f8          	mov    QWORD PTR [rbp-0x8],rax
    6283:	48 8b 55 e0          	mov    rdx,QWORD PTR [rbp-0x20]
    6287:	48 8b 45 e8          	mov    rax,QWORD PTR [rbp-0x18]
    628b:	48 89 d6             	mov    rsi,rdx
    628e:	48 89 c7             	mov    rdi,rax
    6291:	e8 4c 09 00 00       	call   6be2 <__cxa_finalize@plt+0x3fd2>
    6296:	48 8b 45 f8          	mov    rax,QWORD PTR [rbp-0x8]
    629a:	48 89 45 e0          	mov    QWORD PTR [rbp-0x20],rax
    629e:	eb ae                	jmp    624e <__cxa_finalize@plt+0x363e>
    62a0:	90                   	nop
    62a1:	c9                   	leave  
    62a2:	c3                   	ret    
    62a3:	90                   	nop
    62a4:	55                   	push   rbp
    62a5:	48 89 e5             	mov    rbp,rsp
    62a8:	48 89 7d f8          	mov    QWORD PTR [rbp-0x8],rdi
    62ac:	48 8b 45 f8          	mov    rax,QWORD PTR [rbp-0x8]
    62b0:	48 8b 40 10          	mov    rax,QWORD PTR [rax+0x10]
    62b4:	5d                   	pop    rbp
    62b5:	c3                   	ret    
    62b6:	55                   	push   rbp
    62b7:	48 89 e5             	mov    rbp,rsp
    62ba:	48 89 7d f8          	mov    QWORD PTR [rbp-0x8],rdi
    62be:	90                   	nop
    62bf:	5d                   	pop    rbp
    62c0:	c3                   	ret    
    62c1:	90                   	nop
    62c2:	55                   	push   rbp
    62c3:	48 89 e5             	mov    rbp,rsp
    62c6:	48 89 7d f8          	mov    QWORD PTR [rbp-0x8],rdi
    62ca:	90                   	nop
    62cb:	5d                   	pop    rbp
    62cc:	c3                   	ret    
    62cd:	90                   	nop
    62ce:	55                   	push   rbp
    62cf:	48 89 e5             	mov    rbp,rsp
    62d2:	48 83 ec 20          	sub    rsp,0x20
    62d6:	48 89 7d e8          	mov    QWORD PTR [rbp-0x18],rdi
    62da:	48 89 75 e0          	mov    QWORD PTR [rbp-0x20],rsi
    62de:	48 83 7d e0 00       	cmp    QWORD PTR [rbp-0x20],0x0
    62e3:	74 4b                	je     6330 <__cxa_finalize@plt+0x3720>
    62e5:	48 8b 45 e0          	mov    rax,QWORD PTR [rbp-0x20]
    62e9:	48 89 c7             	mov    rdi,rax
    62ec:	e8 2a 09 00 00       	call   6c1b <__cxa_finalize@plt+0x400b>
    62f1:	48 89 c2             	mov    rdx,rax
    62f4:	48 8b 45 e8          	mov    rax,QWORD PTR [rbp-0x18]
    62f8:	48 89 d6             	mov    rsi,rdx
    62fb:	48 89 c7             	mov    rdi,rax
    62fe:	e8 cb ff ff ff       	call   62ce <__cxa_finalize@plt+0x36be>
    6303:	48 8b 45 e0          	mov    rax,QWORD PTR [rbp-0x20]
    6307:	48 89 c7             	mov    rdi,rax
    630a:	e8 1e 09 00 00       	call   6c2d <__cxa_finalize@plt+0x401d>
    630f:	48 89 45 f8          	mov    QWORD PTR [rbp-0x8],rax
    6313:	48 8b 55 e0          	mov    rdx,QWORD PTR [rbp-0x20]
    6317:	48 8b 45 e8          	mov    rax,QWORD PTR [rbp-0x18]
    631b:	48 89 d6             	mov    rsi,rdx
    631e:	48 89 c7             	mov    rdi,rax
    6321:	e8 1a 09 00 00       	call   6c40 <__cxa_finalize@plt+0x4030>
    6326:	48 8b 45 f8          	mov    rax,QWORD PTR [rbp-0x8]
    632a:	48 89 45 e0          	mov    QWORD PTR [rbp-0x20],rax
    632e:	eb ae                	jmp    62de <__cxa_finalize@plt+0x36ce>
    6330:	90                   	nop
    6331:	c9                   	leave  
    6332:	c3                   	ret    
    6333:	90                   	nop
    6334:	55                   	push   rbp
    6335:	48 89 e5             	mov    rbp,rsp
    6338:	48 89 7d f8          	mov    QWORD PTR [rbp-0x8],rdi
    633c:	48 8b 45 f8          	mov    rax,QWORD PTR [rbp-0x8]
    6340:	48 8b 40 10          	mov    rax,QWORD PTR [rax+0x10]
    6344:	5d                   	pop    rbp
    6345:	c3                   	ret    
    6346:	55                   	push   rbp
    6347:	48 89 e5             	mov    rbp,rsp
    634a:	48 83 ec 10          	sub    rsp,0x10
    634e:	48 89 7d f8          	mov    QWORD PTR [rbp-0x8],rdi
    6352:	48 89 75 f0          	mov    QWORD PTR [rbp-0x10],rsi
    6356:	48 8b 45 f8          	mov    rax,QWORD PTR [rbp-0x8]
    635a:	48 8b 55 f0          	mov    rdx,QWORD PTR [rbp-0x10]
    635e:	48 89 d6             	mov    rsi,rdx
    6361:	48 89 c7             	mov    rdi,rax
    6364:	e8 11 09 00 00       	call   6c7a <__cxa_finalize@plt+0x406a>
    6369:	c9                   	leave  
    636a:	c3                   	ret    
    636b:	90                   	nop
    636c:	55                   	push   rbp
    636d:	48 89 e5             	mov    rbp,rsp
    6370:	48 83 ec 10          	sub    rsp,0x10
    6374:	48 89 7d f8          	mov    QWORD PTR [rbp-0x8],rdi
    6378:	48 8b 45 f8          	mov    rax,QWORD PTR [rbp-0x8]
    637c:	48 89 c7             	mov    rdi,rax
    637f:	e8 42 09 00 00       	call   6cc6 <__cxa_finalize@plt+0x40b6>
    6384:	c9                   	leave  
    6385:	c3                   	ret    
    6386:	55                   	push   rbp
    6387:	48 89 e5             	mov    rbp,rsp
    638a:	48 89 7d f8          	mov    QWORD PTR [rbp-0x8],rdi
    638e:	48 89 75 f0          	mov    QWORD PTR [rbp-0x10],rsi
    6392:	48 8b 45 f8          	mov    rax,QWORD PTR [rbp-0x8]
    6396:	48 8b 10             	mov    rdx,QWORD PTR [rax]
    6399:	48 8b 45 f0          	mov    rax,QWORD PTR [rbp-0x10]
    639d:	48 8b 00             	mov    rax,QWORD PTR [rax]
    63a0:	48 39 c2             	cmp    rdx,rax
    63a3:	0f 94 c0             	sete   al
    63a6:	5d                   	pop    rbp
    63a7:	c3                   	ret    
    63a8:	55                   	push   rbp
    63a9:	48 89 e5             	mov    rbp,rsp
    63ac:	53                   	push   rbx
    63ad:	48 83 ec 18          	sub    rsp,0x18
    63b1:	48 89 7d e8          	mov    QWORD PTR [rbp-0x18],rdi
    63b5:	48 8b 45 e8          	mov    rax,QWORD PTR [rbp-0x18]
    63b9:	48 89 c7             	mov    rdi,rax
    63bc:	e8 51 09 00 00       	call   6d12 <__cxa_finalize@plt+0x4102>
    63c1:	89 d8                	mov    eax,ebx
    63c3:	48 83 c4 18          	add    rsp,0x18
    63c7:	5b                   	pop    rbx
    63c8:	5d                   	pop    rbp
    63c9:	c3                   	ret    
    63ca:	55                   	push   rbp
    63cb:	48 89 e5             	mov    rbp,rsp
    63ce:	48 83 ec 10          	sub    rsp,0x10
    63d2:	48 89 7d f8          	mov    QWORD PTR [rbp-0x8],rdi
    63d6:	48 8b 45 f8          	mov    rax,QWORD PTR [rbp-0x8]
    63da:	48 8b 00             	mov    rax,QWORD PTR [rax]
    63dd:	48 89 c7             	mov    rdi,rax
    63e0:	e8 37 09 00 00       	call   6d1c <__cxa_finalize@plt+0x410c>
    63e5:	c9                   	leave  
    63e6:	c3                   	ret    
    63e7:	90                   	nop
    63e8:	55                   	push   rbp
    63e9:	48 89 e5             	mov    rbp,rsp
    63ec:	48 89 7d f8          	mov    QWORD PTR [rbp-0x8],rdi
    63f0:	48 89 75 f0          	mov    QWORD PTR [rbp-0x10],rsi
    63f4:	48 89 55 e8          	mov    QWORD PTR [rbp-0x18],rdx
    63f8:	48 8b 45 f0          	mov    rax,QWORD PTR [rbp-0x10]
    63fc:	8b 10                	mov    edx,DWORD PTR [rax]
    63fe:	48 8b 45 e8          	mov    rax,QWORD PTR [rbp-0x18]
    6402:	8b 00                	mov    eax,DWORD PTR [rax]
    6404:	39 c2                	cmp    edx,eax
    6406:	0f 9c c0             	setl   al
    6409:	5d                   	pop    rbp
    640a:	c3                   	ret    
    640b:	90                   	nop
    640c:	55                   	push   rbp
    640d:	48 89 e5             	mov    rbp,rsp
    6410:	48 89 7d f8          	mov    QWORD PTR [rbp-0x8],rdi
    6414:	48 89 75 f0          	mov    QWORD PTR [rbp-0x10],rsi
    6418:	48 8b 45 f0          	mov    rax,QWORD PTR [rbp-0x10]
    641c:	48 8b 10             	mov    rdx,QWORD PTR [rax]
    641f:	48 8b 45 f8          	mov    rax,QWORD PTR [rbp-0x8]
    6423:	48 89 10             	mov    QWORD PTR [rax],rdx
    6426:	90                   	nop
    6427:	5d                   	pop    rbp
    6428:	c3                   	ret    
    6429:	55                   	push   rbp
    642a:	48 89 e5             	mov    rbp,rsp
    642d:	48 83 ec 10          	sub    rsp,0x10
    6431:	48 89 7d f8          	mov    QWORD PTR [rbp-0x8],rdi
    6435:	48 8b 45 f8          	mov    rax,QWORD PTR [rbp-0x8]
    6439:	48 89 c7             	mov    rdi,rax
    643c:	e8 02 00 00 00       	call   6443 <__cxa_finalize@plt+0x3833>
    6441:	c9                   	leave  
    6442:	c3                   	ret    
    6443:	55                   	push   rbp
    6444:	48 89 e5             	mov    rbp,rsp
    6447:	48 89 7d f8          	mov    QWORD PTR [rbp-0x8],rdi
    644b:	48 8b 45 f8          	mov    rax,QWORD PTR [rbp-0x8]
    644f:	48 8b 00             	mov    rax,QWORD PTR [rax]
    6452:	5d                   	pop    rbp
    6453:	c3                   	ret    
    6454:	55                   	push   rbp
    6455:	48 89 e5             	mov    rbp,rsp
    6458:	48 89 7d f8          	mov    QWORD PTR [rbp-0x8],rdi
    645c:	48 8b 45 f8          	mov    rax,QWORD PTR [rbp-0x8]
    6460:	5d                   	pop    rbp
    6461:	c3                   	ret    
    6462:	55                   	push   rbp
    6463:	48 89 e5             	mov    rbp,rsp
    6466:	53                   	push   rbx
    6467:	48 83 ec 18          	sub    rsp,0x18
    646b:	48 89 7d e8          	mov    QWORD PTR [rbp-0x18],rdi
    646f:	48 89 75 e0          	mov    QWORD PTR [rbp-0x20],rsi
    6473:	48 8b 5d e8          	mov    rbx,QWORD PTR [rbp-0x18]
    6477:	48 8b 45 e0          	mov    rax,QWORD PTR [rbp-0x20]
    647b:	48 89 c7             	mov    rdi,rax
    647e:	e8 a6 ff ff ff       	call   6429 <__cxa_finalize@plt+0x3819>
    6483:	48 89 c7             	mov    rdi,rax
    6486:	e8 c9 ff ff ff       	call   6454 <__cxa_finalize@plt+0x3844>
    648b:	48 89 c6             	mov    rsi,rax
    648e:	48 89 df             	mov    rdi,rbx
    6491:	e8 9a f7 ff ff       	call   5c30 <__cxa_finalize@plt+0x3020>
    6496:	90                   	nop
    6497:	48 83 c4 18          	add    rsp,0x18
    649b:	5b                   	pop    rbx
    649c:	5d                   	pop    rbp
    649d:	c3                   	ret    
    649e:	55                   	push   rbp
    649f:	48 89 e5             	mov    rbp,rsp
    64a2:	48 89 7d f8          	mov    QWORD PTR [rbp-0x8],rdi
    64a6:	48 8b 45 f8          	mov    rax,QWORD PTR [rbp-0x8]
    64aa:	5d                   	pop    rbp
    64ab:	c3                   	ret    
    64ac:	55                   	push   rbp
    64ad:	48 89 e5             	mov    rbp,rsp
    64b0:	48 89 7d f8          	mov    QWORD PTR [rbp-0x8],rdi
    64b4:	48 8b 45 f8          	mov    rax,QWORD PTR [rbp-0x8]
    64b8:	5d                   	pop    rbp
    64b9:	c3                   	ret    
    64ba:	55                   	push   rbp
    64bb:	48 89 e5             	mov    rbp,rsp
    64be:	48 89 7d f8          	mov    QWORD PTR [rbp-0x8],rdi
    64c2:	48 8b 45 f8          	mov    rax,QWORD PTR [rbp-0x8]
    64c6:	5d                   	pop    rbp
    64c7:	c3                   	ret    
    64c8:	55                   	push   rbp
    64c9:	48 89 e5             	mov    rbp,rsp
    64cc:	41 54                	push   r12
    64ce:	53                   	push   rbx
    64cf:	48 83 ec 60          	sub    rsp,0x60
    64d3:	48 89 7d b8          	mov    QWORD PTR [rbp-0x48],rdi
    64d7:	48 89 75 b0          	mov    QWORD PTR [rbp-0x50],rsi
    64db:	48 89 55 a8          	mov    QWORD PTR [rbp-0x58],rdx
    64df:	48 89 4d a0          	mov    QWORD PTR [rbp-0x60],rcx
    64e3:	4c 89 45 98          	mov    QWORD PTR [rbp-0x68],r8
    64e7:	64 48 8b 04 25 28 00 	mov    rax,QWORD PTR fs:0x28
    64ee:	00 00 
    64f0:	48 89 45 e8          	mov    QWORD PTR [rbp-0x18],rax
    64f4:	31 c0                	xor    eax,eax
    64f6:	48 8b 45 98          	mov    rax,QWORD PTR [rbp-0x68]
    64fa:	48 89 c7             	mov    rdi,rax
    64fd:	e8 b8 ff ff ff       	call   64ba <__cxa_finalize@plt+0x38aa>
    6502:	49 89 c4             	mov    r12,rax
    6505:	48 8b 45 a0          	mov    rax,QWORD PTR [rbp-0x60]
    6509:	48 89 c7             	mov    rdi,rax
    650c:	e8 9b ff ff ff       	call   64ac <__cxa_finalize@plt+0x389c>
    6511:	48 89 c3             	mov    rbx,rax
    6514:	48 8b 45 a8          	mov    rax,QWORD PTR [rbp-0x58]
    6518:	48 89 c7             	mov    rdi,rax
    651b:	e8 7e ff ff ff       	call   649e <__cxa_finalize@plt+0x388e>
    6520:	48 89 c6             	mov    rsi,rax
    6523:	48 8b 45 b8          	mov    rax,QWORD PTR [rbp-0x48]
    6527:	4c 89 e1             	mov    rcx,r12
    652a:	48 89 da             	mov    rdx,rbx
    652d:	48 89 c7             	mov    rdi,rax
    6530:	e8 05 08 00 00       	call   6d3a <__cxa_finalize@plt+0x412a>
    6535:	48 89 45 c8          	mov    QWORD PTR [rbp-0x38],rax
    6539:	48 8b 45 c8          	mov    rax,QWORD PTR [rbp-0x38]
    653d:	48 89 c7             	mov    rdi,rax
    6540:	e8 e0 0c 00 00       	call   7225 <__cxa_finalize@plt+0x4615>
    6545:	48 89 c2             	mov    rdx,rax
    6548:	48 8b 4d b0          	mov    rcx,QWORD PTR [rbp-0x50]
    654c:	48 8b 45 b8          	mov    rax,QWORD PTR [rbp-0x48]
    6550:	48 89 ce             	mov    rsi,rcx
    6553:	48 89 c7             	mov    rdi,rax
    6556:	e8 25 09 00 00       	call   6e80 <__cxa_finalize@plt+0x4270>
    655b:	48 89 45 d0          	mov    QWORD PTR [rbp-0x30],rax
    655f:	48 89 55 d8          	mov    QWORD PTR [rbp-0x28],rdx
    6563:	48 8b 45 d8          	mov    rax,QWORD PTR [rbp-0x28]
    6567:	48 85 c0             	test   rax,rax
    656a:	74 1a                	je     6586 <__cxa_finalize@plt+0x3976>
    656c:	48 8b 55 d8          	mov    rdx,QWORD PTR [rbp-0x28]
    6570:	48 8b 75 d0          	mov    rsi,QWORD PTR [rbp-0x30]
    6574:	48 8b 4d c8          	mov    rcx,QWORD PTR [rbp-0x38]
    6578:	48 8b 45 b8          	mov    rax,QWORD PTR [rbp-0x48]
    657c:	48 89 c7             	mov    rdi,rax
    657f:	e8 f0 0c 00 00       	call   7274 <__cxa_finalize@plt+0x4664>
    6584:	eb 2a                	jmp    65b0 <__cxa_finalize@plt+0x39a0>
    6586:	48 8b 55 c8          	mov    rdx,QWORD PTR [rbp-0x38]
    658a:	48 8b 45 b8          	mov    rax,QWORD PTR [rbp-0x48]
    658e:	48 89 d6             	mov    rsi,rdx
    6591:	48 89 c7             	mov    rdi,rax
    6594:	e8 49 06 00 00       	call   6be2 <__cxa_finalize@plt+0x3fd2>
    6599:	48 8b 55 d0          	mov    rdx,QWORD PTR [rbp-0x30]
    659d:	48 8d 45 c0          	lea    rax,[rbp-0x40]
    65a1:	48 89 d6             	mov    rsi,rdx
    65a4:	48 89 c7             	mov    rdi,rax
    65a7:	e8 ae 0d 00 00       	call   735a <__cxa_finalize@plt+0x474a>
    65ac:	48 8b 45 c0          	mov    rax,QWORD PTR [rbp-0x40]
    65b0:	48 8b 5d e8          	mov    rbx,QWORD PTR [rbp-0x18]
    65b4:	64 48 33 1c 25 28 00 	xor    rbx,QWORD PTR fs:0x28
    65bb:	00 00 
    65bd:	74 3a                	je     65f9 <__cxa_finalize@plt+0x39e9>
    65bf:	eb 33                	jmp    65f4 <__cxa_finalize@plt+0x39e4>
    65c1:	48 89 c7             	mov    rdi,rax
    65c4:	e8 87 c2 ff ff       	call   2850 <__cxa_begin_catch@plt>
    65c9:	48 8b 55 c8          	mov    rdx,QWORD PTR [rbp-0x38]
    65cd:	48 8b 45 b8          	mov    rax,QWORD PTR [rbp-0x48]
    65d1:	48 89 d6             	mov    rsi,rdx
    65d4:	48 89 c7             	mov    rdi,rax
    65d7:	e8 06 06 00 00       	call   6be2 <__cxa_finalize@plt+0x3fd2>
    65dc:	e8 df c4 ff ff       	call   2ac0 <__cxa_rethrow@plt>
    65e1:	48 89 c3             	mov    rbx,rax
    65e4:	e8 47 c5 ff ff       	call   2b30 <__cxa_end_catch@plt>
    65e9:	48 89 d8             	mov    rax,rbx
    65ec:	48 89 c7             	mov    rdi,rax
    65ef:	e8 9c c5 ff ff       	call   2b90 <_Unwind_Resume@plt>
    65f4:	e8 07 c4 ff ff       	call   2a00 <__stack_chk_fail@plt>
    65f9:	48 83 c4 60          	add    rsp,0x60
    65fd:	5b                   	pop    rbx
    65fe:	41 5c                	pop    r12
    6600:	5d                   	pop    rbp
    6601:	c3                   	ret    
    6602:	55                   	push   rbp
    6603:	48 89 e5             	mov    rbp,rsp
    6606:	48 83 ec 10          	sub    rsp,0x10
    660a:	48 89 7d f8          	mov    QWORD PTR [rbp-0x8],rdi
    660e:	48 89 75 f0          	mov    QWORD PTR [rbp-0x10],rsi
    6612:	48 8b 45 f8          	mov    rax,QWORD PTR [rbp-0x8]
    6616:	48 8b 55 f0          	mov    rdx,QWORD PTR [rbp-0x10]
    661a:	48 89 d6             	mov    rsi,rdx
    661d:	48 89 c7             	mov    rdi,rax
    6620:	e8 4f 0d 00 00       	call   7374 <__cxa_finalize@plt+0x4764>
    6625:	c9                   	leave  
    6626:	c3                   	ret    
    6627:	90                   	nop
    6628:	55                   	push   rbp
    6629:	48 89 e5             	mov    rbp,rsp
    662c:	48 83 ec 10          	sub    rsp,0x10
    6630:	48 89 7d f8          	mov    QWORD PTR [rbp-0x8],rdi
    6634:	48 8b 45 f8          	mov    rax,QWORD PTR [rbp-0x8]
    6638:	48 89 c7             	mov    rdi,rax
    663b:	e8 80 0d 00 00       	call   73c0 <__cxa_finalize@plt+0x47b0>
    6640:	c9                   	leave  
    6641:	c3                   	ret    
    6642:	55                   	push   rbp
    6643:	48 89 e5             	mov    rbp,rsp
    6646:	48 89 7d f8          	mov    QWORD PTR [rbp-0x8],rdi
    664a:	48 89 75 f0          	mov    QWORD PTR [rbp-0x10],rsi
    664e:	48 8b 45 f8          	mov    rax,QWORD PTR [rbp-0x8]
    6652:	48 8b 10             	mov    rdx,QWORD PTR [rax]
    6655:	48 8b 45 f0          	mov    rax,QWORD PTR [rbp-0x10]
    6659:	48 8b 00             	mov    rax,QWORD PTR [rax]
    665c:	48 39 c2             	cmp    rdx,rax
    665f:	0f 94 c0             	sete   al
    6662:	5d                   	pop    rbp
    6663:	c3                   	ret    
    6664:	55                   	push   rbp
    6665:	48 89 e5             	mov    rbp,rsp
    6668:	53                   	push   rbx
    6669:	48 83 ec 18          	sub    rsp,0x18
    666d:	48 89 7d e8          	mov    QWORD PTR [rbp-0x18],rdi
    6671:	48 8b 45 e8          	mov    rax,QWORD PTR [rbp-0x18]
    6675:	48 89 c7             	mov    rdi,rax
    6678:	e8 8f 0d 00 00       	call   740c <__cxa_finalize@plt+0x47fc>
    667d:	89 d8                	mov    eax,ebx
    667f:	48 83 c4 18          	add    rsp,0x18
    6683:	5b                   	pop    rbx
    6684:	5d                   	pop    rbp
    6685:	c3                   	ret    
    6686:	55                   	push   rbp
    6687:	48 89 e5             	mov    rbp,rsp
    668a:	48 83 ec 10          	sub    rsp,0x10
    668e:	48 89 7d f8          	mov    QWORD PTR [rbp-0x8],rdi
    6692:	48 8b 45 f8          	mov    rax,QWORD PTR [rbp-0x8]
    6696:	48 8b 00             	mov    rax,QWORD PTR [rax]
    6699:	48 89 c7             	mov    rdi,rax
    669c:	e8 75 0d 00 00       	call   7416 <__cxa_finalize@plt+0x4806>
    66a1:	c9                   	leave  
    66a2:	c3                   	ret    
    66a3:	90                   	nop
    66a4:	55                   	push   rbp
    66a5:	48 89 e5             	mov    rbp,rsp
    66a8:	48 89 7d f8          	mov    QWORD PTR [rbp-0x8],rdi
    66ac:	48 89 75 f0          	mov    QWORD PTR [rbp-0x10],rsi
    66b0:	48 8b 45 f0          	mov    rax,QWORD PTR [rbp-0x10]
    66b4:	48 8b 10             	mov    rdx,QWORD PTR [rax]
    66b7:	48 8b 45 f8          	mov    rax,QWORD PTR [rbp-0x8]
    66bb:	48 89 10             	mov    QWORD PTR [rax],rdx
    66be:	90                   	nop
    66bf:	5d                   	pop    rbp
    66c0:	c3                   	ret    
    66c1:	90                   	nop
    66c2:	55                   	push   rbp
    66c3:	48 89 e5             	mov    rbp,rsp
    66c6:	41 54                	push   r12
    66c8:	53                   	push   rbx
    66c9:	48 83 ec 60          	sub    rsp,0x60
    66cd:	48 89 7d b8          	mov    QWORD PTR [rbp-0x48],rdi
    66d1:	48 89 75 b0          	mov    QWORD PTR [rbp-0x50],rsi
    66d5:	48 89 55 a8          	mov    QWORD PTR [rbp-0x58],rdx
    66d9:	48 89 4d a0          	mov    QWORD PTR [rbp-0x60],rcx
    66dd:	4c 89 45 98          	mov    QWORD PTR [rbp-0x68],r8
    66e1:	64 48 8b 04 25 28 00 	mov    rax,QWORD PTR fs:0x28
    66e8:	00 00 
    66ea:	48 89 45 e8          	mov    QWORD PTR [rbp-0x18],rax
    66ee:	31 c0                	xor    eax,eax
    66f0:	48 8b 45 98          	mov    rax,QWORD PTR [rbp-0x68]
    66f4:	48 89 c7             	mov    rdi,rax
    66f7:	e8 be fd ff ff       	call   64ba <__cxa_finalize@plt+0x38aa>
    66fc:	49 89 c4             	mov    r12,rax
    66ff:	48 8b 45 a0          	mov    rax,QWORD PTR [rbp-0x60]
    6703:	48 89 c7             	mov    rdi,rax
    6706:	e8 a1 fd ff ff       	call   64ac <__cxa_finalize@plt+0x389c>
    670b:	48 89 c3             	mov    rbx,rax
    670e:	48 8b 45 a8          	mov    rax,QWORD PTR [rbp-0x58]
    6712:	48 89 c7             	mov    rdi,rax
    6715:	e8 84 fd ff ff       	call   649e <__cxa_finalize@plt+0x388e>
    671a:	48 89 c6             	mov    rsi,rax
    671d:	48 8b 45 b8          	mov    rax,QWORD PTR [rbp-0x48]
    6721:	4c 89 e1             	mov    rcx,r12
    6724:	48 89 da             	mov    rdx,rbx
    6727:	48 89 c7             	mov    rdi,rax
    672a:	e8 05 0d 00 00       	call   7434 <__cxa_finalize@plt+0x4824>
    672f:	48 89 45 c8          	mov    QWORD PTR [rbp-0x38],rax
    6733:	48 8b 45 c8          	mov    rax,QWORD PTR [rbp-0x38]
    6737:	48 89 c7             	mov    rdi,rax
    673a:	e8 16 11 00 00       	call   7855 <__cxa_finalize@plt+0x4c45>
    673f:	48 89 c2             	mov    rdx,rax
    6742:	48 8b 4d b0          	mov    rcx,QWORD PTR [rbp-0x50]
    6746:	48 8b 45 b8          	mov    rax,QWORD PTR [rbp-0x48]
    674a:	48 89 ce             	mov    rsi,rcx
    674d:	48 89 c7             	mov    rdi,rax
    6750:	e8 5b 0d 00 00       	call   74b0 <__cxa_finalize@plt+0x48a0>
    6755:	48 89 45 d0          	mov    QWORD PTR [rbp-0x30],rax
    6759:	48 89 55 d8          	mov    QWORD PTR [rbp-0x28],rdx
    675d:	48 8b 45 d8          	mov    rax,QWORD PTR [rbp-0x28]
    6761:	48 85 c0             	test   rax,rax
    6764:	74 1a                	je     6780 <__cxa_finalize@plt+0x3b70>
    6766:	48 8b 55 d8          	mov    rdx,QWORD PTR [rbp-0x28]
    676a:	48 8b 75 d0          	mov    rsi,QWORD PTR [rbp-0x30]
    676e:	48 8b 4d c8          	mov    rcx,QWORD PTR [rbp-0x38]
    6772:	48 8b 45 b8          	mov    rax,QWORD PTR [rbp-0x48]
    6776:	48 89 c7             	mov    rdi,rax
    6779:	e8 26 11 00 00       	call   78a4 <__cxa_finalize@plt+0x4c94>
    677e:	eb 2a                	jmp    67aa <__cxa_finalize@plt+0x3b9a>
    6780:	48 8b 55 c8          	mov    rdx,QWORD PTR [rbp-0x38]
    6784:	48 8b 45 b8          	mov    rax,QWORD PTR [rbp-0x48]
    6788:	48 89 d6             	mov    rsi,rdx
    678b:	48 89 c7             	mov    rdi,rax
    678e:	e8 ad 04 00 00       	call   6c40 <__cxa_finalize@plt+0x4030>
    6793:	48 8b 55 d0          	mov    rdx,QWORD PTR [rbp-0x30]
    6797:	48 8d 45 c0          	lea    rax,[rbp-0x40]
    679b:	48 89 d6             	mov    rsi,rdx
    679e:	48 89 c7             	mov    rdi,rax
    67a1:	e8 e4 11 00 00       	call   798a <__cxa_finalize@plt+0x4d7a>
    67a6:	48 8b 45 c0          	mov    rax,QWORD PTR [rbp-0x40]
    67aa:	48 8b 5d e8          	mov    rbx,QWORD PTR [rbp-0x18]
    67ae:	64 48 33 1c 25 28 00 	xor    rbx,QWORD PTR fs:0x28
    67b5:	00 00 
    67b7:	74 3a                	je     67f3 <__cxa_finalize@plt+0x3be3>
    67b9:	eb 33                	jmp    67ee <__cxa_finalize@plt+0x3bde>
    67bb:	48 89 c7             	mov    rdi,rax
    67be:	e8 8d c0 ff ff       	call   2850 <__cxa_begin_catch@plt>
    67c3:	48 8b 55 c8          	mov    rdx,QWORD PTR [rbp-0x38]
    67c7:	48 8b 45 b8          	mov    rax,QWORD PTR [rbp-0x48]
    67cb:	48 89 d6             	mov    rsi,rdx
    67ce:	48 89 c7             	mov    rdi,rax
    67d1:	e8 6a 04 00 00       	call   6c40 <__cxa_finalize@plt+0x4030>
    67d6:	e8 e5 c2 ff ff       	call   2ac0 <__cxa_rethrow@plt>
    67db:	48 89 c3             	mov    rbx,rax
    67de:	e8 4d c3 ff ff       	call   2b30 <__cxa_end_catch@plt>
    67e3:	48 89 d8             	mov    rax,rbx
    67e6:	48 89 c7             	mov    rdi,rax
    67e9:	e8 a2 c3 ff ff       	call   2b90 <_Unwind_Resume@plt>
    67ee:	e8 0d c2 ff ff       	call   2a00 <__stack_chk_fail@plt>
    67f3:	48 83 c4 60          	add    rsp,0x60
    67f7:	5b                   	pop    rbx
    67f8:	41 5c                	pop    r12
    67fa:	5d                   	pop    rbp
    67fb:	c3                   	ret    
    67fc:	55                   	push   rbp
    67fd:	48 89 e5             	mov    rbp,rsp
    6800:	53                   	push   rbx
    6801:	48 83 ec 38          	sub    rsp,0x38
    6805:	48 89 7d c8          	mov    QWORD PTR [rbp-0x38],rdi
    6809:	48 89 75 c0          	mov    QWORD PTR [rbp-0x40],rsi
    680d:	64 48 8b 04 25 28 00 	mov    rax,QWORD PTR fs:0x28
    6814:	00 00 
    6816:	48 89 45 e8          	mov    QWORD PTR [rbp-0x18],rax
    681a:	31 c0                	xor    eax,eax
    681c:	48 8b 45 c8          	mov    rax,QWORD PTR [rbp-0x38]
    6820:	48 89 c7             	mov    rdi,rax
    6823:	e8 8e 11 00 00       	call   79b6 <__cxa_finalize@plt+0x4da6>
    6828:	48 89 c3             	mov    rbx,rax
    682b:	48 8b 45 c8          	mov    rax,QWORD PTR [rbp-0x38]
    682f:	48 89 c7             	mov    rdi,rax
    6832:	e8 6d 11 00 00       	call   79a4 <__cxa_finalize@plt+0x4d94>
    6837:	48 89 c6             	mov    rsi,rax
    683a:	48 8b 55 c0          	mov    rdx,QWORD PTR [rbp-0x40]
    683e:	48 8b 45 c8          	mov    rax,QWORD PTR [rbp-0x38]
    6842:	48 89 d1             	mov    rcx,rdx
    6845:	48 89 da             	mov    rdx,rbx
    6848:	48 89 c7             	mov    rdi,rax
    684b:	e8 78 11 00 00       	call   79c8 <__cxa_finalize@plt+0x4db8>
    6850:	48 89 45 d8          	mov    QWORD PTR [rbp-0x28],rax
    6854:	48 8b 45 c8          	mov    rax,QWORD PTR [rbp-0x38]
    6858:	48 89 c7             	mov    rdi,rax
    685b:	e8 6e 00 00 00       	call   68ce <__cxa_finalize@plt+0x3cbe>
    6860:	48 89 45 e0          	mov    QWORD PTR [rbp-0x20],rax
    6864:	48 8d 55 e0          	lea    rdx,[rbp-0x20]
    6868:	48 8d 45 d8          	lea    rax,[rbp-0x28]
    686c:	48 89 d6             	mov    rsi,rdx
    686f:	48 89 c7             	mov    rdi,rax
    6872:	e8 a3 00 00 00       	call   691a <__cxa_finalize@plt+0x3d0a>
    6877:	84 c0                	test   al,al
    6879:	75 26                	jne    68a1 <__cxa_finalize@plt+0x3c91>
    687b:	48 8b 5d c8          	mov    rbx,QWORD PTR [rbp-0x38]
    687f:	48 8b 45 d8          	mov    rax,QWORD PTR [rbp-0x28]
    6883:	48 89 c7             	mov    rdi,rax
    6886:	e8 f6 11 00 00       	call   7a81 <__cxa_finalize@plt+0x4e71>
    688b:	48 89 c2             	mov    rdx,rax
    688e:	48 8b 45 c0          	mov    rax,QWORD PTR [rbp-0x40]
    6892:	48 89 c6             	mov    rsi,rax
    6895:	48 89 df             	mov    rdi,rbx
    6898:	e8 4b fb ff ff       	call   63e8 <__cxa_finalize@plt+0x37d8>
    689d:	84 c0                	test   al,al
    689f:	74 0e                	je     68af <__cxa_finalize@plt+0x3c9f>
    68a1:	48 8b 45 c8          	mov    rax,QWORD PTR [rbp-0x38]
    68a5:	48 89 c7             	mov    rdi,rax
    68a8:	e8 21 00 00 00       	call   68ce <__cxa_finalize@plt+0x3cbe>
    68ad:	eb 04                	jmp    68b3 <__cxa_finalize@plt+0x3ca3>
    68af:	48 8b 45 d8          	mov    rax,QWORD PTR [rbp-0x28]
    68b3:	48 8b 4d e8          	mov    rcx,QWORD PTR [rbp-0x18]
    68b7:	64 48 33 0c 25 28 00 	xor    rcx,QWORD PTR fs:0x28
    68be:	00 00 
    68c0:	74 05                	je     68c7 <__cxa_finalize@plt+0x3cb7>
    68c2:	e8 39 c1 ff ff       	call   2a00 <__stack_chk_fail@plt>
    68c7:	48 83 c4 38          	add    rsp,0x38
    68cb:	5b                   	pop    rbx
    68cc:	5d                   	pop    rbp
    68cd:	c3                   	ret    
    68ce:	55                   	push   rbp
    68cf:	48 89 e5             	mov    rbp,rsp
    68d2:	48 83 ec 20          	sub    rsp,0x20
    68d6:	48 89 7d e8          	mov    QWORD PTR [rbp-0x18],rdi
    68da:	64 48 8b 04 25 28 00 	mov    rax,QWORD PTR fs:0x28
    68e1:	00 00 
    68e3:	48 89 45 f8          	mov    QWORD PTR [rbp-0x8],rax
    68e7:	31 c0                	xor    eax,eax
    68e9:	48 8b 45 e8          	mov    rax,QWORD PTR [rbp-0x18]
    68ed:	48 8d 50 08          	lea    rdx,[rax+0x8]
    68f1:	48 8d 45 f0          	lea    rax,[rbp-0x10]
    68f5:	48 89 d6             	mov    rsi,rdx
    68f8:	48 89 c7             	mov    rdi,rax
    68fb:	e8 d0 11 00 00       	call   7ad0 <__cxa_finalize@plt+0x4ec0>
    6900:	48 8b 45 f0          	mov    rax,QWORD PTR [rbp-0x10]
    6904:	48 8b 4d f8          	mov    rcx,QWORD PTR [rbp-0x8]
    6908:	64 48 33 0c 25 28 00 	xor    rcx,QWORD PTR fs:0x28
    690f:	00 00 
    6911:	74 05                	je     6918 <__cxa_finalize@plt+0x3d08>
    6913:	e8 e8 c0 ff ff       	call   2a00 <__stack_chk_fail@plt>
    6918:	c9                   	leave  
    6919:	c3                   	ret    
    691a:	55                   	push   rbp
    691b:	48 89 e5             	mov    rbp,rsp
    691e:	48 89 7d f8          	mov    QWORD PTR [rbp-0x8],rdi
    6922:	48 89 75 f0          	mov    QWORD PTR [rbp-0x10],rsi
    6926:	48 8b 45 f8          	mov    rax,QWORD PTR [rbp-0x8]
    692a:	48 8b 10             	mov    rdx,QWORD PTR [rax]
    692d:	48 8b 45 f0          	mov    rax,QWORD PTR [rbp-0x10]
    6931:	48 8b 00             	mov    rax,QWORD PTR [rax]
    6934:	48 39 c2             	cmp    rdx,rax
    6937:	0f 94 c0             	sete   al
    693a:	5d                   	pop    rbp
    693b:	c3                   	ret    
    693c:	55                   	push   rbp
    693d:	48 89 e5             	mov    rbp,rsp
    6940:	48 89 7d f8          	mov    QWORD PTR [rbp-0x8],rdi
    6944:	48 8b 45 f8          	mov    rax,QWORD PTR [rbp-0x8]
    6948:	5d                   	pop    rbp
    6949:	c3                   	ret    
    694a:	55                   	push   rbp
    694b:	48 89 e5             	mov    rbp,rsp
    694e:	41 54                	push   r12
    6950:	53                   	push   rbx
    6951:	48 83 ec 60          	sub    rsp,0x60
    6955:	48 89 7d b8          	mov    QWORD PTR [rbp-0x48],rdi
    6959:	48 89 75 b0          	mov    QWORD PTR [rbp-0x50],rsi
    695d:	48 89 55 a8          	mov    QWORD PTR [rbp-0x58],rdx
    6961:	48 89 4d a0          	mov    QWORD PTR [rbp-0x60],rcx
    6965:	4c 89 45 98          	mov    QWORD PTR [rbp-0x68],r8
    6969:	64 48 8b 04 25 28 00 	mov    rax,QWORD PTR fs:0x28
    6970:	00 00 
    6972:	48 89 45 e8          	mov    QWORD PTR [rbp-0x18],rax
    6976:	31 c0                	xor    eax,eax
    6978:	48 8b 45 98          	mov    rax,QWORD PTR [rbp-0x68]
    697c:	48 89 c7             	mov    rdi,rax
    697f:	e8 36 fb ff ff       	call   64ba <__cxa_finalize@plt+0x38aa>
    6984:	49 89 c4             	mov    r12,rax
    6987:	48 8b 45 a0          	mov    rax,QWORD PTR [rbp-0x60]
    698b:	48 89 c7             	mov    rdi,rax
    698e:	e8 a9 ff ff ff       	call   693c <__cxa_finalize@plt+0x3d2c>
    6993:	48 89 c3             	mov    rbx,rax
    6996:	48 8b 45 a8          	mov    rax,QWORD PTR [rbp-0x58]
    699a:	48 89 c7             	mov    rdi,rax
    699d:	e8 fc fa ff ff       	call   649e <__cxa_finalize@plt+0x388e>
    69a2:	48 89 c6             	mov    rsi,rax
    69a5:	48 8b 45 b8          	mov    rax,QWORD PTR [rbp-0x48]
    69a9:	4c 89 e1             	mov    rcx,r12
    69ac:	48 89 da             	mov    rdx,rbx
    69af:	48 89 c7             	mov    rdi,rax
    69b2:	e8 33 11 00 00       	call   7aea <__cxa_finalize@plt+0x4eda>
    69b7:	48 89 45 c8          	mov    QWORD PTR [rbp-0x38],rax
    69bb:	48 8b 45 c8          	mov    rax,QWORD PTR [rbp-0x38]
    69bf:	48 89 c7             	mov    rdi,rax
    69c2:	e8 8e 0e 00 00       	call   7855 <__cxa_finalize@plt+0x4c45>
    69c7:	48 89 c2             	mov    rdx,rax
    69ca:	48 8b 4d b0          	mov    rcx,QWORD PTR [rbp-0x50]
    69ce:	48 8b 45 b8          	mov    rax,QWORD PTR [rbp-0x48]
    69d2:	48 89 ce             	mov    rsi,rcx
    69d5:	48 89 c7             	mov    rdi,rax
    69d8:	e8 d3 0a 00 00       	call   74b0 <__cxa_finalize@plt+0x48a0>
    69dd:	48 89 45 d0          	mov    QWORD PTR [rbp-0x30],rax
    69e1:	48 89 55 d8          	mov    QWORD PTR [rbp-0x28],rdx
    69e5:	48 8b 45 d8          	mov    rax,QWORD PTR [rbp-0x28]
    69e9:	48 85 c0             	test   rax,rax
    69ec:	74 1a                	je     6a08 <__cxa_finalize@plt+0x3df8>
    69ee:	48 8b 55 d8          	mov    rdx,QWORD PTR [rbp-0x28]
    69f2:	48 8b 75 d0          	mov    rsi,QWORD PTR [rbp-0x30]
    69f6:	48 8b 4d c8          	mov    rcx,QWORD PTR [rbp-0x38]
    69fa:	48 8b 45 b8          	mov    rax,QWORD PTR [rbp-0x48]
    69fe:	48 89 c7             	mov    rdi,rax
    6a01:	e8 9e 0e 00 00       	call   78a4 <__cxa_finalize@plt+0x4c94>
    6a06:	eb 2a                	jmp    6a32 <__cxa_finalize@plt+0x3e22>
    6a08:	48 8b 55 c8          	mov    rdx,QWORD PTR [rbp-0x38]
    6a0c:	48 8b 45 b8          	mov    rax,QWORD PTR [rbp-0x48]
    6a10:	48 89 d6             	mov    rsi,rdx
    6a13:	48 89 c7             	mov    rdi,rax
    6a16:	e8 25 02 00 00       	call   6c40 <__cxa_finalize@plt+0x4030>
    6a1b:	48 8b 55 d0          	mov    rdx,QWORD PTR [rbp-0x30]
    6a1f:	48 8d 45 c0          	lea    rax,[rbp-0x40]
    6a23:	48 89 d6             	mov    rsi,rdx
    6a26:	48 89 c7             	mov    rdi,rax
    6a29:	e8 5c 0f 00 00       	call   798a <__cxa_finalize@plt+0x4d7a>
    6a2e:	48 8b 45 c0          	mov    rax,QWORD PTR [rbp-0x40]
    6a32:	48 8b 5d e8          	mov    rbx,QWORD PTR [rbp-0x18]
    6a36:	64 48 33 1c 25 28 00 	xor    rbx,QWORD PTR fs:0x28
    6a3d:	00 00 
    6a3f:	74 3a                	je     6a7b <__cxa_finalize@plt+0x3e6b>
    6a41:	eb 33                	jmp    6a76 <__cxa_finalize@plt+0x3e66>
    6a43:	48 89 c7             	mov    rdi,rax
    6a46:	e8 05 be ff ff       	call   2850 <__cxa_begin_catch@plt>
    6a4b:	48 8b 55 c8          	mov    rdx,QWORD PTR [rbp-0x38]
    6a4f:	48 8b 45 b8          	mov    rax,QWORD PTR [rbp-0x48]
    6a53:	48 89 d6             	mov    rsi,rdx
    6a56:	48 89 c7             	mov    rdi,rax
    6a59:	e8 e2 01 00 00       	call   6c40 <__cxa_finalize@plt+0x4030>
    6a5e:	e8 5d c0 ff ff       	call   2ac0 <__cxa_rethrow@plt>
    6a63:	48 89 c3             	mov    rbx,rax
    6a66:	e8 c5 c0 ff ff       	call   2b30 <__cxa_end_catch@plt>
    6a6b:	48 89 d8             	mov    rax,rbx
    6a6e:	48 89 c7             	mov    rdi,rax
    6a71:	e8 1a c1 ff ff       	call   2b90 <_Unwind_Resume@plt>
    6a76:	e8 85 bf ff ff       	call   2a00 <__stack_chk_fail@plt>
    6a7b:	48 83 c4 60          	add    rsp,0x60
    6a7f:	5b                   	pop    rbx
    6a80:	41 5c                	pop    r12
    6a82:	5d                   	pop    rbp
    6a83:	c3                   	ret    
    6a84:	55                   	push   rbp
    6a85:	48 89 e5             	mov    rbp,rsp
    6a88:	41 54                	push   r12
    6a8a:	53                   	push   rbx
    6a8b:	48 83 ec 60          	sub    rsp,0x60
    6a8f:	48 89 7d b8          	mov    QWORD PTR [rbp-0x48],rdi
    6a93:	48 89 75 b0          	mov    QWORD PTR [rbp-0x50],rsi
    6a97:	48 89 55 a8          	mov    QWORD PTR [rbp-0x58],rdx
    6a9b:	48 89 4d a0          	mov    QWORD PTR [rbp-0x60],rcx
    6a9f:	4c 89 45 98          	mov    QWORD PTR [rbp-0x68],r8
    6aa3:	64 48 8b 04 25 28 00 	mov    rax,QWORD PTR fs:0x28
    6aaa:	00 00 
    6aac:	48 89 45 e8          	mov    QWORD PTR [rbp-0x18],rax
    6ab0:	31 c0                	xor    eax,eax
    6ab2:	48 8b 45 98          	mov    rax,QWORD PTR [rbp-0x68]
    6ab6:	48 89 c7             	mov    rdi,rax
    6ab9:	e8 fc f9 ff ff       	call   64ba <__cxa_finalize@plt+0x38aa>
    6abe:	49 89 c4             	mov    r12,rax
    6ac1:	48 8b 45 a0          	mov    rax,QWORD PTR [rbp-0x60]
    6ac5:	48 89 c7             	mov    rdi,rax
    6ac8:	e8 6f fe ff ff       	call   693c <__cxa_finalize@plt+0x3d2c>
    6acd:	48 89 c3             	mov    rbx,rax
    6ad0:	48 8b 45 a8          	mov    rax,QWORD PTR [rbp-0x58]
    6ad4:	48 89 c7             	mov    rdi,rax
    6ad7:	e8 c2 f9 ff ff       	call   649e <__cxa_finalize@plt+0x388e>
    6adc:	48 89 c6             	mov    rsi,rax
    6adf:	48 8b 45 b8          	mov    rax,QWORD PTR [rbp-0x48]
    6ae3:	4c 89 e1             	mov    rcx,r12
    6ae6:	48 89 da             	mov    rdx,rbx
    6ae9:	48 89 c7             	mov    rdi,rax
    6aec:	e8 75 10 00 00       	call   7b66 <__cxa_finalize@plt+0x4f56>
    6af1:	48 89 45 c8          	mov    QWORD PTR [rbp-0x38],rax
    6af5:	48 8b 45 c8          	mov    rax,QWORD PTR [rbp-0x38]
    6af9:	48 89 c7             	mov    rdi,rax
    6afc:	e8 24 07 00 00       	call   7225 <__cxa_finalize@plt+0x4615>
    6b01:	48 89 c2             	mov    rdx,rax
    6b04:	48 8b 4d b0          	mov    rcx,QWORD PTR [rbp-0x50]
    6b08:	48 8b 45 b8          	mov    rax,QWORD PTR [rbp-0x48]
    6b0c:	48 89 ce             	mov    rsi,rcx
    6b0f:	48 89 c7             	mov    rdi,rax
    6b12:	e8 69 03 00 00       	call   6e80 <__cxa_finalize@plt+0x4270>
    6b17:	48 89 45 d0          	mov    QWORD PTR [rbp-0x30],rax
    6b1b:	48 89 55 d8          	mov    QWORD PTR [rbp-0x28],rdx
    6b1f:	48 8b 45 d8          	mov    rax,QWORD PTR [rbp-0x28]
    6b23:	48 85 c0             	test   rax,rax
    6b26:	74 1a                	je     6b42 <__cxa_finalize@plt+0x3f32>
    6b28:	48 8b 55 d8          	mov    rdx,QWORD PTR [rbp-0x28]
    6b2c:	48 8b 75 d0          	mov    rsi,QWORD PTR [rbp-0x30]
    6b30:	48 8b 4d c8          	mov    rcx,QWORD PTR [rbp-0x38]
    6b34:	48 8b 45 b8          	mov    rax,QWORD PTR [rbp-0x48]
    6b38:	48 89 c7             	mov    rdi,rax
    6b3b:	e8 34 07 00 00       	call   7274 <__cxa_finalize@plt+0x4664>
    6b40:	eb 2a                	jmp    6b6c <__cxa_finalize@plt+0x3f5c>
    6b42:	48 8b 55 c8          	mov    rdx,QWORD PTR [rbp-0x38]
    6b46:	48 8b 45 b8          	mov    rax,QWORD PTR [rbp-0x48]
    6b4a:	48 89 d6             	mov    rsi,rdx
    6b4d:	48 89 c7             	mov    rdi,rax
    6b50:	e8 8d 00 00 00       	call   6be2 <__cxa_finalize@plt+0x3fd2>
    6b55:	48 8b 55 d0          	mov    rdx,QWORD PTR [rbp-0x30]
    6b59:	48 8d 45 c0          	lea    rax,[rbp-0x40]
    6b5d:	48 89 d6             	mov    rsi,rdx
    6b60:	48 89 c7             	mov    rdi,rax
    6b63:	e8 f2 07 00 00       	call   735a <__cxa_finalize@plt+0x474a>
    6b68:	48 8b 45 c0          	mov    rax,QWORD PTR [rbp-0x40]
    6b6c:	48 8b 5d e8          	mov    rbx,QWORD PTR [rbp-0x18]
    6b70:	64 48 33 1c 25 28 00 	xor    rbx,QWORD PTR fs:0x28
    6b77:	00 00 
    6b79:	74 3a                	je     6bb5 <__cxa_finalize@plt+0x3fa5>
    6b7b:	eb 33                	jmp    6bb0 <__cxa_finalize@plt+0x3fa0>
    6b7d:	48 89 c7             	mov    rdi,rax
    6b80:	e8 cb bc ff ff       	call   2850 <__cxa_begin_catch@plt>
    6b85:	48 8b 55 c8          	mov    rdx,QWORD PTR [rbp-0x38]
    6b89:	48 8b 45 b8          	mov    rax,QWORD PTR [rbp-0x48]
    6b8d:	48 89 d6             	mov    rsi,rdx
    6b90:	48 89 c7             	mov    rdi,rax
    6b93:	e8 4a 00 00 00       	call   6be2 <__cxa_finalize@plt+0x3fd2>
    6b98:	e8 23 bf ff ff       	call   2ac0 <__cxa_rethrow@plt>
    6b9d:	48 89 c3             	mov    rbx,rax
    6ba0:	e8 8b bf ff ff       	call   2b30 <__cxa_end_catch@plt>
    6ba5:	48 89 d8             	mov    rax,rbx
    6ba8:	48 89 c7             	mov    rdi,rax
    6bab:	e8 e0 bf ff ff       	call   2b90 <_Unwind_Resume@plt>
    6bb0:	e8 4b be ff ff       	call   2a00 <__stack_chk_fail@plt>
    6bb5:	48 83 c4 60          	add    rsp,0x60
    6bb9:	5b                   	pop    rbx
    6bba:	41 5c                	pop    r12
    6bbc:	5d                   	pop    rbp
    6bbd:	c3                   	ret    
    6bbe:	55                   	push   rbp
    6bbf:	48 89 e5             	mov    rbp,rsp
    6bc2:	48 89 7d f8          	mov    QWORD PTR [rbp-0x8],rdi
    6bc6:	48 8b 45 f8          	mov    rax,QWORD PTR [rbp-0x8]
    6bca:	48 8b 40 18          	mov    rax,QWORD PTR [rax+0x18]
    6bce:	5d                   	pop    rbp
    6bcf:	c3                   	ret    
    6bd0:	55                   	push   rbp
    6bd1:	48 89 e5             	mov    rbp,rsp
    6bd4:	48 89 7d f8          	mov    QWORD PTR [rbp-0x8],rdi
    6bd8:	48 8b 45 f8          	mov    rax,QWORD PTR [rbp-0x8]
    6bdc:	48 8b 40 10          	mov    rax,QWORD PTR [rax+0x10]
    6be0:	5d                   	pop    rbp
    6be1:	c3                   	ret    
    6be2:	55                   	push   rbp
    6be3:	48 89 e5             	mov    rbp,rsp
    6be6:	48 83 ec 10          	sub    rsp,0x10
    6bea:	48 89 7d f8          	mov    QWORD PTR [rbp-0x8],rdi
    6bee:	48 89 75 f0          	mov    QWORD PTR [rbp-0x10],rsi
    6bf2:	48 8b 55 f0          	mov    rdx,QWORD PTR [rbp-0x10]
    6bf6:	48 8b 45 f8          	mov    rax,QWORD PTR [rbp-0x8]
    6bfa:	48 89 d6             	mov    rsi,rdx
    6bfd:	48 89 c7             	mov    rdi,rax
    6c00:	e8 dd 0f 00 00       	call   7be2 <__cxa_finalize@plt+0x4fd2>
    6c05:	48 8b 55 f0          	mov    rdx,QWORD PTR [rbp-0x10]
    6c09:	48 8b 45 f8          	mov    rax,QWORD PTR [rbp-0x8]
    6c0d:	48 89 d6             	mov    rsi,rdx
    6c10:	48 89 c7             	mov    rdi,rax
    6c13:	e8 0a 10 00 00       	call   7c22 <__cxa_finalize@plt+0x5012>
    6c18:	90                   	nop
    6c19:	c9                   	leave  
    6c1a:	c3                   	ret    
    6c1b:	55                   	push   rbp
    6c1c:	48 89 e5             	mov    rbp,rsp
    6c1f:	48 89 7d f8          	mov    QWORD PTR [rbp-0x8],rdi
    6c23:	48 8b 45 f8          	mov    rax,QWORD PTR [rbp-0x8]
    6c27:	48 8b 40 18          	mov    rax,QWORD PTR [rax+0x18]
    6c2b:	5d                   	pop    rbp
    6c2c:	c3                   	ret    
    6c2d:	55                   	push   rbp
    6c2e:	48 89 e5             	mov    rbp,rsp
    6c31:	48 89 7d f8          	mov    QWORD PTR [rbp-0x8],rdi
    6c35:	48 8b 45 f8          	mov    rax,QWORD PTR [rbp-0x8]
    6c39:	48 8b 40 10          	mov    rax,QWORD PTR [rax+0x10]
    6c3d:	5d                   	pop    rbp
    6c3e:	c3                   	ret    
    6c3f:	90                   	nop
    6c40:	55                   	push   rbp
    6c41:	48 89 e5             	mov    rbp,rsp
    6c44:	48 83 ec 10          	sub    rsp,0x10
    6c48:	48 89 7d f8          	mov    QWORD PTR [rbp-0x8],rdi
    6c4c:	48 89 75 f0          	mov    QWORD PTR [rbp-0x10],rsi
    6c50:	48 8b 55 f0          	mov    rdx,QWORD PTR [rbp-0x10]
    6c54:	48 8b 45 f8          	mov    rax,QWORD PTR [rbp-0x8]
    6c58:	48 89 d6             	mov    rsi,rdx
    6c5b:	48 89 c7             	mov    rdi,rax
    6c5e:	e8 f5 0f 00 00       	call   7c58 <__cxa_finalize@plt+0x5048>
    6c63:	48 8b 55 f0          	mov    rdx,QWORD PTR [rbp-0x10]
    6c67:	48 8b 45 f8          	mov    rax,QWORD PTR [rbp-0x8]
    6c6b:	48 89 d6             	mov    rsi,rdx
    6c6e:	48 89 c7             	mov    rdi,rax
    6c71:	e8 22 10 00 00       	call   7c98 <__cxa_finalize@plt+0x5088>
    6c76:	90                   	nop
    6c77:	c9                   	leave  
    6c78:	c3                   	ret    
    6c79:	90                   	nop
    6c7a:	55                   	push   rbp
    6c7b:	48 89 e5             	mov    rbp,rsp
    6c7e:	53                   	push   rbx
    6c7f:	48 83 ec 18          	sub    rsp,0x18
    6c83:	48 89 7d e8          	mov    QWORD PTR [rbp-0x18],rdi
    6c87:	48 89 75 e0          	mov    QWORD PTR [rbp-0x20],rsi
    6c8b:	48 8b 45 e8          	mov    rax,QWORD PTR [rbp-0x18]
    6c8f:	48 89 c7             	mov    rdi,rax
    6c92:	e8 37 10 00 00       	call   7cce <__cxa_finalize@plt+0x50be>
    6c97:	48 89 c3             	mov    rbx,rax
    6c9a:	48 8b 45 e8          	mov    rax,QWORD PTR [rbp-0x18]
    6c9e:	48 89 c7             	mov    rdi,rax
    6ca1:	e8 fe f5 ff ff       	call   62a4 <__cxa_finalize@plt+0x3694>
    6ca6:	48 89 c6             	mov    rsi,rax
    6ca9:	48 8b 55 e0          	mov    rdx,QWORD PTR [rbp-0x20]
    6cad:	48 8b 45 e8          	mov    rax,QWORD PTR [rbp-0x18]
    6cb1:	48 89 d1             	mov    rcx,rdx
    6cb4:	48 89 da             	mov    rdx,rbx
    6cb7:	48 89 c7             	mov    rdi,rax
    6cba:	e8 21 10 00 00       	call   7ce0 <__cxa_finalize@plt+0x50d0>
    6cbf:	48 83 c4 18          	add    rsp,0x18
    6cc3:	5b                   	pop    rbx
    6cc4:	5d                   	pop    rbp
    6cc5:	c3                   	ret    
    6cc6:	55                   	push   rbp
    6cc7:	48 89 e5             	mov    rbp,rsp
    6cca:	48 83 ec 20          	sub    rsp,0x20
    6cce:	48 89 7d e8          	mov    QWORD PTR [rbp-0x18],rdi
    6cd2:	64 48 8b 04 25 28 00 	mov    rax,QWORD PTR fs:0x28
    6cd9:	00 00 
    6cdb:	48 89 45 f8          	mov    QWORD PTR [rbp-0x8],rax
    6cdf:	31 c0                	xor    eax,eax
    6ce1:	48 8b 45 e8          	mov    rax,QWORD PTR [rbp-0x18]
    6ce5:	48 8d 50 08          	lea    rdx,[rax+0x8]
    6ce9:	48 8d 45 f0          	lea    rax,[rbp-0x10]
    6ced:	48 89 d6             	mov    rsi,rdx
    6cf0:	48 89 c7             	mov    rdi,rax
    6cf3:	e8 62 06 00 00       	call   735a <__cxa_finalize@plt+0x474a>
    6cf8:	48 8b 45 f0          	mov    rax,QWORD PTR [rbp-0x10]
    6cfc:	48 8b 4d f8          	mov    rcx,QWORD PTR [rbp-0x8]
    6d00:	64 48 33 0c 25 28 00 	xor    rcx,QWORD PTR fs:0x28
    6d07:	00 00 
    6d09:	74 05                	je     6d10 <__cxa_finalize@plt+0x4100>
    6d0b:	e8 f0 bc ff ff       	call   2a00 <__stack_chk_fail@plt>
    6d10:	c9                   	leave  
    6d11:	c3                   	ret    
    6d12:	55                   	push   rbp
    6d13:	48 89 e5             	mov    rbp,rsp
    6d16:	48 89 7d f8          	mov    QWORD PTR [rbp-0x8],rdi
    6d1a:	5d                   	pop    rbp
    6d1b:	c3                   	ret    
    6d1c:	55                   	push   rbp
    6d1d:	48 89 e5             	mov    rbp,rsp
    6d20:	48 83 ec 10          	sub    rsp,0x10
    6d24:	48 89 7d f8          	mov    QWORD PTR [rbp-0x8],rdi
    6d28:	48 8b 45 f8          	mov    rax,QWORD PTR [rbp-0x8]
    6d2c:	48 83 c0 20          	add    rax,0x20
    6d30:	48 89 c7             	mov    rdi,rax
    6d33:	e8 62 10 00 00       	call   7d9a <__cxa_finalize@plt+0x518a>
    6d38:	c9                   	leave  
    6d39:	c3                   	ret    
    6d3a:	55                   	push   rbp
    6d3b:	48 89 e5             	mov    rbp,rsp
    6d3e:	41 54                	push   r12
    6d40:	53                   	push   rbx
    6d41:	48 83 ec 30          	sub    rsp,0x30
    6d45:	48 89 7d d8          	mov    QWORD PTR [rbp-0x28],rdi
    6d49:	48 89 75 d0          	mov    QWORD PTR [rbp-0x30],rsi
    6d4d:	48 89 55 c8          	mov    QWORD PTR [rbp-0x38],rdx
    6d51:	48 89 4d c0          	mov    QWORD PTR [rbp-0x40],rcx
    6d55:	48 8b 45 d8          	mov    rax,QWORD PTR [rbp-0x28]
    6d59:	48 89 c7             	mov    rdi,rax
    6d5c:	e8 53 10 00 00       	call   7db4 <__cxa_finalize@plt+0x51a4>
    6d61:	48 89 45 e8          	mov    QWORD PTR [rbp-0x18],rax
    6d65:	48 8b 45 c0          	mov    rax,QWORD PTR [rbp-0x40]
    6d69:	48 89 c7             	mov    rdi,rax
    6d6c:	e8 49 f7 ff ff       	call   64ba <__cxa_finalize@plt+0x38aa>
    6d71:	49 89 c4             	mov    r12,rax
    6d74:	48 8b 45 c8          	mov    rax,QWORD PTR [rbp-0x38]
    6d78:	48 89 c7             	mov    rdi,rax
    6d7b:	e8 2c f7 ff ff       	call   64ac <__cxa_finalize@plt+0x389c>
    6d80:	48 89 c3             	mov    rbx,rax
    6d83:	48 8b 45 d0          	mov    rax,QWORD PTR [rbp-0x30]
    6d87:	48 89 c7             	mov    rdi,rax
    6d8a:	e8 0f f7 ff ff       	call   649e <__cxa_finalize@plt+0x388e>
    6d8f:	48 89 c2             	mov    rdx,rax
    6d92:	48 8b 75 e8          	mov    rsi,QWORD PTR [rbp-0x18]
    6d96:	48 8b 45 d8          	mov    rax,QWORD PTR [rbp-0x28]
    6d9a:	4d 89 e0             	mov    r8,r12
    6d9d:	48 89 d9             	mov    rcx,rbx
    6da0:	48 89 c7             	mov    rdi,rax
    6da3:	e8 34 10 00 00       	call   7ddc <__cxa_finalize@plt+0x51cc>
    6da8:	48 8b 45 e8          	mov    rax,QWORD PTR [rbp-0x18]
    6dac:	48 83 c4 30          	add    rsp,0x30
    6db0:	5b                   	pop    rbx
    6db1:	41 5c                	pop    r12
    6db3:	5d                   	pop    rbp
    6db4:	c3                   	ret    
    6db5:	90                   	nop
    6db6:	55                   	push   rbp
    6db7:	48 89 e5             	mov    rbp,rsp
    6dba:	48 83 ec 20          	sub    rsp,0x20
    6dbe:	48 89 7d f8          	mov    QWORD PTR [rbp-0x8],rdi
    6dc2:	48 89 75 f0          	mov    QWORD PTR [rbp-0x10],rsi
    6dc6:	48 89 55 e8          	mov    QWORD PTR [rbp-0x18],rdx
    6dca:	48 8b 45 f0          	mov    rax,QWORD PTR [rbp-0x10]
    6dce:	48 8b 10             	mov    rdx,QWORD PTR [rax]
    6dd1:	48 8b 45 f8          	mov    rax,QWORD PTR [rbp-0x8]
    6dd5:	48 89 10             	mov    QWORD PTR [rax],rdx
    6dd8:	48 8b 45 e8          	mov    rax,QWORD PTR [rbp-0x18]
    6ddc:	48 89 c7             	mov    rdi,rax
    6ddf:	e8 0e 00 00 00       	call   6df2 <__cxa_finalize@plt+0x41e2>
    6de4:	48 8b 10             	mov    rdx,QWORD PTR [rax]
    6de7:	48 8b 45 f8          	mov    rax,QWORD PTR [rbp-0x8]
    6deb:	48 89 50 08          	mov    QWORD PTR [rax+0x8],rdx
    6def:	90                   	nop
    6df0:	c9                   	leave  
    6df1:	c3                   	ret    
    6df2:	55                   	push   rbp
    6df3:	48 89 e5             	mov    rbp,rsp
    6df6:	48 89 7d f8          	mov    QWORD PTR [rbp-0x8],rdi
    6dfa:	48 8b 45 f8          	mov    rax,QWORD PTR [rbp-0x8]
    6dfe:	5d                   	pop    rbp
    6dff:	c3                   	ret    
    6e00:	55                   	push   rbp
    6e01:	48 89 e5             	mov    rbp,rsp
    6e04:	48 83 ec 20          	sub    rsp,0x20
    6e08:	48 89 7d f8          	mov    QWORD PTR [rbp-0x8],rdi
    6e0c:	48 89 75 f0          	mov    QWORD PTR [rbp-0x10],rsi
    6e10:	48 89 55 e8          	mov    QWORD PTR [rbp-0x18],rdx
    6e14:	48 8b 45 f0          	mov    rax,QWORD PTR [rbp-0x10]
    6e18:	48 89 c7             	mov    rdi,rax
    6e1b:	e8 d2 ff ff ff       	call   6df2 <__cxa_finalize@plt+0x41e2>
    6e20:	48 8b 10             	mov    rdx,QWORD PTR [rax]
    6e23:	48 8b 45 f8          	mov    rax,QWORD PTR [rbp-0x8]
    6e27:	48 89 10             	mov    QWORD PTR [rax],rdx
    6e2a:	48 8b 45 e8          	mov    rax,QWORD PTR [rbp-0x18]
    6e2e:	48 89 c7             	mov    rdi,rax
    6e31:	e8 bc ff ff ff       	call   6df2 <__cxa_finalize@plt+0x41e2>
    6e36:	48 8b 10             	mov    rdx,QWORD PTR [rax]
    6e39:	48 8b 45 f8          	mov    rax,QWORD PTR [rbp-0x8]
    6e3d:	48 89 50 08          	mov    QWORD PTR [rax+0x8],rdx
    6e41:	90                   	nop
    6e42:	c9                   	leave  
    6e43:	c3                   	ret    
    6e44:	55                   	push   rbp
    6e45:	48 89 e5             	mov    rbp,rsp
    6e48:	48 83 ec 20          	sub    rsp,0x20
    6e4c:	48 89 7d f8          	mov    QWORD PTR [rbp-0x8],rdi
    6e50:	48 89 75 f0          	mov    QWORD PTR [rbp-0x10],rsi
    6e54:	48 89 55 e8          	mov    QWORD PTR [rbp-0x18],rdx
    6e58:	48 8b 45 f0          	mov    rax,QWORD PTR [rbp-0x10]
    6e5c:	48 89 c7             	mov    rdi,rax
    6e5f:	e8 8e ff ff ff       	call   6df2 <__cxa_finalize@plt+0x41e2>
    6e64:	48 8b 10             	mov    rdx,QWORD PTR [rax]
    6e67:	48 8b 45 f8          	mov    rax,QWORD PTR [rbp-0x8]
    6e6b:	48 89 10             	mov    QWORD PTR [rax],rdx
    6e6e:	48 8b 45 e8          	mov    rax,QWORD PTR [rbp-0x18]
    6e72:	48 8b 10             	mov    rdx,QWORD PTR [rax]
    6e75:	48 8b 45 f8          	mov    rax,QWORD PTR [rbp-0x8]
    6e79:	48 89 50 08          	mov    QWORD PTR [rax+0x8],rdx
    6e7d:	90                   	nop
    6e7e:	c9                   	leave  
    6e7f:	c3                   	ret    
    6e80:	55                   	push   rbp
    6e81:	48 89 e5             	mov    rbp,rsp
    6e84:	53                   	push   rbx
    6e85:	48 83 ec 68          	sub    rsp,0x68
    6e89:	48 89 7d a8          	mov    QWORD PTR [rbp-0x58],rdi
    6e8d:	48 89 75 a0          	mov    QWORD PTR [rbp-0x60],rsi
    6e91:	48 89 55 98          	mov    QWORD PTR [rbp-0x68],rdx
    6e95:	64 48 8b 04 25 28 00 	mov    rax,QWORD PTR fs:0x28
    6e9c:	00 00 
    6e9e:	48 89 45 e8          	mov    QWORD PTR [rbp-0x18],rax
    6ea2:	31 c0                	xor    eax,eax
    6ea4:	48 8d 45 a0          	lea    rax,[rbp-0x60]
    6ea8:	48 89 c7             	mov    rdi,rax
    6eab:	e8 02 10 00 00       	call   7eb2 <__cxa_finalize@plt+0x52a2>
    6eb0:	48 89 45 b8          	mov    QWORD PTR [rbp-0x48],rax
    6eb4:	48 8b 5d b8          	mov    rbx,QWORD PTR [rbp-0x48]
    6eb8:	48 8b 45 a8          	mov    rax,QWORD PTR [rbp-0x58]
    6ebc:	48 89 c7             	mov    rdi,rax
    6ebf:	e8 0a 0e 00 00       	call   7cce <__cxa_finalize@plt+0x50be>
    6ec4:	48 39 c3             	cmp    rbx,rax
    6ec7:	0f 94 c0             	sete   al
    6eca:	84 c0                	test   al,al
    6ecc:	0f 84 a4 00 00 00    	je     6f76 <__cxa_finalize@plt+0x4366>
    6ed2:	48 8b 45 a8          	mov    rax,QWORD PTR [rbp-0x58]
    6ed6:	48 89 c7             	mov    rdi,rax
    6ed9:	e8 20 10 00 00       	call   7efe <__cxa_finalize@plt+0x52ee>
    6ede:	48 85 c0             	test   rax,rax
    6ee1:	74 3b                	je     6f1e <__cxa_finalize@plt+0x430e>
    6ee3:	48 8b 5d a8          	mov    rbx,QWORD PTR [rbp-0x58]
    6ee7:	48 8b 45 a8          	mov    rax,QWORD PTR [rbp-0x58]
    6eeb:	48 89 c7             	mov    rdi,rax
    6eee:	e8 1d 10 00 00       	call   7f10 <__cxa_finalize@plt+0x5300>
    6ef3:	48 8b 00             	mov    rax,QWORD PTR [rax]
    6ef6:	48 89 c7             	mov    rdi,rax
    6ef9:	e8 24 10 00 00       	call   7f22 <__cxa_finalize@plt+0x5312>
    6efe:	48 89 c1             	mov    rcx,rax
    6f01:	48 8b 45 98          	mov    rax,QWORD PTR [rbp-0x68]
    6f05:	48 89 c2             	mov    rdx,rax
    6f08:	48 89 ce             	mov    rsi,rcx
    6f0b:	48 89 df             	mov    rdi,rbx
    6f0e:	e8 d5 f4 ff ff       	call   63e8 <__cxa_finalize@plt+0x37d8>
    6f13:	84 c0                	test   al,al
    6f15:	74 07                	je     6f1e <__cxa_finalize@plt+0x430e>
    6f17:	b8 01 00 00 00       	mov    eax,0x1
    6f1c:	eb 05                	jmp    6f23 <__cxa_finalize@plt+0x4313>
    6f1e:	b8 00 00 00 00       	mov    eax,0x0
    6f23:	84 c0                	test   al,al
    6f25:	74 37                	je     6f5e <__cxa_finalize@plt+0x434e>
    6f27:	48 8b 45 a8          	mov    rax,QWORD PTR [rbp-0x58]
    6f2b:	48 89 c7             	mov    rdi,rax
    6f2e:	e8 dd 0f 00 00       	call   7f10 <__cxa_finalize@plt+0x5300>
    6f33:	48 89 c2             	mov    rdx,rax
    6f36:	48 c7 45 c8 00 00 00 	mov    QWORD PTR [rbp-0x38],0x0
    6f3d:	00 
    6f3e:	48 8d 4d c8          	lea    rcx,[rbp-0x38]
    6f42:	48 8d 45 d0          	lea    rax,[rbp-0x30]
    6f46:	48 89 ce             	mov    rsi,rcx
    6f49:	48 89 c7             	mov    rdi,rax
    6f4c:	e8 65 fe ff ff       	call   6db6 <__cxa_finalize@plt+0x41a6>
    6f51:	48 8b 45 d0          	mov    rax,QWORD PTR [rbp-0x30]
    6f55:	48 8b 55 d8          	mov    rdx,QWORD PTR [rbp-0x28]
    6f59:	e9 ac 02 00 00       	jmp    720a <__cxa_finalize@plt+0x45fa>
    6f5e:	48 8b 55 98          	mov    rdx,QWORD PTR [rbp-0x68]
    6f62:	48 8b 45 a8          	mov    rax,QWORD PTR [rbp-0x58]
    6f66:	48 89 d6             	mov    rsi,rdx
    6f69:	48 89 c7             	mov    rdi,rax
    6f6c:	e8 53 10 00 00       	call   7fc4 <__cxa_finalize@plt+0x53b4>
    6f71:	e9 94 02 00 00       	jmp    720a <__cxa_finalize@plt+0x45fa>
    6f76:	48 8b 5d a8          	mov    rbx,QWORD PTR [rbp-0x58]
    6f7a:	48 8b 45 b8          	mov    rax,QWORD PTR [rbp-0x48]
    6f7e:	48 89 c7             	mov    rdi,rax
    6f81:	e8 9c 0f 00 00       	call   7f22 <__cxa_finalize@plt+0x5312>
    6f86:	48 89 c2             	mov    rdx,rax
    6f89:	48 8b 45 98          	mov    rax,QWORD PTR [rbp-0x68]
    6f8d:	48 89 c6             	mov    rsi,rax
    6f90:	48 89 df             	mov    rdi,rbx
    6f93:	e8 50 f4 ff ff       	call   63e8 <__cxa_finalize@plt+0x37d8>
    6f98:	84 c0                	test   al,al
    6f9a:	0f 84 14 01 00 00    	je     70b4 <__cxa_finalize@plt+0x44a4>
    6fa0:	48 8b 45 b8          	mov    rax,QWORD PTR [rbp-0x48]
    6fa4:	48 89 45 c0          	mov    QWORD PTR [rbp-0x40],rax
    6fa8:	48 8b 5d b8          	mov    rbx,QWORD PTR [rbp-0x48]
    6fac:	48 8b 45 a8          	mov    rax,QWORD PTR [rbp-0x58]
    6fb0:	48 89 c7             	mov    rdi,rax
    6fb3:	e8 a6 11 00 00       	call   815e <__cxa_finalize@plt+0x554e>
    6fb8:	48 8b 00             	mov    rax,QWORD PTR [rax]
    6fbb:	48 39 c3             	cmp    rbx,rax
    6fbe:	0f 94 c0             	sete   al
    6fc1:	84 c0                	test   al,al
    6fc3:	74 3d                	je     7002 <__cxa_finalize@plt+0x43f2>
    6fc5:	48 8b 45 a8          	mov    rax,QWORD PTR [rbp-0x58]
    6fc9:	48 89 c7             	mov    rdi,rax
    6fcc:	e8 8d 11 00 00       	call   815e <__cxa_finalize@plt+0x554e>
    6fd1:	48 89 c3             	mov    rbx,rax
    6fd4:	48 8b 45 a8          	mov    rax,QWORD PTR [rbp-0x58]
    6fd8:	48 89 c7             	mov    rdi,rax
    6fdb:	e8 7e 11 00 00       	call   815e <__cxa_finalize@plt+0x554e>
    6fe0:	48 89 c1             	mov    rcx,rax
    6fe3:	48 8d 45 d0          	lea    rax,[rbp-0x30]
    6fe7:	48 89 da             	mov    rdx,rbx
    6fea:	48 89 ce             	mov    rsi,rcx
    6fed:	48 89 c7             	mov    rdi,rax
    6ff0:	e8 0b fe ff ff       	call   6e00 <__cxa_finalize@plt+0x41f0>
    6ff5:	48 8b 45 d0          	mov    rax,QWORD PTR [rbp-0x30]
    6ff9:	48 8b 55 d8          	mov    rdx,QWORD PTR [rbp-0x28]
    6ffd:	e9 08 02 00 00       	jmp    720a <__cxa_finalize@plt+0x45fa>
    7002:	48 8b 5d a8          	mov    rbx,QWORD PTR [rbp-0x58]
    7006:	48 8d 45 c0          	lea    rax,[rbp-0x40]
    700a:	48 89 c7             	mov    rdi,rax
    700d:	e8 5e 11 00 00       	call   8170 <__cxa_finalize@plt+0x5560>
    7012:	48 8b 00             	mov    rax,QWORD PTR [rax]
    7015:	48 89 c7             	mov    rdi,rax
    7018:	e8 05 0f 00 00       	call   7f22 <__cxa_finalize@plt+0x5312>
    701d:	48 89 c1             	mov    rcx,rax
    7020:	48 8b 45 98          	mov    rax,QWORD PTR [rbp-0x68]
    7024:	48 89 c2             	mov    rdx,rax
    7027:	48 89 ce             	mov    rsi,rcx
    702a:	48 89 df             	mov    rdi,rbx
    702d:	e8 b6 f3 ff ff       	call   63e8 <__cxa_finalize@plt+0x37d8>
    7032:	84 c0                	test   al,al
    7034:	74 66                	je     709c <__cxa_finalize@plt+0x448c>
    7036:	48 8b 45 c0          	mov    rax,QWORD PTR [rbp-0x40]
    703a:	48 89 c7             	mov    rdi,rax
    703d:	e8 7c fb ff ff       	call   6bbe <__cxa_finalize@plt+0x3fae>
    7042:	48 85 c0             	test   rax,rax
    7045:	0f 94 c0             	sete   al
    7048:	84 c0                	test   al,al
    704a:	74 2c                	je     7078 <__cxa_finalize@plt+0x4468>
    704c:	48 c7 45 c8 00 00 00 	mov    QWORD PTR [rbp-0x38],0x0
    7053:	00 
    7054:	48 8d 55 c0          	lea    rdx,[rbp-0x40]
    7058:	48 8d 4d c8          	lea    rcx,[rbp-0x38]
    705c:	48 8d 45 d0          	lea    rax,[rbp-0x30]
    7060:	48 89 ce             	mov    rsi,rcx
    7063:	48 89 c7             	mov    rdi,rax
    7066:	e8 4b fd ff ff       	call   6db6 <__cxa_finalize@plt+0x41a6>
    706b:	48 8b 45 d0          	mov    rax,QWORD PTR [rbp-0x30]
    706f:	48 8b 55 d8          	mov    rdx,QWORD PTR [rbp-0x28]
    7073:	e9 92 01 00 00       	jmp    720a <__cxa_finalize@plt+0x45fa>
    7078:	48 8d 55 b8          	lea    rdx,[rbp-0x48]
    707c:	48 8d 4d b8          	lea    rcx,[rbp-0x48]
    7080:	48 8d 45 d0          	lea    rax,[rbp-0x30]
    7084:	48 89 ce             	mov    rsi,rcx
    7087:	48 89 c7             	mov    rdi,rax
    708a:	e8 71 fd ff ff       	call   6e00 <__cxa_finalize@plt+0x41f0>
    708f:	48 8b 45 d0          	mov    rax,QWORD PTR [rbp-0x30]
    7093:	48 8b 55 d8          	mov    rdx,QWORD PTR [rbp-0x28]
    7097:	e9 6e 01 00 00       	jmp    720a <__cxa_finalize@plt+0x45fa>
    709c:	48 8b 55 98          	mov    rdx,QWORD PTR [rbp-0x68]
    70a0:	48 8b 45 a8          	mov    rax,QWORD PTR [rbp-0x58]
    70a4:	48 89 d6             	mov    rsi,rdx
    70a7:	48 89 c7             	mov    rdi,rax
    70aa:	e8 15 0f 00 00       	call   7fc4 <__cxa_finalize@plt+0x53b4>
    70af:	e9 56 01 00 00       	jmp    720a <__cxa_finalize@plt+0x45fa>
    70b4:	48 8b 5d a8          	mov    rbx,QWORD PTR [rbp-0x58]
    70b8:	48 8b 45 b8          	mov    rax,QWORD PTR [rbp-0x48]
    70bc:	48 89 c7             	mov    rdi,rax
    70bf:	e8 5e 0e 00 00       	call   7f22 <__cxa_finalize@plt+0x5312>
    70c4:	48 89 c1             	mov    rcx,rax
    70c7:	48 8b 45 98          	mov    rax,QWORD PTR [rbp-0x68]
    70cb:	48 89 c2             	mov    rdx,rax
    70ce:	48 89 ce             	mov    rsi,rcx
    70d1:	48 89 df             	mov    rdi,rbx
    70d4:	e8 0f f3 ff ff       	call   63e8 <__cxa_finalize@plt+0x37d8>
    70d9:	84 c0                	test   al,al
    70db:	0f 84 02 01 00 00    	je     71e3 <__cxa_finalize@plt+0x45d3>
    70e1:	48 8b 45 b8          	mov    rax,QWORD PTR [rbp-0x48]
    70e5:	48 89 45 c0          	mov    QWORD PTR [rbp-0x40],rax
    70e9:	48 8b 5d b8          	mov    rbx,QWORD PTR [rbp-0x48]
    70ed:	48 8b 45 a8          	mov    rax,QWORD PTR [rbp-0x58]
    70f1:	48 89 c7             	mov    rdi,rax
    70f4:	e8 17 0e 00 00       	call   7f10 <__cxa_finalize@plt+0x5300>
    70f9:	48 8b 00             	mov    rax,QWORD PTR [rax]
    70fc:	48 39 c3             	cmp    rbx,rax
    70ff:	0f 94 c0             	sete   al
    7102:	84 c0                	test   al,al
    7104:	74 37                	je     713d <__cxa_finalize@plt+0x452d>
    7106:	48 8b 45 a8          	mov    rax,QWORD PTR [rbp-0x58]
    710a:	48 89 c7             	mov    rdi,rax
    710d:	e8 fe 0d 00 00       	call   7f10 <__cxa_finalize@plt+0x5300>
    7112:	48 89 c2             	mov    rdx,rax
    7115:	48 c7 45 c8 00 00 00 	mov    QWORD PTR [rbp-0x38],0x0
    711c:	00 
    711d:	48 8d 4d c8          	lea    rcx,[rbp-0x38]
    7121:	48 8d 45 d0          	lea    rax,[rbp-0x30]
    7125:	48 89 ce             	mov    rsi,rcx
    7128:	48 89 c7             	mov    rdi,rax
    712b:	e8 86 fc ff ff       	call   6db6 <__cxa_finalize@plt+0x41a6>
    7130:	48 8b 45 d0          	mov    rax,QWORD PTR [rbp-0x30]
    7134:	48 8b 55 d8          	mov    rdx,QWORD PTR [rbp-0x28]
    7138:	e9 cd 00 00 00       	jmp    720a <__cxa_finalize@plt+0x45fa>
    713d:	48 8b 5d a8          	mov    rbx,QWORD PTR [rbp-0x58]
    7141:	48 8d 45 c0          	lea    rax,[rbp-0x40]
    7145:	48 89 c7             	mov    rdi,rax
    7148:	e8 4f 10 00 00       	call   819c <__cxa_finalize@plt+0x558c>
    714d:	48 8b 00             	mov    rax,QWORD PTR [rax]
    7150:	48 89 c7             	mov    rdi,rax
    7153:	e8 ca 0d 00 00       	call   7f22 <__cxa_finalize@plt+0x5312>
    7158:	48 89 c2             	mov    rdx,rax
    715b:	48 8b 45 98          	mov    rax,QWORD PTR [rbp-0x68]
    715f:	48 89 c6             	mov    rsi,rax
    7162:	48 89 df             	mov    rdi,rbx
    7165:	e8 7e f2 ff ff       	call   63e8 <__cxa_finalize@plt+0x37d8>
    716a:	84 c0                	test   al,al
    716c:	74 60                	je     71ce <__cxa_finalize@plt+0x45be>
    716e:	48 8b 45 b8          	mov    rax,QWORD PTR [rbp-0x48]
    7172:	48 89 c7             	mov    rdi,rax
    7175:	e8 44 fa ff ff       	call   6bbe <__cxa_finalize@plt+0x3fae>
    717a:	48 85 c0             	test   rax,rax
    717d:	0f 94 c0             	sete   al
    7180:	84 c0                	test   al,al
    7182:	74 29                	je     71ad <__cxa_finalize@plt+0x459d>
    7184:	48 c7 45 c8 00 00 00 	mov    QWORD PTR [rbp-0x38],0x0
    718b:	00 
    718c:	48 8d 55 b8          	lea    rdx,[rbp-0x48]
    7190:	48 8d 4d c8          	lea    rcx,[rbp-0x38]
    7194:	48 8d 45 d0          	lea    rax,[rbp-0x30]
    7198:	48 89 ce             	mov    rsi,rcx
    719b:	48 89 c7             	mov    rdi,rax
    719e:	e8 13 fc ff ff       	call   6db6 <__cxa_finalize@plt+0x41a6>
    71a3:	48 8b 45 d0          	mov    rax,QWORD PTR [rbp-0x30]
    71a7:	48 8b 55 d8          	mov    rdx,QWORD PTR [rbp-0x28]
    71ab:	eb 5d                	jmp    720a <__cxa_finalize@plt+0x45fa>
    71ad:	48 8d 55 c0          	lea    rdx,[rbp-0x40]
    71b1:	48 8d 4d c0          	lea    rcx,[rbp-0x40]
    71b5:	48 8d 45 d0          	lea    rax,[rbp-0x30]
    71b9:	48 89 ce             	mov    rsi,rcx
    71bc:	48 89 c7             	mov    rdi,rax
    71bf:	e8 3c fc ff ff       	call   6e00 <__cxa_finalize@plt+0x41f0>
    71c4:	48 8b 45 d0          	mov    rax,QWORD PTR [rbp-0x30]
    71c8:	48 8b 55 d8          	mov    rdx,QWORD PTR [rbp-0x28]
    71cc:	eb 3c                	jmp    720a <__cxa_finalize@plt+0x45fa>
    71ce:	48 8b 55 98          	mov    rdx,QWORD PTR [rbp-0x68]
    71d2:	48 8b 45 a8          	mov    rax,QWORD PTR [rbp-0x58]
    71d6:	48 89 d6             	mov    rsi,rdx
    71d9:	48 89 c7             	mov    rdi,rax
    71dc:	e8 e3 0d 00 00       	call   7fc4 <__cxa_finalize@plt+0x53b4>
    71e1:	eb 27                	jmp    720a <__cxa_finalize@plt+0x45fa>
    71e3:	48 c7 45 c8 00 00 00 	mov    QWORD PTR [rbp-0x38],0x0
    71ea:	00 
    71eb:	48 8d 55 c8          	lea    rdx,[rbp-0x38]
    71ef:	48 8d 4d b8          	lea    rcx,[rbp-0x48]
    71f3:	48 8d 45 d0          	lea    rax,[rbp-0x30]
    71f7:	48 89 ce             	mov    rsi,rcx
    71fa:	48 89 c7             	mov    rdi,rax
    71fd:	e8 42 fc ff ff       	call   6e44 <__cxa_finalize@plt+0x4234>
    7202:	48 8b 45 d0          	mov    rax,QWORD PTR [rbp-0x30]
    7206:	48 8b 55 d8          	mov    rdx,QWORD PTR [rbp-0x28]
    720a:	48 8b 75 e8          	mov    rsi,QWORD PTR [rbp-0x18]
    720e:	64 48 33 34 25 28 00 	xor    rsi,QWORD PTR fs:0x28
    7215:	00 00 
    7217:	74 05                	je     721e <__cxa_finalize@plt+0x460e>
    7219:	e8 e2 b7 ff ff       	call   2a00 <__stack_chk_fail@plt>
    721e:	48 83 c4 68          	add    rsp,0x68
    7222:	5b                   	pop    rbx
    7223:	5d                   	pop    rbp
    7224:	c3                   	ret    
    7225:	55                   	push   rbp
    7226:	48 89 e5             	mov    rbp,rsp
    7229:	48 83 ec 20          	sub    rsp,0x20
    722d:	48 89 7d e8          	mov    QWORD PTR [rbp-0x18],rdi
    7231:	64 48 8b 04 25 28 00 	mov    rax,QWORD PTR fs:0x28
    7238:	00 00 
    723a:	48 89 45 f8          	mov    QWORD PTR [rbp-0x8],rax
    723e:	31 c0                	xor    eax,eax
    7240:	48 8b 45 e8          	mov    rax,QWORD PTR [rbp-0x18]
    7244:	48 89 c7             	mov    rdi,rax
    7247:	e8 7b 0f 00 00       	call   81c7 <__cxa_finalize@plt+0x55b7>
    724c:	48 89 c2             	mov    rdx,rax
    724f:	48 8d 45 f7          	lea    rax,[rbp-0x9]
    7253:	48 89 d6             	mov    rsi,rdx
    7256:	48 89 c7             	mov    rdi,rax
    7259:	e8 84 0f 00 00       	call   81e2 <__cxa_finalize@plt+0x55d2>
    725e:	48 8b 4d f8          	mov    rcx,QWORD PTR [rbp-0x8]
    7262:	64 48 33 0c 25 28 00 	xor    rcx,QWORD PTR fs:0x28
    7269:	00 00 
    726b:	74 05                	je     7272 <__cxa_finalize@plt+0x4662>
    726d:	e8 8e b7 ff ff       	call   2a00 <__stack_chk_fail@plt>
    7272:	c9                   	leave  
    7273:	c3                   	ret    
    7274:	55                   	push   rbp
    7275:	48 89 e5             	mov    rbp,rsp
    7278:	41 54                	push   r12
    727a:	53                   	push   rbx
    727b:	48 83 ec 40          	sub    rsp,0x40
    727f:	48 89 7d c8          	mov    QWORD PTR [rbp-0x38],rdi
    7283:	48 89 75 c0          	mov    QWORD PTR [rbp-0x40],rsi
    7287:	48 89 55 b8          	mov    QWORD PTR [rbp-0x48],rdx
    728b:	48 89 4d b0          	mov    QWORD PTR [rbp-0x50],rcx
    728f:	64 48 8b 04 25 28 00 	mov    rax,QWORD PTR fs:0x28
    7296:	00 00 
    7298:	48 89 45 e8          	mov    QWORD PTR [rbp-0x18],rax
    729c:	31 c0                	xor    eax,eax
    729e:	48 83 7d c0 00       	cmp    QWORD PTR [rbp-0x40],0x0
    72a3:	75 43                	jne    72e8 <__cxa_finalize@plt+0x46d8>
    72a5:	48 8b 45 c8          	mov    rax,QWORD PTR [rbp-0x38]
    72a9:	48 89 c7             	mov    rdi,rax
    72ac:	e8 1d 0a 00 00       	call   7cce <__cxa_finalize@plt+0x50be>
    72b1:	48 39 45 b8          	cmp    QWORD PTR [rbp-0x48],rax
    72b5:	74 31                	je     72e8 <__cxa_finalize@plt+0x46d8>
    72b7:	48 8b 5d c8          	mov    rbx,QWORD PTR [rbp-0x38]
    72bb:	48 8b 45 b8          	mov    rax,QWORD PTR [rbp-0x48]
    72bf:	48 89 c7             	mov    rdi,rax
    72c2:	e8 5b 0c 00 00       	call   7f22 <__cxa_finalize@plt+0x5312>
    72c7:	49 89 c4             	mov    r12,rax
    72ca:	48 8b 45 b0          	mov    rax,QWORD PTR [rbp-0x50]
    72ce:	48 89 c7             	mov    rdi,rax
    72d1:	e8 4f ff ff ff       	call   7225 <__cxa_finalize@plt+0x4615>
    72d6:	4c 89 e2             	mov    rdx,r12
    72d9:	48 89 c6             	mov    rsi,rax
    72dc:	48 89 df             	mov    rdi,rbx
    72df:	e8 04 f1 ff ff       	call   63e8 <__cxa_finalize@plt+0x37d8>
    72e4:	84 c0                	test   al,al
    72e6:	74 07                	je     72ef <__cxa_finalize@plt+0x46df>
    72e8:	b8 01 00 00 00       	mov    eax,0x1
    72ed:	eb 05                	jmp    72f4 <__cxa_finalize@plt+0x46e4>
    72ef:	b8 00 00 00 00       	mov    eax,0x0
    72f4:	88 45 df             	mov    BYTE PTR [rbp-0x21],al
    72f7:	48 8b 45 c8          	mov    rax,QWORD PTR [rbp-0x38]
    72fb:	48 8d 48 08          	lea    rcx,[rax+0x8]
    72ff:	0f b6 45 df          	movzx  eax,BYTE PTR [rbp-0x21]
    7303:	48 8b 55 b8          	mov    rdx,QWORD PTR [rbp-0x48]
    7307:	48 8b 75 b0          	mov    rsi,QWORD PTR [rbp-0x50]
    730b:	89 c7                	mov    edi,eax
    730d:	e8 7e b4 ff ff       	call   2790 <_ZSt29_Rb_tree_insert_and_rebalancebPSt18_Rb_tree_node_baseS0_RS_@plt>
    7312:	48 8b 45 c8          	mov    rax,QWORD PTR [rbp-0x38]
    7316:	48 8b 40 28          	mov    rax,QWORD PTR [rax+0x28]
    731a:	48 8d 50 01          	lea    rdx,[rax+0x1]
    731e:	48 8b 45 c8          	mov    rax,QWORD PTR [rbp-0x38]
    7322:	48 89 50 28          	mov    QWORD PTR [rax+0x28],rdx
    7326:	48 8b 55 b0          	mov    rdx,QWORD PTR [rbp-0x50]
    732a:	48 8d 45 e0          	lea    rax,[rbp-0x20]
    732e:	48 89 d6             	mov    rsi,rdx
    7331:	48 89 c7             	mov    rdi,rax
    7334:	e8 21 00 00 00       	call   735a <__cxa_finalize@plt+0x474a>
    7339:	48 8b 45 e0          	mov    rax,QWORD PTR [rbp-0x20]
    733d:	48 8b 5d e8          	mov    rbx,QWORD PTR [rbp-0x18]
    7341:	64 48 33 1c 25 28 00 	xor    rbx,QWORD PTR fs:0x28
    7348:	00 00 
    734a:	74 05                	je     7351 <__cxa_finalize@plt+0x4741>
    734c:	e8 af b6 ff ff       	call   2a00 <__stack_chk_fail@plt>
    7351:	48 83 c4 40          	add    rsp,0x40
    7355:	5b                   	pop    rbx
    7356:	41 5c                	pop    r12
    7358:	5d                   	pop    rbp
    7359:	c3                   	ret    
    735a:	55                   	push   rbp
    735b:	48 89 e5             	mov    rbp,rsp
    735e:	48 89 7d f8          	mov    QWORD PTR [rbp-0x8],rdi
    7362:	48 89 75 f0          	mov    QWORD PTR [rbp-0x10],rsi
    7366:	48 8b 45 f8          	mov    rax,QWORD PTR [rbp-0x8]
    736a:	48 8b 55 f0          	mov    rdx,QWORD PTR [rbp-0x10]
    736e:	48 89 10             	mov    QWORD PTR [rax],rdx
    7371:	90                   	nop
    7372:	5d                   	pop    rbp
    7373:	c3                   	ret    
    7374:	55                   	push   rbp
    7375:	48 89 e5             	mov    rbp,rsp
    7378:	53                   	push   rbx
    7379:	48 83 ec 18          	sub    rsp,0x18
    737d:	48 89 7d e8          	mov    QWORD PTR [rbp-0x18],rdi
    7381:	48 89 75 e0          	mov    QWORD PTR [rbp-0x20],rsi
    7385:	48 8b 45 e8          	mov    rax,QWORD PTR [rbp-0x18]
    7389:	48 89 c7             	mov    rdi,rax
    738c:	e8 63 0e 00 00       	call   81f4 <__cxa_finalize@plt+0x55e4>
    7391:	48 89 c3             	mov    rbx,rax
    7394:	48 8b 45 e8          	mov    rax,QWORD PTR [rbp-0x18]
    7398:	48 89 c7             	mov    rdi,rax
    739b:	e8 94 ef ff ff       	call   6334 <__cxa_finalize@plt+0x3724>
    73a0:	48 89 c6             	mov    rsi,rax
    73a3:	48 8b 55 e0          	mov    rdx,QWORD PTR [rbp-0x20]
    73a7:	48 8b 45 e8          	mov    rax,QWORD PTR [rbp-0x18]
    73ab:	48 89 d1             	mov    rcx,rdx
    73ae:	48 89 da             	mov    rdx,rbx
    73b1:	48 89 c7             	mov    rdi,rax
    73b4:	e8 4d 0e 00 00       	call   8206 <__cxa_finalize@plt+0x55f6>
    73b9:	48 83 c4 18          	add    rsp,0x18
    73bd:	5b                   	pop    rbx
    73be:	5d                   	pop    rbp
    73bf:	c3                   	ret    
    73c0:	55                   	push   rbp
    73c1:	48 89 e5             	mov    rbp,rsp
    73c4:	48 83 ec 20          	sub    rsp,0x20
    73c8:	48 89 7d e8          	mov    QWORD PTR [rbp-0x18],rdi
    73cc:	64 48 8b 04 25 28 00 	mov    rax,QWORD PTR fs:0x28
    73d3:	00 00 
    73d5:	48 89 45 f8          	mov    QWORD PTR [rbp-0x8],rax
    73d9:	31 c0                	xor    eax,eax
    73db:	48 8b 45 e8          	mov    rax,QWORD PTR [rbp-0x18]
    73df:	48 8d 50 08          	lea    rdx,[rax+0x8]
    73e3:	48 8d 45 f0          	lea    rax,[rbp-0x10]
    73e7:	48 89 d6             	mov    rsi,rdx
    73ea:	48 89 c7             	mov    rdi,rax
    73ed:	e8 98 05 00 00       	call   798a <__cxa_finalize@plt+0x4d7a>
    73f2:	48 8b 45 f0          	mov    rax,QWORD PTR [rbp-0x10]
    73f6:	48 8b 4d f8          	mov    rcx,QWORD PTR [rbp-0x8]
    73fa:	64 48 33 0c 25 28 00 	xor    rcx,QWORD PTR fs:0x28
    7401:	00 00 
    7403:	74 05                	je     740a <__cxa_finalize@plt+0x47fa>
    7405:	e8 f6 b5 ff ff       	call   2a00 <__stack_chk_fail@plt>
    740a:	c9                   	leave  
    740b:	c3                   	ret    
    740c:	55                   	push   rbp
    740d:	48 89 e5             	mov    rbp,rsp
    7410:	48 89 7d f8          	mov    QWORD PTR [rbp-0x8],rdi
    7414:	5d                   	pop    rbp
    7415:	c3                   	ret    
    7416:	55                   	push   rbp
    7417:	48 89 e5             	mov    rbp,rsp
    741a:	48 83 ec 10          	sub    rsp,0x10
    741e:	48 89 7d f8          	mov    QWORD PTR [rbp-0x8],rdi
    7422:	48 8b 45 f8          	mov    rax,QWORD PTR [rbp-0x8]
    7426:	48 83 c0 20          	add    rax,0x20
    742a:	48 89 c7             	mov    rdi,rax
    742d:	e8 8e 0e 00 00       	call   82c0 <__cxa_finalize@plt+0x56b0>
    7432:	c9                   	leave  
    7433:	c3                   	ret    
    7434:	55                   	push   rbp
    7435:	48 89 e5             	mov    rbp,rsp
    7438:	41 54                	push   r12
    743a:	53                   	push   rbx
    743b:	48 83 ec 30          	sub    rsp,0x30
    743f:	48 89 7d d8          	mov    QWORD PTR [rbp-0x28],rdi
    7443:	48 89 75 d0          	mov    QWORD PTR [rbp-0x30],rsi
    7447:	48 89 55 c8          	mov    QWORD PTR [rbp-0x38],rdx
    744b:	48 89 4d c0          	mov    QWORD PTR [rbp-0x40],rcx
    744f:	48 8b 45 d8          	mov    rax,QWORD PTR [rbp-0x28]
    7453:	48 89 c7             	mov    rdi,rax
    7456:	e8 7f 0e 00 00       	call   82da <__cxa_finalize@plt+0x56ca>
    745b:	48 89 45 e8          	mov    QWORD PTR [rbp-0x18],rax
    745f:	48 8b 45 c0          	mov    rax,QWORD PTR [rbp-0x40]
    7463:	48 89 c7             	mov    rdi,rax
    7466:	e8 4f f0 ff ff       	call   64ba <__cxa_finalize@plt+0x38aa>
    746b:	49 89 c4             	mov    r12,rax
    746e:	48 8b 45 c8          	mov    rax,QWORD PTR [rbp-0x38]
    7472:	48 89 c7             	mov    rdi,rax
    7475:	e8 32 f0 ff ff       	call   64ac <__cxa_finalize@plt+0x389c>
    747a:	48 89 c3             	mov    rbx,rax
    747d:	48 8b 45 d0          	mov    rax,QWORD PTR [rbp-0x30]
    7481:	48 89 c7             	mov    rdi,rax
    7484:	e8 15 f0 ff ff       	call   649e <__cxa_finalize@plt+0x388e>
    7489:	48 89 c2             	mov    rdx,rax
    748c:	48 8b 75 e8          	mov    rsi,QWORD PTR [rbp-0x18]
    7490:	48 8b 45 d8          	mov    rax,QWORD PTR [rbp-0x28]
    7494:	4d 89 e0             	mov    r8,r12
    7497:	48 89 d9             	mov    rcx,rbx
    749a:	48 89 c7             	mov    rdi,rax
    749d:	e8 60 0e 00 00       	call   8302 <__cxa_finalize@plt+0x56f2>
    74a2:	48 8b 45 e8          	mov    rax,QWORD PTR [rbp-0x18]
    74a6:	48 83 c4 30          	add    rsp,0x30
    74aa:	5b                   	pop    rbx
    74ab:	41 5c                	pop    r12
    74ad:	5d                   	pop    rbp
    74ae:	c3                   	ret    
    74af:	90                   	nop
    74b0:	55                   	push   rbp
    74b1:	48 89 e5             	mov    rbp,rsp
    74b4:	53                   	push   rbx
    74b5:	48 83 ec 68          	sub    rsp,0x68
    74b9:	48 89 7d a8          	mov    QWORD PTR [rbp-0x58],rdi
    74bd:	48 89 75 a0          	mov    QWORD PTR [rbp-0x60],rsi
    74c1:	48 89 55 98          	mov    QWORD PTR [rbp-0x68],rdx
    74c5:	64 48 8b 04 25 28 00 	mov    rax,QWORD PTR fs:0x28
    74cc:	00 00 
    74ce:	48 89 45 e8          	mov    QWORD PTR [rbp-0x18],rax
    74d2:	31 c0                	xor    eax,eax
    74d4:	48 8d 45 a0          	lea    rax,[rbp-0x60]
    74d8:	48 89 c7             	mov    rdi,rax
    74db:	e8 f8 0e 00 00       	call   83d8 <__cxa_finalize@plt+0x57c8>
    74e0:	48 89 45 b8          	mov    QWORD PTR [rbp-0x48],rax
    74e4:	48 8b 5d b8          	mov    rbx,QWORD PTR [rbp-0x48]
    74e8:	48 8b 45 a8          	mov    rax,QWORD PTR [rbp-0x58]
    74ec:	48 89 c7             	mov    rdi,rax
    74ef:	e8 00 0d 00 00       	call   81f4 <__cxa_finalize@plt+0x55e4>
    74f4:	48 39 c3             	cmp    rbx,rax
    74f7:	0f 94 c0             	sete   al
    74fa:	84 c0                	test   al,al
    74fc:	0f 84 a4 00 00 00    	je     75a6 <__cxa_finalize@plt+0x4996>
    7502:	48 8b 45 a8          	mov    rax,QWORD PTR [rbp-0x58]
    7506:	48 89 c7             	mov    rdi,rax
    7509:	e8 16 0f 00 00       	call   8424 <__cxa_finalize@plt+0x5814>
    750e:	48 85 c0             	test   rax,rax
    7511:	74 3b                	je     754e <__cxa_finalize@plt+0x493e>
    7513:	48 8b 5d a8          	mov    rbx,QWORD PTR [rbp-0x58]
    7517:	48 8b 45 a8          	mov    rax,QWORD PTR [rbp-0x58]
    751b:	48 89 c7             	mov    rdi,rax
    751e:	e8 13 0f 00 00       	call   8436 <__cxa_finalize@plt+0x5826>
    7523:	48 8b 00             	mov    rax,QWORD PTR [rax]
    7526:	48 89 c7             	mov    rdi,rax
    7529:	e8 53 05 00 00       	call   7a81 <__cxa_finalize@plt+0x4e71>
    752e:	48 89 c1             	mov    rcx,rax
    7531:	48 8b 45 98          	mov    rax,QWORD PTR [rbp-0x68]
    7535:	48 89 c2             	mov    rdx,rax
    7538:	48 89 ce             	mov    rsi,rcx
    753b:	48 89 df             	mov    rdi,rbx
    753e:	e8 a5 ee ff ff       	call   63e8 <__cxa_finalize@plt+0x37d8>
    7543:	84 c0                	test   al,al
    7545:	74 07                	je     754e <__cxa_finalize@plt+0x493e>
    7547:	b8 01 00 00 00       	mov    eax,0x1
    754c:	eb 05                	jmp    7553 <__cxa_finalize@plt+0x4943>
    754e:	b8 00 00 00 00       	mov    eax,0x0
    7553:	84 c0                	test   al,al
    7555:	74 37                	je     758e <__cxa_finalize@plt+0x497e>
    7557:	48 8b 45 a8          	mov    rax,QWORD PTR [rbp-0x58]
    755b:	48 89 c7             	mov    rdi,rax
    755e:	e8 d3 0e 00 00       	call   8436 <__cxa_finalize@plt+0x5826>
    7563:	48 89 c2             	mov    rdx,rax
    7566:	48 c7 45 c8 00 00 00 	mov    QWORD PTR [rbp-0x38],0x0
    756d:	00 
    756e:	48 8d 4d c8          	lea    rcx,[rbp-0x38]
    7572:	48 8d 45 d0          	lea    rax,[rbp-0x30]
    7576:	48 89 ce             	mov    rsi,rcx
    7579:	48 89 c7             	mov    rdi,rax
    757c:	e8 35 f8 ff ff       	call   6db6 <__cxa_finalize@plt+0x41a6>
    7581:	48 8b 45 d0          	mov    rax,QWORD PTR [rbp-0x30]
    7585:	48 8b 55 d8          	mov    rdx,QWORD PTR [rbp-0x28]
    7589:	e9 ac 02 00 00       	jmp    783a <__cxa_finalize@plt+0x4c2a>
    758e:	48 8b 55 98          	mov    rdx,QWORD PTR [rbp-0x68]
    7592:	48 8b 45 a8          	mov    rax,QWORD PTR [rbp-0x58]
    7596:	48 89 d6             	mov    rsi,rdx
    7599:	48 89 c7             	mov    rdi,rax
    759c:	e8 f9 0e 00 00       	call   849a <__cxa_finalize@plt+0x588a>
    75a1:	e9 94 02 00 00       	jmp    783a <__cxa_finalize@plt+0x4c2a>
    75a6:	48 8b 5d a8          	mov    rbx,QWORD PTR [rbp-0x58]
    75aa:	48 8b 45 b8          	mov    rax,QWORD PTR [rbp-0x48]
    75ae:	48 89 c7             	mov    rdi,rax
    75b1:	e8 cb 04 00 00       	call   7a81 <__cxa_finalize@plt+0x4e71>
    75b6:	48 89 c2             	mov    rdx,rax
    75b9:	48 8b 45 98          	mov    rax,QWORD PTR [rbp-0x68]
    75bd:	48 89 c6             	mov    rsi,rax
    75c0:	48 89 df             	mov    rdi,rbx
    75c3:	e8 20 ee ff ff       	call   63e8 <__cxa_finalize@plt+0x37d8>
    75c8:	84 c0                	test   al,al
    75ca:	0f 84 14 01 00 00    	je     76e4 <__cxa_finalize@plt+0x4ad4>
    75d0:	48 8b 45 b8          	mov    rax,QWORD PTR [rbp-0x48]
    75d4:	48 89 45 c0          	mov    QWORD PTR [rbp-0x40],rax
    75d8:	48 8b 5d b8          	mov    rbx,QWORD PTR [rbp-0x48]
    75dc:	48 8b 45 a8          	mov    rax,QWORD PTR [rbp-0x58]
    75e0:	48 89 c7             	mov    rdi,rax
    75e3:	e8 4c 10 00 00       	call   8634 <__cxa_finalize@plt+0x5a24>
    75e8:	48 8b 00             	mov    rax,QWORD PTR [rax]
    75eb:	48 39 c3             	cmp    rbx,rax
    75ee:	0f 94 c0             	sete   al
    75f1:	84 c0                	test   al,al
    75f3:	74 3d                	je     7632 <__cxa_finalize@plt+0x4a22>
    75f5:	48 8b 45 a8          	mov    rax,QWORD PTR [rbp-0x58]
    75f9:	48 89 c7             	mov    rdi,rax
    75fc:	e8 33 10 00 00       	call   8634 <__cxa_finalize@plt+0x5a24>
    7601:	48 89 c3             	mov    rbx,rax
    7604:	48 8b 45 a8          	mov    rax,QWORD PTR [rbp-0x58]
    7608:	48 89 c7             	mov    rdi,rax
    760b:	e8 24 10 00 00       	call   8634 <__cxa_finalize@plt+0x5a24>
    7610:	48 89 c1             	mov    rcx,rax
    7613:	48 8d 45 d0          	lea    rax,[rbp-0x30]
    7617:	48 89 da             	mov    rdx,rbx
    761a:	48 89 ce             	mov    rsi,rcx
    761d:	48 89 c7             	mov    rdi,rax
    7620:	e8 db f7 ff ff       	call   6e00 <__cxa_finalize@plt+0x41f0>
    7625:	48 8b 45 d0          	mov    rax,QWORD PTR [rbp-0x30]
    7629:	48 8b 55 d8          	mov    rdx,QWORD PTR [rbp-0x28]
    762d:	e9 08 02 00 00       	jmp    783a <__cxa_finalize@plt+0x4c2a>
    7632:	48 8b 5d a8          	mov    rbx,QWORD PTR [rbp-0x58]
    7636:	48 8d 45 c0          	lea    rax,[rbp-0x40]
    763a:	48 89 c7             	mov    rdi,rax
    763d:	e8 04 10 00 00       	call   8646 <__cxa_finalize@plt+0x5a36>
    7642:	48 8b 00             	mov    rax,QWORD PTR [rax]
    7645:	48 89 c7             	mov    rdi,rax
    7648:	e8 34 04 00 00       	call   7a81 <__cxa_finalize@plt+0x4e71>
    764d:	48 89 c1             	mov    rcx,rax
    7650:	48 8b 45 98          	mov    rax,QWORD PTR [rbp-0x68]
    7654:	48 89 c2             	mov    rdx,rax
    7657:	48 89 ce             	mov    rsi,rcx
    765a:	48 89 df             	mov    rdi,rbx
    765d:	e8 86 ed ff ff       	call   63e8 <__cxa_finalize@plt+0x37d8>
    7662:	84 c0                	test   al,al
    7664:	74 66                	je     76cc <__cxa_finalize@plt+0x4abc>
    7666:	48 8b 45 c0          	mov    rax,QWORD PTR [rbp-0x40]
    766a:	48 89 c7             	mov    rdi,rax
    766d:	e8 a9 f5 ff ff       	call   6c1b <__cxa_finalize@plt+0x400b>
    7672:	48 85 c0             	test   rax,rax
    7675:	0f 94 c0             	sete   al
    7678:	84 c0                	test   al,al
    767a:	74 2c                	je     76a8 <__cxa_finalize@plt+0x4a98>
    767c:	48 c7 45 c8 00 00 00 	mov    QWORD PTR [rbp-0x38],0x0
    7683:	00 
    7684:	48 8d 55 c0          	lea    rdx,[rbp-0x40]
    7688:	48 8d 4d c8          	lea    rcx,[rbp-0x38]
    768c:	48 8d 45 d0          	lea    rax,[rbp-0x30]
    7690:	48 89 ce             	mov    rsi,rcx
    7693:	48 89 c7             	mov    rdi,rax
    7696:	e8 1b f7 ff ff       	call   6db6 <__cxa_finalize@plt+0x41a6>
    769b:	48 8b 45 d0          	mov    rax,QWORD PTR [rbp-0x30]
    769f:	48 8b 55 d8          	mov    rdx,QWORD PTR [rbp-0x28]
    76a3:	e9 92 01 00 00       	jmp    783a <__cxa_finalize@plt+0x4c2a>
    76a8:	48 8d 55 b8          	lea    rdx,[rbp-0x48]
    76ac:	48 8d 4d b8          	lea    rcx,[rbp-0x48]
    76b0:	48 8d 45 d0          	lea    rax,[rbp-0x30]
    76b4:	48 89 ce             	mov    rsi,rcx
    76b7:	48 89 c7             	mov    rdi,rax
    76ba:	e8 41 f7 ff ff       	call   6e00 <__cxa_finalize@plt+0x41f0>
    76bf:	48 8b 45 d0          	mov    rax,QWORD PTR [rbp-0x30]
    76c3:	48 8b 55 d8          	mov    rdx,QWORD PTR [rbp-0x28]
    76c7:	e9 6e 01 00 00       	jmp    783a <__cxa_finalize@plt+0x4c2a>
    76cc:	48 8b 55 98          	mov    rdx,QWORD PTR [rbp-0x68]
    76d0:	48 8b 45 a8          	mov    rax,QWORD PTR [rbp-0x58]
    76d4:	48 89 d6             	mov    rsi,rdx
    76d7:	48 89 c7             	mov    rdi,rax
    76da:	e8 bb 0d 00 00       	call   849a <__cxa_finalize@plt+0x588a>
    76df:	e9 56 01 00 00       	jmp    783a <__cxa_finalize@plt+0x4c2a>
    76e4:	48 8b 5d a8          	mov    rbx,QWORD PTR [rbp-0x58]
    76e8:	48 8b 45 b8          	mov    rax,QWORD PTR [rbp-0x48]
    76ec:	48 89 c7             	mov    rdi,rax
    76ef:	e8 8d 03 00 00       	call   7a81 <__cxa_finalize@plt+0x4e71>
    76f4:	48 89 c1             	mov    rcx,rax
    76f7:	48 8b 45 98          	mov    rax,QWORD PTR [rbp-0x68]
    76fb:	48 89 c2             	mov    rdx,rax
    76fe:	48 89 ce             	mov    rsi,rcx
    7701:	48 89 df             	mov    rdi,rbx
    7704:	e8 df ec ff ff       	call   63e8 <__cxa_finalize@plt+0x37d8>
    7709:	84 c0                	test   al,al
    770b:	0f 84 02 01 00 00    	je     7813 <__cxa_finalize@plt+0x4c03>
    7711:	48 8b 45 b8          	mov    rax,QWORD PTR [rbp-0x48]
    7715:	48 89 45 c0          	mov    QWORD PTR [rbp-0x40],rax
    7719:	48 8b 5d b8          	mov    rbx,QWORD PTR [rbp-0x48]
    771d:	48 8b 45 a8          	mov    rax,QWORD PTR [rbp-0x58]
    7721:	48 89 c7             	mov    rdi,rax
    7724:	e8 0d 0d 00 00       	call   8436 <__cxa_finalize@plt+0x5826>
    7729:	48 8b 00             	mov    rax,QWORD PTR [rax]
    772c:	48 39 c3             	cmp    rbx,rax
    772f:	0f 94 c0             	sete   al
    7732:	84 c0                	test   al,al
    7734:	74 37                	je     776d <__cxa_finalize@plt+0x4b5d>
    7736:	48 8b 45 a8          	mov    rax,QWORD PTR [rbp-0x58]
    773a:	48 89 c7             	mov    rdi,rax
    773d:	e8 f4 0c 00 00       	call   8436 <__cxa_finalize@plt+0x5826>
    7742:	48 89 c2             	mov    rdx,rax
    7745:	48 c7 45 c8 00 00 00 	mov    QWORD PTR [rbp-0x38],0x0
    774c:	00 
    774d:	48 8d 4d c8          	lea    rcx,[rbp-0x38]
    7751:	48 8d 45 d0          	lea    rax,[rbp-0x30]
    7755:	48 89 ce             	mov    rsi,rcx
    7758:	48 89 c7             	mov    rdi,rax
    775b:	e8 56 f6 ff ff       	call   6db6 <__cxa_finalize@plt+0x41a6>
    7760:	48 8b 45 d0          	mov    rax,QWORD PTR [rbp-0x30]
    7764:	48 8b 55 d8          	mov    rdx,QWORD PTR [rbp-0x28]
    7768:	e9 cd 00 00 00       	jmp    783a <__cxa_finalize@plt+0x4c2a>
    776d:	48 8b 5d a8          	mov    rbx,QWORD PTR [rbp-0x58]
    7771:	48 8d 45 c0          	lea    rax,[rbp-0x40]
    7775:	48 89 c7             	mov    rdi,rax
    7778:	e8 f5 0e 00 00       	call   8672 <__cxa_finalize@plt+0x5a62>
    777d:	48 8b 00             	mov    rax,QWORD PTR [rax]
    7780:	48 89 c7             	mov    rdi,rax
    7783:	e8 f9 02 00 00       	call   7a81 <__cxa_finalize@plt+0x4e71>
    7788:	48 89 c2             	mov    rdx,rax
    778b:	48 8b 45 98          	mov    rax,QWORD PTR [rbp-0x68]
    778f:	48 89 c6             	mov    rsi,rax
    7792:	48 89 df             	mov    rdi,rbx
    7795:	e8 4e ec ff ff       	call   63e8 <__cxa_finalize@plt+0x37d8>
    779a:	84 c0                	test   al,al
    779c:	74 60                	je     77fe <__cxa_finalize@plt+0x4bee>
    779e:	48 8b 45 b8          	mov    rax,QWORD PTR [rbp-0x48]
    77a2:	48 89 c7             	mov    rdi,rax
    77a5:	e8 71 f4 ff ff       	call   6c1b <__cxa_finalize@plt+0x400b>
    77aa:	48 85 c0             	test   rax,rax
    77ad:	0f 94 c0             	sete   al
    77b0:	84 c0                	test   al,al
    77b2:	74 29                	je     77dd <__cxa_finalize@plt+0x4bcd>
    77b4:	48 c7 45 c8 00 00 00 	mov    QWORD PTR [rbp-0x38],0x0
    77bb:	00 
    77bc:	48 8d 55 b8          	lea    rdx,[rbp-0x48]
    77c0:	48 8d 4d c8          	lea    rcx,[rbp-0x38]
    77c4:	48 8d 45 d0          	lea    rax,[rbp-0x30]
    77c8:	48 89 ce             	mov    rsi,rcx
    77cb:	48 89 c7             	mov    rdi,rax
    77ce:	e8 e3 f5 ff ff       	call   6db6 <__cxa_finalize@plt+0x41a6>
    77d3:	48 8b 45 d0          	mov    rax,QWORD PTR [rbp-0x30]
    77d7:	48 8b 55 d8          	mov    rdx,QWORD PTR [rbp-0x28]
    77db:	eb 5d                	jmp    783a <__cxa_finalize@plt+0x4c2a>
    77dd:	48 8d 55 c0          	lea    rdx,[rbp-0x40]
    77e1:	48 8d 4d c0          	lea    rcx,[rbp-0x40]
    77e5:	48 8d 45 d0          	lea    rax,[rbp-0x30]
    77e9:	48 89 ce             	mov    rsi,rcx
    77ec:	48 89 c7             	mov    rdi,rax
    77ef:	e8 0c f6 ff ff       	call   6e00 <__cxa_finalize@plt+0x41f0>
    77f4:	48 8b 45 d0          	mov    rax,QWORD PTR [rbp-0x30]
    77f8:	48 8b 55 d8          	mov    rdx,QWORD PTR [rbp-0x28]
    77fc:	eb 3c                	jmp    783a <__cxa_finalize@plt+0x4c2a>
    77fe:	48 8b 55 98          	mov    rdx,QWORD PTR [rbp-0x68]
    7802:	48 8b 45 a8          	mov    rax,QWORD PTR [rbp-0x58]
    7806:	48 89 d6             	mov    rsi,rdx
    7809:	48 89 c7             	mov    rdi,rax
    780c:	e8 89 0c 00 00       	call   849a <__cxa_finalize@plt+0x588a>
    7811:	eb 27                	jmp    783a <__cxa_finalize@plt+0x4c2a>
    7813:	48 c7 45 c8 00 00 00 	mov    QWORD PTR [rbp-0x38],0x0
    781a:	00 
    781b:	48 8d 55 c8          	lea    rdx,[rbp-0x38]
    781f:	48 8d 4d b8          	lea    rcx,[rbp-0x48]
    7823:	48 8d 45 d0          	lea    rax,[rbp-0x30]
    7827:	48 89 ce             	mov    rsi,rcx
    782a:	48 89 c7             	mov    rdi,rax
    782d:	e8 12 f6 ff ff       	call   6e44 <__cxa_finalize@plt+0x4234>
    7832:	48 8b 45 d0          	mov    rax,QWORD PTR [rbp-0x30]
    7836:	48 8b 55 d8          	mov    rdx,QWORD PTR [rbp-0x28]
    783a:	48 8b 75 e8          	mov    rsi,QWORD PTR [rbp-0x18]
    783e:	64 48 33 34 25 28 00 	xor    rsi,QWORD PTR fs:0x28
    7845:	00 00 
    7847:	74 05                	je     784e <__cxa_finalize@plt+0x4c3e>
    7849:	e8 b2 b1 ff ff       	call   2a00 <__stack_chk_fail@plt>
    784e:	48 83 c4 68          	add    rsp,0x68
    7852:	5b                   	pop    rbx
    7853:	5d                   	pop    rbp
    7854:	c3                   	ret    
    7855:	55                   	push   rbp
    7856:	48 89 e5             	mov    rbp,rsp
    7859:	48 83 ec 20          	sub    rsp,0x20
    785d:	48 89 7d e8          	mov    QWORD PTR [rbp-0x18],rdi
    7861:	64 48 8b 04 25 28 00 	mov    rax,QWORD PTR fs:0x28
    7868:	00 00 
    786a:	48 89 45 f8          	mov    QWORD PTR [rbp-0x8],rax
    786e:	31 c0                	xor    eax,eax
    7870:	48 8b 45 e8          	mov    rax,QWORD PTR [rbp-0x18]
    7874:	48 89 c7             	mov    rdi,rax
    7877:	e8 21 0e 00 00       	call   869d <__cxa_finalize@plt+0x5a8d>
    787c:	48 89 c2             	mov    rdx,rax
    787f:	48 8d 45 f7          	lea    rax,[rbp-0x9]
    7883:	48 89 d6             	mov    rsi,rdx
    7886:	48 89 c7             	mov    rdi,rax
    7889:	e8 2a 0e 00 00       	call   86b8 <__cxa_finalize@plt+0x5aa8>
    788e:	48 8b 4d f8          	mov    rcx,QWORD PTR [rbp-0x8]
    7892:	64 48 33 0c 25 28 00 	xor    rcx,QWORD PTR fs:0x28
    7899:	00 00 
    789b:	74 05                	je     78a2 <__cxa_finalize@plt+0x4c92>
    789d:	e8 5e b1 ff ff       	call   2a00 <__stack_chk_fail@plt>
    78a2:	c9                   	leave  
    78a3:	c3                   	ret    
    78a4:	55                   	push   rbp
    78a5:	48 89 e5             	mov    rbp,rsp
    78a8:	41 54                	push   r12
    78aa:	53                   	push   rbx
    78ab:	48 83 ec 40          	sub    rsp,0x40
    78af:	48 89 7d c8          	mov    QWORD PTR [rbp-0x38],rdi
    78b3:	48 89 75 c0          	mov    QWORD PTR [rbp-0x40],rsi
    78b7:	48 89 55 b8          	mov    QWORD PTR [rbp-0x48],rdx
    78bb:	48 89 4d b0          	mov    QWORD PTR [rbp-0x50],rcx
    78bf:	64 48 8b 04 25 28 00 	mov    rax,QWORD PTR fs:0x28
    78c6:	00 00 
    78c8:	48 89 45 e8          	mov    QWORD PTR [rbp-0x18],rax
    78cc:	31 c0                	xor    eax,eax
    78ce:	48 83 7d c0 00       	cmp    QWORD PTR [rbp-0x40],0x0
    78d3:	75 43                	jne    7918 <__cxa_finalize@plt+0x4d08>
    78d5:	48 8b 45 c8          	mov    rax,QWORD PTR [rbp-0x38]
    78d9:	48 89 c7             	mov    rdi,rax
    78dc:	e8 13 09 00 00       	call   81f4 <__cxa_finalize@plt+0x55e4>
    78e1:	48 39 45 b8          	cmp    QWORD PTR [rbp-0x48],rax
    78e5:	74 31                	je     7918 <__cxa_finalize@plt+0x4d08>
    78e7:	48 8b 5d c8          	mov    rbx,QWORD PTR [rbp-0x38]
    78eb:	48 8b 45 b8          	mov    rax,QWORD PTR [rbp-0x48]
    78ef:	48 89 c7             	mov    rdi,rax
    78f2:	e8 8a 01 00 00       	call   7a81 <__cxa_finalize@plt+0x4e71>
    78f7:	49 89 c4             	mov    r12,rax
    78fa:	48 8b 45 b0          	mov    rax,QWORD PTR [rbp-0x50]
    78fe:	48 89 c7             	mov    rdi,rax
    7901:	e8 4f ff ff ff       	call   7855 <__cxa_finalize@plt+0x4c45>
    7906:	4c 89 e2             	mov    rdx,r12
    7909:	48 89 c6             	mov    rsi,rax
    790c:	48 89 df             	mov    rdi,rbx
    790f:	e8 d4 ea ff ff       	call   63e8 <__cxa_finalize@plt+0x37d8>
    7914:	84 c0                	test   al,al
    7916:	74 07                	je     791f <__cxa_finalize@plt+0x4d0f>
    7918:	b8 01 00 00 00       	mov    eax,0x1
    791d:	eb 05                	jmp    7924 <__cxa_finalize@plt+0x4d14>
    791f:	b8 00 00 00 00       	mov    eax,0x0
    7924:	88 45 df             	mov    BYTE PTR [rbp-0x21],al
    7927:	48 8b 45 c8          	mov    rax,QWORD PTR [rbp-0x38]
    792b:	48 8d 48 08          	lea    rcx,[rax+0x8]
    792f:	0f b6 45 df          	movzx  eax,BYTE PTR [rbp-0x21]
    7933:	48 8b 55 b8          	mov    rdx,QWORD PTR [rbp-0x48]
    7937:	48 8b 75 b0          	mov    rsi,QWORD PTR [rbp-0x50]
    793b:	89 c7                	mov    edi,eax
    793d:	e8 4e ae ff ff       	call   2790 <_ZSt29_Rb_tree_insert_and_rebalancebPSt18_Rb_tree_node_baseS0_RS_@plt>
    7942:	48 8b 45 c8          	mov    rax,QWORD PTR [rbp-0x38]
    7946:	48 8b 40 28          	mov    rax,QWORD PTR [rax+0x28]
    794a:	48 8d 50 01          	lea    rdx,[rax+0x1]
    794e:	48 8b 45 c8          	mov    rax,QWORD PTR [rbp-0x38]
    7952:	48 89 50 28          	mov    QWORD PTR [rax+0x28],rdx
    7956:	48 8b 55 b0          	mov    rdx,QWORD PTR [rbp-0x50]
    795a:	48 8d 45 e0          	lea    rax,[rbp-0x20]
    795e:	48 89 d6             	mov    rsi,rdx
    7961:	48 89 c7             	mov    rdi,rax
    7964:	e8 21 00 00 00       	call   798a <__cxa_finalize@plt+0x4d7a>
    7969:	48 8b 45 e0          	mov    rax,QWORD PTR [rbp-0x20]
    796d:	48 8b 5d e8          	mov    rbx,QWORD PTR [rbp-0x18]
    7971:	64 48 33 1c 25 28 00 	xor    rbx,QWORD PTR fs:0x28
    7978:	00 00 
    797a:	74 05                	je     7981 <__cxa_finalize@plt+0x4d71>
    797c:	e8 7f b0 ff ff       	call   2a00 <__stack_chk_fail@plt>
    7981:	48 83 c4 40          	add    rsp,0x40
    7985:	5b                   	pop    rbx
    7986:	41 5c                	pop    r12
    7988:	5d                   	pop    rbp
    7989:	c3                   	ret    
    798a:	55                   	push   rbp
    798b:	48 89 e5             	mov    rbp,rsp
    798e:	48 89 7d f8          	mov    QWORD PTR [rbp-0x8],rdi
    7992:	48 89 75 f0          	mov    QWORD PTR [rbp-0x10],rsi
    7996:	48 8b 45 f8          	mov    rax,QWORD PTR [rbp-0x8]
    799a:	48 8b 55 f0          	mov    rdx,QWORD PTR [rbp-0x10]
    799e:	48 89 10             	mov    QWORD PTR [rax],rdx
    79a1:	90                   	nop
    79a2:	5d                   	pop    rbp
    79a3:	c3                   	ret    
    79a4:	55                   	push   rbp
    79a5:	48 89 e5             	mov    rbp,rsp
    79a8:	48 89 7d f8          	mov    QWORD PTR [rbp-0x8],rdi
    79ac:	48 8b 45 f8          	mov    rax,QWORD PTR [rbp-0x8]
    79b0:	48 8b 40 10          	mov    rax,QWORD PTR [rax+0x10]
    79b4:	5d                   	pop    rbp
    79b5:	c3                   	ret    
    79b6:	55                   	push   rbp
    79b7:	48 89 e5             	mov    rbp,rsp
    79ba:	48 89 7d f8          	mov    QWORD PTR [rbp-0x8],rdi
    79be:	48 8b 45 f8          	mov    rax,QWORD PTR [rbp-0x8]
    79c2:	48 83 c0 08          	add    rax,0x8
    79c6:	5d                   	pop    rbp
    79c7:	c3                   	ret    
    79c8:	55                   	push   rbp
    79c9:	48 89 e5             	mov    rbp,rsp
    79cc:	53                   	push   rbx
    79cd:	48 83 ec 38          	sub    rsp,0x38
    79d1:	48 89 7d d8          	mov    QWORD PTR [rbp-0x28],rdi
    79d5:	48 89 75 d0          	mov    QWORD PTR [rbp-0x30],rsi
    79d9:	48 89 55 c8          	mov    QWORD PTR [rbp-0x38],rdx
    79dd:	48 89 4d c0          	mov    QWORD PTR [rbp-0x40],rcx
    79e1:	64 48 8b 04 25 28 00 	mov    rax,QWORD PTR fs:0x28
    79e8:	00 00 
    79ea:	48 89 45 e8          	mov    QWORD PTR [rbp-0x18],rax
    79ee:	31 c0                	xor    eax,eax
    79f0:	48 83 7d d0 00       	cmp    QWORD PTR [rbp-0x30],0x0
    79f5:	74 58                	je     7a4f <__cxa_finalize@plt+0x4e3f>
    79f7:	48 8b 5d d8          	mov    rbx,QWORD PTR [rbp-0x28]
    79fb:	48 8b 45 d0          	mov    rax,QWORD PTR [rbp-0x30]
    79ff:	48 89 c7             	mov    rdi,rax
    7a02:	e8 4e fe ff ff       	call   7855 <__cxa_finalize@plt+0x4c45>
    7a07:	48 89 c1             	mov    rcx,rax
    7a0a:	48 8b 45 c0          	mov    rax,QWORD PTR [rbp-0x40]
    7a0e:	48 89 c2             	mov    rdx,rax
    7a11:	48 89 ce             	mov    rsi,rcx
    7a14:	48 89 df             	mov    rdi,rbx
    7a17:	e8 cc e9 ff ff       	call   63e8 <__cxa_finalize@plt+0x37d8>
    7a1c:	83 f0 01             	xor    eax,0x1
    7a1f:	84 c0                	test   al,al
    7a21:	74 1a                	je     7a3d <__cxa_finalize@plt+0x4e2d>
    7a23:	48 8b 45 d0          	mov    rax,QWORD PTR [rbp-0x30]
    7a27:	48 89 45 c8          	mov    QWORD PTR [rbp-0x38],rax
    7a2b:	48 8b 45 d0          	mov    rax,QWORD PTR [rbp-0x30]
    7a2f:	48 89 c7             	mov    rdi,rax
    7a32:	e8 93 0c 00 00       	call   86ca <__cxa_finalize@plt+0x5aba>
    7a37:	48 89 45 d0          	mov    QWORD PTR [rbp-0x30],rax
    7a3b:	eb b3                	jmp    79f0 <__cxa_finalize@plt+0x4de0>
    7a3d:	48 8b 45 d0          	mov    rax,QWORD PTR [rbp-0x30]
    7a41:	48 89 c7             	mov    rdi,rax
    7a44:	e8 93 0c 00 00       	call   86dc <__cxa_finalize@plt+0x5acc>
    7a49:	48 89 45 d0          	mov    QWORD PTR [rbp-0x30],rax
    7a4d:	eb a1                	jmp    79f0 <__cxa_finalize@plt+0x4de0>
    7a4f:	48 8b 55 c8          	mov    rdx,QWORD PTR [rbp-0x38]
    7a53:	48 8d 45 e0          	lea    rax,[rbp-0x20]
    7a57:	48 89 d6             	mov    rsi,rdx
    7a5a:	48 89 c7             	mov    rdi,rax
    7a5d:	e8 6e 00 00 00       	call   7ad0 <__cxa_finalize@plt+0x4ec0>
    7a62:	48 8b 45 e0          	mov    rax,QWORD PTR [rbp-0x20]
    7a66:	48 8b 5d e8          	mov    rbx,QWORD PTR [rbp-0x18]
    7a6a:	64 48 33 1c 25 28 00 	xor    rbx,QWORD PTR fs:0x28
    7a71:	00 00 
    7a73:	74 05                	je     7a7a <__cxa_finalize@plt+0x4e6a>
    7a75:	e8 86 af ff ff       	call   2a00 <__stack_chk_fail@plt>
    7a7a:	48 83 c4 38          	add    rsp,0x38
    7a7e:	5b                   	pop    rbx
    7a7f:	5d                   	pop    rbp
    7a80:	c3                   	ret    
    7a81:	55                   	push   rbp
    7a82:	48 89 e5             	mov    rbp,rsp
    7a85:	48 83 ec 20          	sub    rsp,0x20
    7a89:	48 89 7d e8          	mov    QWORD PTR [rbp-0x18],rdi
    7a8d:	64 48 8b 04 25 28 00 	mov    rax,QWORD PTR fs:0x28
    7a94:	00 00 
    7a96:	48 89 45 f8          	mov    QWORD PTR [rbp-0x8],rax
    7a9a:	31 c0                	xor    eax,eax
    7a9c:	48 8b 45 e8          	mov    rax,QWORD PTR [rbp-0x18]
    7aa0:	48 89 c7             	mov    rdi,rax
    7aa3:	e8 46 0c 00 00       	call   86ee <__cxa_finalize@plt+0x5ade>
    7aa8:	48 89 c2             	mov    rdx,rax
    7aab:	48 8d 45 f7          	lea    rax,[rbp-0x9]
    7aaf:	48 89 d6             	mov    rsi,rdx
    7ab2:	48 89 c7             	mov    rdi,rax
    7ab5:	e8 fe 0b 00 00       	call   86b8 <__cxa_finalize@plt+0x5aa8>
    7aba:	48 8b 4d f8          	mov    rcx,QWORD PTR [rbp-0x8]
    7abe:	64 48 33 0c 25 28 00 	xor    rcx,QWORD PTR fs:0x28
    7ac5:	00 00 
    7ac7:	74 05                	je     7ace <__cxa_finalize@plt+0x4ebe>
    7ac9:	e8 32 af ff ff       	call   2a00 <__stack_chk_fail@plt>
    7ace:	c9                   	leave  
    7acf:	c3                   	ret    
    7ad0:	55                   	push   rbp
    7ad1:	48 89 e5             	mov    rbp,rsp
    7ad4:	48 89 7d f8          	mov    QWORD PTR [rbp-0x8],rdi
    7ad8:	48 89 75 f0          	mov    QWORD PTR [rbp-0x10],rsi
    7adc:	48 8b 45 f8          	mov    rax,QWORD PTR [rbp-0x8]
    7ae0:	48 8b 55 f0          	mov    rdx,QWORD PTR [rbp-0x10]
    7ae4:	48 89 10             	mov    QWORD PTR [rax],rdx
    7ae7:	90                   	nop
    7ae8:	5d                   	pop    rbp
    7ae9:	c3                   	ret    
    7aea:	55                   	push   rbp
    7aeb:	48 89 e5             	mov    rbp,rsp
    7aee:	41 54                	push   r12
    7af0:	53                   	push   rbx
    7af1:	48 83 ec 30          	sub    rsp,0x30
    7af5:	48 89 7d d8          	mov    QWORD PTR [rbp-0x28],rdi
    7af9:	48 89 75 d0          	mov    QWORD PTR [rbp-0x30],rsi
    7afd:	48 89 55 c8          	mov    QWORD PTR [rbp-0x38],rdx
    7b01:	48 89 4d c0          	mov    QWORD PTR [rbp-0x40],rcx
    7b05:	48 8b 45 d8          	mov    rax,QWORD PTR [rbp-0x28]
    7b09:	48 89 c7             	mov    rdi,rax
    7b0c:	e8 c9 07 00 00       	call   82da <__cxa_finalize@plt+0x56ca>
    7b11:	48 89 45 e8          	mov    QWORD PTR [rbp-0x18],rax
    7b15:	48 8b 45 c0          	mov    rax,QWORD PTR [rbp-0x40]
    7b19:	48 89 c7             	mov    rdi,rax
    7b1c:	e8 99 e9 ff ff       	call   64ba <__cxa_finalize@plt+0x38aa>
    7b21:	49 89 c4             	mov    r12,rax
    7b24:	48 8b 45 c8          	mov    rax,QWORD PTR [rbp-0x38]
    7b28:	48 89 c7             	mov    rdi,rax
    7b2b:	e8 0c ee ff ff       	call   693c <__cxa_finalize@plt+0x3d2c>
    7b30:	48 89 c3             	mov    rbx,rax
    7b33:	48 8b 45 d0          	mov    rax,QWORD PTR [rbp-0x30]
    7b37:	48 89 c7             	mov    rdi,rax
    7b3a:	e8 5f e9 ff ff       	call   649e <__cxa_finalize@plt+0x388e>
    7b3f:	48 89 c2             	mov    rdx,rax
    7b42:	48 8b 75 e8          	mov    rsi,QWORD PTR [rbp-0x18]
    7b46:	48 8b 45 d8          	mov    rax,QWORD PTR [rbp-0x28]
    7b4a:	4d 89 e0             	mov    r8,r12
    7b4d:	48 89 d9             	mov    rcx,rbx
    7b50:	48 89 c7             	mov    rdi,rax
    7b53:	e8 b0 0b 00 00       	call   8708 <__cxa_finalize@plt+0x5af8>
    7b58:	48 8b 45 e8          	mov    rax,QWORD PTR [rbp-0x18]
    7b5c:	48 83 c4 30          	add    rsp,0x30
    7b60:	5b                   	pop    rbx
    7b61:	41 5c                	pop    r12
    7b63:	5d                   	pop    rbp
    7b64:	c3                   	ret    
    7b65:	90                   	nop
    7b66:	55                   	push   rbp
    7b67:	48 89 e5             	mov    rbp,rsp
    7b6a:	41 54                	push   r12
    7b6c:	53                   	push   rbx
    7b6d:	48 83 ec 30          	sub    rsp,0x30
    7b71:	48 89 7d d8          	mov    QWORD PTR [rbp-0x28],rdi
    7b75:	48 89 75 d0          	mov    QWORD PTR [rbp-0x30],rsi
    7b79:	48 89 55 c8          	mov    QWORD PTR [rbp-0x38],rdx
    7b7d:	48 89 4d c0          	mov    QWORD PTR [rbp-0x40],rcx
    7b81:	48 8b 45 d8          	mov    rax,QWORD PTR [rbp-0x28]
    7b85:	48 89 c7             	mov    rdi,rax
    7b88:	e8 27 02 00 00       	call   7db4 <__cxa_finalize@plt+0x51a4>
    7b8d:	48 89 45 e8          	mov    QWORD PTR [rbp-0x18],rax
    7b91:	48 8b 45 c0          	mov    rax,QWORD PTR [rbp-0x40]
    7b95:	48 89 c7             	mov    rdi,rax
    7b98:	e8 1d e9 ff ff       	call   64ba <__cxa_finalize@plt+0x38aa>
    7b9d:	49 89 c4             	mov    r12,rax
    7ba0:	48 8b 45 c8          	mov    rax,QWORD PTR [rbp-0x38]
    7ba4:	48 89 c7             	mov    rdi,rax
    7ba7:	e8 90 ed ff ff       	call   693c <__cxa_finalize@plt+0x3d2c>
    7bac:	48 89 c3             	mov    rbx,rax
    7baf:	48 8b 45 d0          	mov    rax,QWORD PTR [rbp-0x30]
    7bb3:	48 89 c7             	mov    rdi,rax
    7bb6:	e8 e3 e8 ff ff       	call   649e <__cxa_finalize@plt+0x388e>
    7bbb:	48 89 c2             	mov    rdx,rax
    7bbe:	48 8b 75 e8          	mov    rsi,QWORD PTR [rbp-0x18]
    7bc2:	48 8b 45 d8          	mov    rax,QWORD PTR [rbp-0x28]
    7bc6:	4d 89 e0             	mov    r8,r12
    7bc9:	48 89 d9             	mov    rcx,rbx
    7bcc:	48 89 c7             	mov    rdi,rax
    7bcf:	e8 0a 0c 00 00       	call   87de <__cxa_finalize@plt+0x5bce>
    7bd4:	48 8b 45 e8          	mov    rax,QWORD PTR [rbp-0x18]
    7bd8:	48 83 c4 30          	add    rsp,0x30
    7bdc:	5b                   	pop    rbx
    7bdd:	41 5c                	pop    r12
    7bdf:	5d                   	pop    rbp
    7be0:	c3                   	ret    
    7be1:	90                   	nop
    7be2:	55                   	push   rbp
    7be3:	48 89 e5             	mov    rbp,rsp
    7be6:	53                   	push   rbx
    7be7:	48 83 ec 18          	sub    rsp,0x18
    7beb:	48 89 7d e8          	mov    QWORD PTR [rbp-0x18],rdi
    7bef:	48 89 75 e0          	mov    QWORD PTR [rbp-0x20],rsi
    7bf3:	48 8b 45 e0          	mov    rax,QWORD PTR [rbp-0x20]
    7bf7:	48 89 c7             	mov    rdi,rax
    7bfa:	e8 1d f1 ff ff       	call   6d1c <__cxa_finalize@plt+0x410c>
    7bff:	48 89 c3             	mov    rbx,rax
    7c02:	48 8b 45 e8          	mov    rax,QWORD PTR [rbp-0x18]
    7c06:	48 89 c7             	mov    rdi,rax
    7c09:	e8 a6 0c 00 00       	call   88b4 <__cxa_finalize@plt+0x5ca4>
    7c0e:	48 89 de             	mov    rsi,rbx
    7c11:	48 89 c7             	mov    rdi,rax
    7c14:	e8 a9 0c 00 00       	call   88c2 <__cxa_finalize@plt+0x5cb2>
    7c19:	90                   	nop
    7c1a:	48 83 c4 18          	add    rsp,0x18
    7c1e:	5b                   	pop    rbx
    7c1f:	5d                   	pop    rbp
    7c20:	c3                   	ret    
    7c21:	90                   	nop
    7c22:	55                   	push   rbp
    7c23:	48 89 e5             	mov    rbp,rsp
    7c26:	48 83 ec 10          	sub    rsp,0x10
    7c2a:	48 89 7d f8          	mov    QWORD PTR [rbp-0x8],rdi
    7c2e:	48 89 75 f0          	mov    QWORD PTR [rbp-0x10],rsi
    7c32:	48 8b 45 f8          	mov    rax,QWORD PTR [rbp-0x8]
    7c36:	48 89 c7             	mov    rdi,rax
    7c39:	e8 76 0c 00 00       	call   88b4 <__cxa_finalize@plt+0x5ca4>
    7c3e:	48 89 c1             	mov    rcx,rax
    7c41:	48 8b 45 f0          	mov    rax,QWORD PTR [rbp-0x10]
    7c45:	ba 01 00 00 00       	mov    edx,0x1
    7c4a:	48 89 c6             	mov    rsi,rax
    7c4d:	48 89 cf             	mov    rdi,rcx
    7c50:	e8 93 0c 00 00       	call   88e8 <__cxa_finalize@plt+0x5cd8>
    7c55:	90                   	nop
    7c56:	c9                   	leave  
    7c57:	c3                   	ret    
    7c58:	55                   	push   rbp
    7c59:	48 89 e5             	mov    rbp,rsp
    7c5c:	53                   	push   rbx
    7c5d:	48 83 ec 18          	sub    rsp,0x18
    7c61:	48 89 7d e8          	mov    QWORD PTR [rbp-0x18],rdi
    7c65:	48 89 75 e0          	mov    QWORD PTR [rbp-0x20],rsi
    7c69:	48 8b 45 e0          	mov    rax,QWORD PTR [rbp-0x20]
    7c6d:	48 89 c7             	mov    rdi,rax
    7c70:	e8 a1 f7 ff ff       	call   7416 <__cxa_finalize@plt+0x4806>
    7c75:	48 89 c3             	mov    rbx,rax
    7c78:	48 8b 45 e8          	mov    rax,QWORD PTR [rbp-0x18]
    7c7c:	48 89 c7             	mov    rdi,rax
    7c7f:	e8 92 0c 00 00       	call   8916 <__cxa_finalize@plt+0x5d06>
    7c84:	48 89 de             	mov    rsi,rbx
    7c87:	48 89 c7             	mov    rdi,rax
    7c8a:	e8 95 0c 00 00       	call   8924 <__cxa_finalize@plt+0x5d14>
    7c8f:	90                   	nop
    7c90:	48 83 c4 18          	add    rsp,0x18
    7c94:	5b                   	pop    rbx
    7c95:	5d                   	pop    rbp
    7c96:	c3                   	ret    
    7c97:	90                   	nop
    7c98:	55                   	push   rbp
    7c99:	48 89 e5             	mov    rbp,rsp
    7c9c:	48 83 ec 10          	sub    rsp,0x10
    7ca0:	48 89 7d f8          	mov    QWORD PTR [rbp-0x8],rdi
    7ca4:	48 89 75 f0          	mov    QWORD PTR [rbp-0x10],rsi
    7ca8:	48 8b 45 f8          	mov    rax,QWORD PTR [rbp-0x8]
    7cac:	48 89 c7             	mov    rdi,rax
    7caf:	e8 62 0c 00 00       	call   8916 <__cxa_finalize@plt+0x5d06>
    7cb4:	48 89 c1             	mov    rcx,rax
    7cb7:	48 8b 45 f0          	mov    rax,QWORD PTR [rbp-0x10]
    7cbb:	ba 01 00 00 00       	mov    edx,0x1
    7cc0:	48 89 c6             	mov    rsi,rax
    7cc3:	48 89 cf             	mov    rdi,rcx
    7cc6:	e8 7f 0c 00 00       	call   894a <__cxa_finalize@plt+0x5d3a>
    7ccb:	90                   	nop
    7ccc:	c9                   	leave  
    7ccd:	c3                   	ret    
    7cce:	55                   	push   rbp
    7ccf:	48 89 e5             	mov    rbp,rsp
    7cd2:	48 89 7d f8          	mov    QWORD PTR [rbp-0x8],rdi
    7cd6:	48 8b 45 f8          	mov    rax,QWORD PTR [rbp-0x8]
    7cda:	48 83 c0 08          	add    rax,0x8
    7cde:	5d                   	pop    rbp
    7cdf:	c3                   	ret    
    7ce0:	55                   	push   rbp
    7ce1:	48 89 e5             	mov    rbp,rsp
    7ce4:	53                   	push   rbx
    7ce5:	48 83 ec 38          	sub    rsp,0x38
    7ce9:	48 89 7d d8          	mov    QWORD PTR [rbp-0x28],rdi
    7ced:	48 89 75 d0          	mov    QWORD PTR [rbp-0x30],rsi
    7cf1:	48 89 55 c8          	mov    QWORD PTR [rbp-0x38],rdx
    7cf5:	48 89 4d c0          	mov    QWORD PTR [rbp-0x40],rcx
    7cf9:	64 48 8b 04 25 28 00 	mov    rax,QWORD PTR fs:0x28
    7d00:	00 00 
    7d02:	48 89 45 e8          	mov    QWORD PTR [rbp-0x18],rax
    7d06:	31 c0                	xor    eax,eax
    7d08:	48 83 7d d0 00       	cmp    QWORD PTR [rbp-0x30],0x0
    7d0d:	74 58                	je     7d67 <__cxa_finalize@plt+0x5157>
    7d0f:	48 8b 5d d8          	mov    rbx,QWORD PTR [rbp-0x28]
    7d13:	48 8b 45 d0          	mov    rax,QWORD PTR [rbp-0x30]
    7d17:	48 89 c7             	mov    rdi,rax
    7d1a:	e8 06 f5 ff ff       	call   7225 <__cxa_finalize@plt+0x4615>
    7d1f:	48 89 c1             	mov    rcx,rax
    7d22:	48 8b 45 c0          	mov    rax,QWORD PTR [rbp-0x40]
    7d26:	48 89 c2             	mov    rdx,rax
    7d29:	48 89 ce             	mov    rsi,rcx
    7d2c:	48 89 df             	mov    rdi,rbx
    7d2f:	e8 b4 e6 ff ff       	call   63e8 <__cxa_finalize@plt+0x37d8>
    7d34:	83 f0 01             	xor    eax,0x1
    7d37:	84 c0                	test   al,al
    7d39:	74 1a                	je     7d55 <__cxa_finalize@plt+0x5145>
    7d3b:	48 8b 45 d0          	mov    rax,QWORD PTR [rbp-0x30]
    7d3f:	48 89 45 c8          	mov    QWORD PTR [rbp-0x38],rax
    7d43:	48 8b 45 d0          	mov    rax,QWORD PTR [rbp-0x30]
    7d47:	48 89 c7             	mov    rdi,rax
    7d4a:	e8 81 ee ff ff       	call   6bd0 <__cxa_finalize@plt+0x3fc0>
    7d4f:	48 89 45 d0          	mov    QWORD PTR [rbp-0x30],rax
    7d53:	eb b3                	jmp    7d08 <__cxa_finalize@plt+0x50f8>
    7d55:	48 8b 45 d0          	mov    rax,QWORD PTR [rbp-0x30]
    7d59:	48 89 c7             	mov    rdi,rax
    7d5c:	e8 5d ee ff ff       	call   6bbe <__cxa_finalize@plt+0x3fae>
    7d61:	48 89 45 d0          	mov    QWORD PTR [rbp-0x30],rax
    7d65:	eb a1                	jmp    7d08 <__cxa_finalize@plt+0x50f8>
    7d67:	48 8b 55 c8          	mov    rdx,QWORD PTR [rbp-0x38]
    7d6b:	48 8d 45 e0          	lea    rax,[rbp-0x20]
    7d6f:	48 89 d6             	mov    rsi,rdx
    7d72:	48 89 c7             	mov    rdi,rax
    7d75:	e8 e0 f5 ff ff       	call   735a <__cxa_finalize@plt+0x474a>
    7d7a:	48 8b 45 e0          	mov    rax,QWORD PTR [rbp-0x20]
    7d7e:	48 8b 5d e8          	mov    rbx,QWORD PTR [rbp-0x18]
    7d82:	64 48 33 1c 25 28 00 	xor    rbx,QWORD PTR fs:0x28
    7d89:	00 00 
    7d8b:	74 05                	je     7d92 <__cxa_finalize@plt+0x5182>
    7d8d:	e8 6e ac ff ff       	call   2a00 <__stack_chk_fail@plt>
    7d92:	48 83 c4 38          	add    rsp,0x38
    7d96:	5b                   	pop    rbx
    7d97:	5d                   	pop    rbp
    7d98:	c3                   	ret    
    7d99:	90                   	nop
    7d9a:	55                   	push   rbp
    7d9b:	48 89 e5             	mov    rbp,rsp
    7d9e:	48 83 ec 10          	sub    rsp,0x10
    7da2:	48 89 7d f8          	mov    QWORD PTR [rbp-0x8],rdi
    7da6:	48 8b 45 f8          	mov    rax,QWORD PTR [rbp-0x8]
    7daa:	48 89 c7             	mov    rdi,rax
    7dad:	e8 c6 0b 00 00       	call   8978 <__cxa_finalize@plt+0x5d68>
    7db2:	c9                   	leave  
    7db3:	c3                   	ret    
    7db4:	55                   	push   rbp
    7db5:	48 89 e5             	mov    rbp,rsp
    7db8:	48 83 ec 10          	sub    rsp,0x10
    7dbc:	48 89 7d f8          	mov    QWORD PTR [rbp-0x8],rdi
    7dc0:	48 8b 45 f8          	mov    rax,QWORD PTR [rbp-0x8]
    7dc4:	48 89 c7             	mov    rdi,rax
    7dc7:	e8 e8 0a 00 00       	call   88b4 <__cxa_finalize@plt+0x5ca4>
    7dcc:	be 01 00 00 00       	mov    esi,0x1
    7dd1:	48 89 c7             	mov    rdi,rax
    7dd4:	e8 ad 0b 00 00       	call   8986 <__cxa_finalize@plt+0x5d76>
    7dd9:	c9                   	leave  
    7dda:	c3                   	ret    
    7ddb:	90                   	nop
    7ddc:	55                   	push   rbp
    7ddd:	48 89 e5             	mov    rbp,rsp
    7de0:	41 56                	push   r14
    7de2:	41 55                	push   r13
    7de4:	41 54                	push   r12
    7de6:	53                   	push   rbx
    7de7:	48 83 ec 30          	sub    rsp,0x30
    7deb:	48 89 7d d8          	mov    QWORD PTR [rbp-0x28],rdi
    7def:	48 89 75 d0          	mov    QWORD PTR [rbp-0x30],rsi
    7df3:	48 89 55 c8          	mov    QWORD PTR [rbp-0x38],rdx
    7df7:	48 89 4d c0          	mov    QWORD PTR [rbp-0x40],rcx
    7dfb:	4c 89 45 b8          	mov    QWORD PTR [rbp-0x48],r8
    7dff:	48 8b 45 d0          	mov    rax,QWORD PTR [rbp-0x30]
    7e03:	48 89 c6             	mov    rsi,rax
    7e06:	bf 28 00 00 00       	mov    edi,0x28
    7e0b:	e8 f7 d9 ff ff       	call   5807 <__cxa_finalize@plt+0x2bf7>
    7e10:	48 85 c0             	test   rax,rax
    7e13:	48 8b 45 b8          	mov    rax,QWORD PTR [rbp-0x48]
    7e17:	48 89 c7             	mov    rdi,rax
    7e1a:	e8 9b e6 ff ff       	call   64ba <__cxa_finalize@plt+0x38aa>
    7e1f:	49 89 c6             	mov    r14,rax
    7e22:	48 8b 45 c0          	mov    rax,QWORD PTR [rbp-0x40]
    7e26:	48 89 c7             	mov    rdi,rax
    7e29:	e8 7e e6 ff ff       	call   64ac <__cxa_finalize@plt+0x389c>
    7e2e:	49 89 c5             	mov    r13,rax
    7e31:	48 8b 45 c8          	mov    rax,QWORD PTR [rbp-0x38]
    7e35:	48 89 c7             	mov    rdi,rax
    7e38:	e8 61 e6 ff ff       	call   649e <__cxa_finalize@plt+0x388e>
    7e3d:	49 89 c4             	mov    r12,rax
    7e40:	48 8b 45 d0          	mov    rax,QWORD PTR [rbp-0x30]
    7e44:	48 89 c7             	mov    rdi,rax
    7e47:	e8 d0 ee ff ff       	call   6d1c <__cxa_finalize@plt+0x410c>
    7e4c:	48 89 c3             	mov    rbx,rax
    7e4f:	48 8b 45 d8          	mov    rax,QWORD PTR [rbp-0x28]
    7e53:	48 89 c7             	mov    rdi,rax
    7e56:	e8 59 0a 00 00       	call   88b4 <__cxa_finalize@plt+0x5ca4>
    7e5b:	4d 89 f0             	mov    r8,r14
    7e5e:	4c 89 e9             	mov    rcx,r13
    7e61:	4c 89 e2             	mov    rdx,r12
    7e64:	48 89 de             	mov    rsi,rbx
    7e67:	48 89 c7             	mov    rdi,rax
    7e6a:	e8 41 0b 00 00       	call   89b0 <__cxa_finalize@plt+0x5da0>
    7e6f:	eb 33                	jmp    7ea4 <__cxa_finalize@plt+0x5294>
    7e71:	48 89 c7             	mov    rdi,rax
    7e74:	e8 d7 a9 ff ff       	call   2850 <__cxa_begin_catch@plt>
    7e79:	48 8b 55 d0          	mov    rdx,QWORD PTR [rbp-0x30]
    7e7d:	48 8b 45 d8          	mov    rax,QWORD PTR [rbp-0x28]
    7e81:	48 89 d6             	mov    rsi,rdx
    7e84:	48 89 c7             	mov    rdi,rax
    7e87:	e8 96 fd ff ff       	call   7c22 <__cxa_finalize@plt+0x5012>
    7e8c:	e8 2f ac ff ff       	call   2ac0 <__cxa_rethrow@plt>
    7e91:	48 89 c3             	mov    rbx,rax
    7e94:	e8 97 ac ff ff       	call   2b30 <__cxa_end_catch@plt>
    7e99:	48 89 d8             	mov    rax,rbx
    7e9c:	48 89 c7             	mov    rdi,rax
    7e9f:	e8 ec ac ff ff       	call   2b90 <_Unwind_Resume@plt>
    7ea4:	48 83 c4 30          	add    rsp,0x30
    7ea8:	5b                   	pop    rbx
    7ea9:	41 5c                	pop    r12
    7eab:	41 5d                	pop    r13
    7ead:	41 5e                	pop    r14
    7eaf:	5d                   	pop    rbp
    7eb0:	c3                   	ret    
    7eb1:	90                   	nop
    7eb2:	55                   	push   rbp
    7eb3:	48 89 e5             	mov    rbp,rsp
    7eb6:	48 83 ec 20          	sub    rsp,0x20
    7eba:	48 89 7d e8          	mov    QWORD PTR [rbp-0x18],rdi
    7ebe:	64 48 8b 04 25 28 00 	mov    rax,QWORD PTR fs:0x28
    7ec5:	00 00 
    7ec7:	48 89 45 f8          	mov    QWORD PTR [rbp-0x8],rax
    7ecb:	31 c0                	xor    eax,eax
    7ecd:	48 8b 45 e8          	mov    rax,QWORD PTR [rbp-0x18]
    7ed1:	48 8b 10             	mov    rdx,QWORD PTR [rax]
    7ed4:	48 8d 45 f0          	lea    rax,[rbp-0x10]
    7ed8:	48 89 d6             	mov    rsi,rdx
    7edb:	48 89 c7             	mov    rdi,rax
    7ede:	e8 77 f4 ff ff       	call   735a <__cxa_finalize@plt+0x474a>
    7ee3:	48 8b 45 f0          	mov    rax,QWORD PTR [rbp-0x10]
    7ee7:	48 8b 4d f8          	mov    rcx,QWORD PTR [rbp-0x8]
    7eeb:	64 48 33 0c 25 28 00 	xor    rcx,QWORD PTR fs:0x28
    7ef2:	00 00 
    7ef4:	74 05                	je     7efb <__cxa_finalize@plt+0x52eb>
    7ef6:	e8 05 ab ff ff       	call   2a00 <__stack_chk_fail@plt>
    7efb:	c9                   	leave  
    7efc:	c3                   	ret    
    7efd:	90                   	nop
    7efe:	55                   	push   rbp
    7eff:	48 89 e5             	mov    rbp,rsp
    7f02:	48 89 7d f8          	mov    QWORD PTR [rbp-0x8],rdi
    7f06:	48 8b 45 f8          	mov    rax,QWORD PTR [rbp-0x8]
    7f0a:	48 8b 40 28          	mov    rax,QWORD PTR [rax+0x28]
    7f0e:	5d                   	pop    rbp
    7f0f:	c3                   	ret    
    7f10:	55                   	push   rbp
    7f11:	48 89 e5             	mov    rbp,rsp
    7f14:	48 89 7d f8          	mov    QWORD PTR [rbp-0x8],rdi
    7f18:	48 8b 45 f8          	mov    rax,QWORD PTR [rbp-0x8]
    7f1c:	48 83 c0 20          	add    rax,0x20
    7f20:	5d                   	pop    rbp
    7f21:	c3                   	ret    
    7f22:	55                   	push   rbp
    7f23:	48 89 e5             	mov    rbp,rsp
    7f26:	48 83 ec 20          	sub    rsp,0x20
    7f2a:	48 89 7d e8          	mov    QWORD PTR [rbp-0x18],rdi
    7f2e:	64 48 8b 04 25 28 00 	mov    rax,QWORD PTR fs:0x28
    7f35:	00 00 
    7f37:	48 89 45 f8          	mov    QWORD PTR [rbp-0x8],rax
    7f3b:	31 c0                	xor    eax,eax
    7f3d:	48 8b 45 e8          	mov    rax,QWORD PTR [rbp-0x18]
    7f41:	48 89 c7             	mov    rdi,rax
    7f44:	e8 d3 0a 00 00       	call   8a1c <__cxa_finalize@plt+0x5e0c>
    7f49:	48 89 c2             	mov    rdx,rax
    7f4c:	48 8d 45 f7          	lea    rax,[rbp-0x9]
    7f50:	48 89 d6             	mov    rsi,rdx
    7f53:	48 89 c7             	mov    rdi,rax
    7f56:	e8 87 02 00 00       	call   81e2 <__cxa_finalize@plt+0x55d2>
    7f5b:	48 8b 4d f8          	mov    rcx,QWORD PTR [rbp-0x8]
    7f5f:	64 48 33 0c 25 28 00 	xor    rcx,QWORD PTR fs:0x28
    7f66:	00 00 
    7f68:	74 05                	je     7f6f <__cxa_finalize@plt+0x535f>
    7f6a:	e8 91 aa ff ff       	call   2a00 <__stack_chk_fail@plt>
    7f6f:	c9                   	leave  
    7f70:	c3                   	ret    
    7f71:	90                   	nop
    7f72:	55                   	push   rbp
    7f73:	48 89 e5             	mov    rbp,rsp
    7f76:	48 83 ec 20          	sub    rsp,0x20
    7f7a:	48 89 7d f8          	mov    QWORD PTR [rbp-0x8],rdi
    7f7e:	48 89 75 f0          	mov    QWORD PTR [rbp-0x10],rsi
    7f82:	48 89 55 e8          	mov    QWORD PTR [rbp-0x18],rdx
    7f86:	48 8b 45 f0          	mov    rax,QWORD PTR [rbp-0x10]
    7f8a:	48 89 c7             	mov    rdi,rax
    7f8d:	e8 24 00 00 00       	call   7fb6 <__cxa_finalize@plt+0x53a6>
    7f92:	48 8b 10             	mov    rdx,QWORD PTR [rax]
    7f95:	48 8b 45 f8          	mov    rax,QWORD PTR [rbp-0x8]
    7f99:	48 89 10             	mov    QWORD PTR [rax],rdx
    7f9c:	48 8b 45 e8          	mov    rax,QWORD PTR [rbp-0x18]
    7fa0:	48 89 c7             	mov    rdi,rax
    7fa3:	e8 4a ee ff ff       	call   6df2 <__cxa_finalize@plt+0x41e2>
    7fa8:	48 8b 10             	mov    rdx,QWORD PTR [rax]
    7fab:	48 8b 45 f8          	mov    rax,QWORD PTR [rbp-0x8]
    7faf:	48 89 50 08          	mov    QWORD PTR [rax+0x8],rdx
    7fb3:	90                   	nop
    7fb4:	c9                   	leave  
    7fb5:	c3                   	ret    
    7fb6:	55                   	push   rbp
    7fb7:	48 89 e5             	mov    rbp,rsp
    7fba:	48 89 7d f8          	mov    QWORD PTR [rbp-0x8],rdi
    7fbe:	48 8b 45 f8          	mov    rax,QWORD PTR [rbp-0x8]
    7fc2:	5d                   	pop    rbp
    7fc3:	c3                   	ret    
    7fc4:	55                   	push   rbp
    7fc5:	48 89 e5             	mov    rbp,rsp
    7fc8:	53                   	push   rbx
    7fc9:	48 83 ec 68          	sub    rsp,0x68
    7fcd:	48 89 7d 98          	mov    QWORD PTR [rbp-0x68],rdi
    7fd1:	48 89 75 90          	mov    QWORD PTR [rbp-0x70],rsi
    7fd5:	64 48 8b 04 25 28 00 	mov    rax,QWORD PTR fs:0x28
    7fdc:	00 00 
    7fde:	48 89 45 e8          	mov    QWORD PTR [rbp-0x18],rax
    7fe2:	31 c0                	xor    eax,eax
    7fe4:	48 8b 45 98          	mov    rax,QWORD PTR [rbp-0x68]
    7fe8:	48 89 c7             	mov    rdi,rax
    7feb:	e8 b4 e2 ff ff       	call   62a4 <__cxa_finalize@plt+0x3694>
    7ff0:	48 89 45 b0          	mov    QWORD PTR [rbp-0x50],rax
    7ff4:	48 8b 45 98          	mov    rax,QWORD PTR [rbp-0x68]
    7ff8:	48 89 c7             	mov    rdi,rax
    7ffb:	e8 ce fc ff ff       	call   7cce <__cxa_finalize@plt+0x50be>
    8000:	48 89 45 b8          	mov    QWORD PTR [rbp-0x48],rax
    8004:	c6 45 af 01          	mov    BYTE PTR [rbp-0x51],0x1
    8008:	48 8b 45 b0          	mov    rax,QWORD PTR [rbp-0x50]
    800c:	48 85 c0             	test   rax,rax
    800f:	74 53                	je     8064 <__cxa_finalize@plt+0x5454>
    8011:	48 8b 45 b0          	mov    rax,QWORD PTR [rbp-0x50]
    8015:	48 89 45 b8          	mov    QWORD PTR [rbp-0x48],rax
    8019:	48 8b 5d 98          	mov    rbx,QWORD PTR [rbp-0x68]
    801d:	48 8b 45 b0          	mov    rax,QWORD PTR [rbp-0x50]
    8021:	48 89 c7             	mov    rdi,rax
    8024:	e8 fc f1 ff ff       	call   7225 <__cxa_finalize@plt+0x4615>
    8029:	48 89 c2             	mov    rdx,rax
    802c:	48 8b 45 90          	mov    rax,QWORD PTR [rbp-0x70]
    8030:	48 89 c6             	mov    rsi,rax
    8033:	48 89 df             	mov    rdi,rbx
    8036:	e8 ad e3 ff ff       	call   63e8 <__cxa_finalize@plt+0x37d8>
    803b:	88 45 af             	mov    BYTE PTR [rbp-0x51],al
    803e:	80 7d af 00          	cmp    BYTE PTR [rbp-0x51],0x0
    8042:	74 0e                	je     8052 <__cxa_finalize@plt+0x5442>
    8044:	48 8b 45 b0          	mov    rax,QWORD PTR [rbp-0x50]
    8048:	48 89 c7             	mov    rdi,rax
    804b:	e8 80 eb ff ff       	call   6bd0 <__cxa_finalize@plt+0x3fc0>
    8050:	eb 0c                	jmp    805e <__cxa_finalize@plt+0x544e>
    8052:	48 8b 45 b0          	mov    rax,QWORD PTR [rbp-0x50]
    8056:	48 89 c7             	mov    rdi,rax
    8059:	e8 60 eb ff ff       	call   6bbe <__cxa_finalize@plt+0x3fae>
    805e:	48 89 45 b0          	mov    QWORD PTR [rbp-0x50],rax
    8062:	eb a4                	jmp    8008 <__cxa_finalize@plt+0x53f8>
    8064:	48 8b 55 b8          	mov    rdx,QWORD PTR [rbp-0x48]
    8068:	48 8d 45 c0          	lea    rax,[rbp-0x40]
    806c:	48 89 d6             	mov    rsi,rdx
    806f:	48 89 c7             	mov    rdi,rax
    8072:	e8 e3 f2 ff ff       	call   735a <__cxa_finalize@plt+0x474a>
    8077:	80 7d af 00          	cmp    BYTE PTR [rbp-0x51],0x0
    807b:	74 54                	je     80d1 <__cxa_finalize@plt+0x54c1>
    807d:	48 8b 45 98          	mov    rax,QWORD PTR [rbp-0x68]
    8081:	48 89 c7             	mov    rdi,rax
    8084:	e8 ad 09 00 00       	call   8a36 <__cxa_finalize@plt+0x5e26>
    8089:	48 89 45 d0          	mov    QWORD PTR [rbp-0x30],rax
    808d:	48 8d 55 d0          	lea    rdx,[rbp-0x30]
    8091:	48 8d 45 c0          	lea    rax,[rbp-0x40]
    8095:	48 89 d6             	mov    rsi,rdx
    8098:	48 89 c7             	mov    rdi,rax
    809b:	e8 e6 e2 ff ff       	call   6386 <__cxa_finalize@plt+0x3776>
    80a0:	84 c0                	test   al,al
    80a2:	74 21                	je     80c5 <__cxa_finalize@plt+0x54b5>
    80a4:	48 8d 55 b8          	lea    rdx,[rbp-0x48]
    80a8:	48 8d 4d b0          	lea    rcx,[rbp-0x50]
    80ac:	48 8d 45 d0          	lea    rax,[rbp-0x30]
    80b0:	48 89 ce             	mov    rsi,rcx
    80b3:	48 89 c7             	mov    rdi,rax
    80b6:	e8 b7 fe ff ff       	call   7f72 <__cxa_finalize@plt+0x5362>
    80bb:	48 8b 45 d0          	mov    rax,QWORD PTR [rbp-0x30]
    80bf:	48 8b 55 d8          	mov    rdx,QWORD PTR [rbp-0x28]
    80c3:	eb 7d                	jmp    8142 <__cxa_finalize@plt+0x5532>
    80c5:	48 8d 45 c0          	lea    rax,[rbp-0x40]
    80c9:	48 89 c7             	mov    rdi,rax
    80cc:	e8 9f 00 00 00       	call   8170 <__cxa_finalize@plt+0x5560>
    80d1:	48 8b 5d 98          	mov    rbx,QWORD PTR [rbp-0x68]
    80d5:	48 8b 45 c0          	mov    rax,QWORD PTR [rbp-0x40]
    80d9:	48 89 c7             	mov    rdi,rax
    80dc:	e8 41 fe ff ff       	call   7f22 <__cxa_finalize@plt+0x5312>
    80e1:	48 89 c1             	mov    rcx,rax
    80e4:	48 8b 45 90          	mov    rax,QWORD PTR [rbp-0x70]
    80e8:	48 89 c2             	mov    rdx,rax
    80eb:	48 89 ce             	mov    rsi,rcx
    80ee:	48 89 df             	mov    rdi,rbx
    80f1:	e8 f2 e2 ff ff       	call   63e8 <__cxa_finalize@plt+0x37d8>
    80f6:	84 c0                	test   al,al
    80f8:	74 21                	je     811b <__cxa_finalize@plt+0x550b>
    80fa:	48 8d 55 b8          	lea    rdx,[rbp-0x48]
    80fe:	48 8d 4d b0          	lea    rcx,[rbp-0x50]
    8102:	48 8d 45 d0          	lea    rax,[rbp-0x30]
    8106:	48 89 ce             	mov    rsi,rcx
    8109:	48 89 c7             	mov    rdi,rax
    810c:	e8 61 fe ff ff       	call   7f72 <__cxa_finalize@plt+0x5362>
    8111:	48 8b 45 d0          	mov    rax,QWORD PTR [rbp-0x30]
    8115:	48 8b 55 d8          	mov    rdx,QWORD PTR [rbp-0x28]
    8119:	eb 27                	jmp    8142 <__cxa_finalize@plt+0x5532>
    811b:	48 c7 45 c8 00 00 00 	mov    QWORD PTR [rbp-0x38],0x0
    8122:	00 
    8123:	48 8d 55 c8          	lea    rdx,[rbp-0x38]
    8127:	48 8d 4d c0          	lea    rcx,[rbp-0x40]
    812b:	48 8d 45 d0          	lea    rax,[rbp-0x30]
    812f:	48 89 ce             	mov    rsi,rcx
    8132:	48 89 c7             	mov    rdi,rax
    8135:	e8 0a ed ff ff       	call   6e44 <__cxa_finalize@plt+0x4234>
    813a:	48 8b 45 d0          	mov    rax,QWORD PTR [rbp-0x30]
    813e:	48 8b 55 d8          	mov    rdx,QWORD PTR [rbp-0x28]
    8142:	48 8b 5d e8          	mov    rbx,QWORD PTR [rbp-0x18]
    8146:	64 48 33 1c 25 28 00 	xor    rbx,QWORD PTR fs:0x28
    814d:	00 00 
    814f:	74 05                	je     8156 <__cxa_finalize@plt+0x5546>
    8151:	e8 aa a8 ff ff       	call   2a00 <__stack_chk_fail@plt>
    8156:	48 83 c4 68          	add    rsp,0x68
    815a:	5b                   	pop    rbx
    815b:	5d                   	pop    rbp
    815c:	c3                   	ret    
    815d:	90                   	nop
    815e:	55                   	push   rbp
    815f:	48 89 e5             	mov    rbp,rsp
    8162:	48 89 7d f8          	mov    QWORD PTR [rbp-0x8],rdi
    8166:	48 8b 45 f8          	mov    rax,QWORD PTR [rbp-0x8]
    816a:	48 83 c0 18          	add    rax,0x18
    816e:	5d                   	pop    rbp
    816f:	c3                   	ret    
    8170:	55                   	push   rbp
    8171:	48 89 e5             	mov    rbp,rsp
    8174:	48 83 ec 10          	sub    rsp,0x10
    8178:	48 89 7d f8          	mov    QWORD PTR [rbp-0x8],rdi
    817c:	48 8b 45 f8          	mov    rax,QWORD PTR [rbp-0x8]
    8180:	48 8b 00             	mov    rax,QWORD PTR [rax]
    8183:	48 89 c7             	mov    rdi,rax
    8186:	e8 45 a8 ff ff       	call   29d0 <_ZSt18_Rb_tree_decrementPSt18_Rb_tree_node_base@plt>
    818b:	48 89 c2             	mov    rdx,rax
    818e:	48 8b 45 f8          	mov    rax,QWORD PTR [rbp-0x8]
    8192:	48 89 10             	mov    QWORD PTR [rax],rdx
    8195:	48 8b 45 f8          	mov    rax,QWORD PTR [rbp-0x8]
    8199:	c9                   	leave  
    819a:	c3                   	ret    
    819b:	90                   	nop
    819c:	55                   	push   rbp
    819d:	48 89 e5             	mov    rbp,rsp
    81a0:	48 83 ec 10          	sub    rsp,0x10
    81a4:	48 89 7d f8          	mov    QWORD PTR [rbp-0x8],rdi
    81a8:	48 8b 45 f8          	mov    rax,QWORD PTR [rbp-0x8]
    81ac:	48 8b 00             	mov    rax,QWORD PTR [rax]
    81af:	48 89 c7             	mov    rdi,rax
    81b2:	e8 29 a7 ff ff       	call   28e0 <_ZSt18_Rb_tree_incrementPSt18_Rb_tree_node_base@plt>
    81b7:	48 89 c2             	mov    rdx,rax
    81ba:	48 8b 45 f8          	mov    rax,QWORD PTR [rbp-0x8]
    81be:	48 89 10             	mov    QWORD PTR [rax],rdx
    81c1:	48 8b 45 f8          	mov    rax,QWORD PTR [rbp-0x8]
    81c5:	c9                   	leave  
    81c6:	c3                   	ret    
    81c7:	55                   	push   rbp
    81c8:	48 89 e5             	mov    rbp,rsp
    81cb:	48 83 ec 10          	sub    rsp,0x10
    81cf:	48 89 7d f8          	mov    QWORD PTR [rbp-0x8],rdi
    81d3:	48 8b 45 f8          	mov    rax,QWORD PTR [rbp-0x8]
    81d7:	48 89 c7             	mov    rdi,rax
    81da:	e8 a3 08 00 00       	call   8a82 <__cxa_finalize@plt+0x5e72>
    81df:	c9                   	leave  
    81e0:	c3                   	ret    
    81e1:	90                   	nop
    81e2:	55                   	push   rbp
    81e3:	48 89 e5             	mov    rbp,rsp
    81e6:	48 89 7d f8          	mov    QWORD PTR [rbp-0x8],rdi
    81ea:	48 89 75 f0          	mov    QWORD PTR [rbp-0x10],rsi
    81ee:	48 8b 45 f0          	mov    rax,QWORD PTR [rbp-0x10]
    81f2:	5d                   	pop    rbp
    81f3:	c3                   	ret    
    81f4:	55                   	push   rbp
    81f5:	48 89 e5             	mov    rbp,rsp
    81f8:	48 89 7d f8          	mov    QWORD PTR [rbp-0x8],rdi
    81fc:	48 8b 45 f8          	mov    rax,QWORD PTR [rbp-0x8]
    8200:	48 83 c0 08          	add    rax,0x8
    8204:	5d                   	pop    rbp
    8205:	c3                   	ret    
    8206:	55                   	push   rbp
    8207:	48 89 e5             	mov    rbp,rsp
    820a:	53                   	push   rbx
    820b:	48 83 ec 38          	sub    rsp,0x38
    820f:	48 89 7d d8          	mov    QWORD PTR [rbp-0x28],rdi
    8213:	48 89 75 d0          	mov    QWORD PTR [rbp-0x30],rsi
    8217:	48 89 55 c8          	mov    QWORD PTR [rbp-0x38],rdx
    821b:	48 89 4d c0          	mov    QWORD PTR [rbp-0x40],rcx
    821f:	64 48 8b 04 25 28 00 	mov    rax,QWORD PTR fs:0x28
    8226:	00 00 
    8228:	48 89 45 e8          	mov    QWORD PTR [rbp-0x18],rax
    822c:	31 c0                	xor    eax,eax
    822e:	48 83 7d d0 00       	cmp    QWORD PTR [rbp-0x30],0x0
    8233:	74 58                	je     828d <__cxa_finalize@plt+0x567d>
    8235:	48 8b 5d d8          	mov    rbx,QWORD PTR [rbp-0x28]
    8239:	48 8b 45 d0          	mov    rax,QWORD PTR [rbp-0x30]
    823d:	48 89 c7             	mov    rdi,rax
    8240:	e8 10 f6 ff ff       	call   7855 <__cxa_finalize@plt+0x4c45>
    8245:	48 89 c1             	mov    rcx,rax
    8248:	48 8b 45 c0          	mov    rax,QWORD PTR [rbp-0x40]
    824c:	48 89 c2             	mov    rdx,rax
    824f:	48 89 ce             	mov    rsi,rcx
    8252:	48 89 df             	mov    rdi,rbx
    8255:	e8 8e e1 ff ff       	call   63e8 <__cxa_finalize@plt+0x37d8>
    825a:	83 f0 01             	xor    eax,0x1
    825d:	84 c0                	test   al,al
    825f:	74 1a                	je     827b <__cxa_finalize@plt+0x566b>
    8261:	48 8b 45 d0          	mov    rax,QWORD PTR [rbp-0x30]
    8265:	48 89 45 c8          	mov    QWORD PTR [rbp-0x38],rax
    8269:	48 8b 45 d0          	mov    rax,QWORD PTR [rbp-0x30]
    826d:	48 89 c7             	mov    rdi,rax
    8270:	e8 b8 e9 ff ff       	call   6c2d <__cxa_finalize@plt+0x401d>
    8275:	48 89 45 d0          	mov    QWORD PTR [rbp-0x30],rax
    8279:	eb b3                	jmp    822e <__cxa_finalize@plt+0x561e>
    827b:	48 8b 45 d0          	mov    rax,QWORD PTR [rbp-0x30]
    827f:	48 89 c7             	mov    rdi,rax
    8282:	e8 94 e9 ff ff       	call   6c1b <__cxa_finalize@plt+0x400b>
    8287:	48 89 45 d0          	mov    QWORD PTR [rbp-0x30],rax
    828b:	eb a1                	jmp    822e <__cxa_finalize@plt+0x561e>
    828d:	48 8b 55 c8          	mov    rdx,QWORD PTR [rbp-0x38]
    8291:	48 8d 45 e0          	lea    rax,[rbp-0x20]
    8295:	48 89 d6             	mov    rsi,rdx
    8298:	48 89 c7             	mov    rdi,rax
    829b:	e8 ea f6 ff ff       	call   798a <__cxa_finalize@plt+0x4d7a>
    82a0:	48 8b 45 e0          	mov    rax,QWORD PTR [rbp-0x20]
    82a4:	48 8b 5d e8          	mov    rbx,QWORD PTR [rbp-0x18]
    82a8:	64 48 33 1c 25 28 00 	xor    rbx,QWORD PTR fs:0x28
    82af:	00 00 
    82b1:	74 05                	je     82b8 <__cxa_finalize@plt+0x56a8>
    82b3:	e8 48 a7 ff ff       	call   2a00 <__stack_chk_fail@plt>
    82b8:	48 83 c4 38          	add    rsp,0x38
    82bc:	5b                   	pop    rbx
    82bd:	5d                   	pop    rbp
    82be:	c3                   	ret    
    82bf:	90                   	nop
    82c0:	55                   	push   rbp
    82c1:	48 89 e5             	mov    rbp,rsp
    82c4:	48 83 ec 10          	sub    rsp,0x10
    82c8:	48 89 7d f8          	mov    QWORD PTR [rbp-0x8],rdi
    82cc:	48 8b 45 f8          	mov    rax,QWORD PTR [rbp-0x8]
    82d0:	48 89 c7             	mov    rdi,rax
    82d3:	e8 c8 07 00 00       	call   8aa0 <__cxa_finalize@plt+0x5e90>
    82d8:	c9                   	leave  
    82d9:	c3                   	ret    
    82da:	55                   	push   rbp
    82db:	48 89 e5             	mov    rbp,rsp
    82de:	48 83 ec 10          	sub    rsp,0x10
    82e2:	48 89 7d f8          	mov    QWORD PTR [rbp-0x8],rdi
    82e6:	48 8b 45 f8          	mov    rax,QWORD PTR [rbp-0x8]
    82ea:	48 89 c7             	mov    rdi,rax
    82ed:	e8 24 06 00 00       	call   8916 <__cxa_finalize@plt+0x5d06>
    82f2:	be 01 00 00 00       	mov    esi,0x1
    82f7:	48 89 c7             	mov    rdi,rax
    82fa:	e8 af 07 00 00       	call   8aae <__cxa_finalize@plt+0x5e9e>
    82ff:	c9                   	leave  
    8300:	c3                   	ret    
    8301:	90                   	nop
    8302:	55                   	push   rbp
    8303:	48 89 e5             	mov    rbp,rsp
    8306:	41 56                	push   r14
    8308:	41 55                	push   r13
    830a:	41 54                	push   r12
    830c:	53                   	push   rbx
    830d:	48 83 ec 30          	sub    rsp,0x30
    8311:	48 89 7d d8          	mov    QWORD PTR [rbp-0x28],rdi
    8315:	48 89 75 d0          	mov    QWORD PTR [rbp-0x30],rsi
    8319:	48 89 55 c8          	mov    QWORD PTR [rbp-0x38],rdx
    831d:	48 89 4d c0          	mov    QWORD PTR [rbp-0x40],rcx
    8321:	4c 89 45 b8          	mov    QWORD PTR [rbp-0x48],r8
    8325:	48 8b 45 d0          	mov    rax,QWORD PTR [rbp-0x30]
    8329:	48 89 c6             	mov    rsi,rax
    832c:	bf 28 00 00 00       	mov    edi,0x28
    8331:	e8 d1 d4 ff ff       	call   5807 <__cxa_finalize@plt+0x2bf7>
    8336:	48 85 c0             	test   rax,rax
    8339:	48 8b 45 b8          	mov    rax,QWORD PTR [rbp-0x48]
    833d:	48 89 c7             	mov    rdi,rax
    8340:	e8 75 e1 ff ff       	call   64ba <__cxa_finalize@plt+0x38aa>
    8345:	49 89 c6             	mov    r14,rax
    8348:	48 8b 45 c0          	mov    rax,QWORD PTR [rbp-0x40]
    834c:	48 89 c7             	mov    rdi,rax
    834f:	e8 58 e1 ff ff       	call   64ac <__cxa_finalize@plt+0x389c>
    8354:	49 89 c5             	mov    r13,rax
    8357:	48 8b 45 c8          	mov    rax,QWORD PTR [rbp-0x38]
    835b:	48 89 c7             	mov    rdi,rax
    835e:	e8 3b e1 ff ff       	call   649e <__cxa_finalize@plt+0x388e>
    8363:	49 89 c4             	mov    r12,rax
    8366:	48 8b 45 d0          	mov    rax,QWORD PTR [rbp-0x30]
    836a:	48 89 c7             	mov    rdi,rax
    836d:	e8 a4 f0 ff ff       	call   7416 <__cxa_finalize@plt+0x4806>
    8372:	48 89 c3             	mov    rbx,rax
    8375:	48 8b 45 d8          	mov    rax,QWORD PTR [rbp-0x28]
    8379:	48 89 c7             	mov    rdi,rax
    837c:	e8 95 05 00 00       	call   8916 <__cxa_finalize@plt+0x5d06>
    8381:	4d 89 f0             	mov    r8,r14
    8384:	4c 89 e9             	mov    rcx,r13
    8387:	4c 89 e2             	mov    rdx,r12
    838a:	48 89 de             	mov    rsi,rbx
    838d:	48 89 c7             	mov    rdi,rax
    8390:	e8 43 07 00 00       	call   8ad8 <__cxa_finalize@plt+0x5ec8>
    8395:	eb 33                	jmp    83ca <__cxa_finalize@plt+0x57ba>
    8397:	48 89 c7             	mov    rdi,rax
    839a:	e8 b1 a4 ff ff       	call   2850 <__cxa_begin_catch@plt>
    839f:	48 8b 55 d0          	mov    rdx,QWORD PTR [rbp-0x30]
    83a3:	48 8b 45 d8          	mov    rax,QWORD PTR [rbp-0x28]
    83a7:	48 89 d6             	mov    rsi,rdx
    83aa:	48 89 c7             	mov    rdi,rax
    83ad:	e8 e6 f8 ff ff       	call   7c98 <__cxa_finalize@plt+0x5088>
    83b2:	e8 09 a7 ff ff       	call   2ac0 <__cxa_rethrow@plt>
    83b7:	48 89 c3             	mov    rbx,rax
    83ba:	e8 71 a7 ff ff       	call   2b30 <__cxa_end_catch@plt>
    83bf:	48 89 d8             	mov    rax,rbx
    83c2:	48 89 c7             	mov    rdi,rax
    83c5:	e8 c6 a7 ff ff       	call   2b90 <_Unwind_Resume@plt>
    83ca:	48 83 c4 30          	add    rsp,0x30
    83ce:	5b                   	pop    rbx
    83cf:	41 5c                	pop    r12
    83d1:	41 5d                	pop    r13
    83d3:	41 5e                	pop    r14
    83d5:	5d                   	pop    rbp
    83d6:	c3                   	ret    
    83d7:	90                   	nop
    83d8:	55                   	push   rbp
    83d9:	48 89 e5             	mov    rbp,rsp
    83dc:	48 83 ec 20          	sub    rsp,0x20
    83e0:	48 89 7d e8          	mov    QWORD PTR [rbp-0x18],rdi
    83e4:	64 48 8b 04 25 28 00 	mov    rax,QWORD PTR fs:0x28
    83eb:	00 00 
    83ed:	48 89 45 f8          	mov    QWORD PTR [rbp-0x8],rax
    83f1:	31 c0                	xor    eax,eax
    83f3:	48 8b 45 e8          	mov    rax,QWORD PTR [rbp-0x18]
    83f7:	48 8b 10             	mov    rdx,QWORD PTR [rax]
    83fa:	48 8d 45 f0          	lea    rax,[rbp-0x10]
    83fe:	48 89 d6             	mov    rsi,rdx
    8401:	48 89 c7             	mov    rdi,rax
    8404:	e8 81 f5 ff ff       	call   798a <__cxa_finalize@plt+0x4d7a>
    8409:	48 8b 45 f0          	mov    rax,QWORD PTR [rbp-0x10]
    840d:	48 8b 4d f8          	mov    rcx,QWORD PTR [rbp-0x8]
    8411:	64 48 33 0c 25 28 00 	xor    rcx,QWORD PTR fs:0x28
    8418:	00 00 
    841a:	74 05                	je     8421 <__cxa_finalize@plt+0x5811>
    841c:	e8 df a5 ff ff       	call   2a00 <__stack_chk_fail@plt>
    8421:	c9                   	leave  
    8422:	c3                   	ret    
    8423:	90                   	nop
    8424:	55                   	push   rbp
    8425:	48 89 e5             	mov    rbp,rsp
    8428:	48 89 7d f8          	mov    QWORD PTR [rbp-0x8],rdi
    842c:	48 8b 45 f8          	mov    rax,QWORD PTR [rbp-0x8]
    8430:	48 8b 40 28          	mov    rax,QWORD PTR [rax+0x28]
    8434:	5d                   	pop    rbp
    8435:	c3                   	ret    
    8436:	55                   	push   rbp
    8437:	48 89 e5             	mov    rbp,rsp
    843a:	48 89 7d f8          	mov    QWORD PTR [rbp-0x8],rdi
    843e:	48 8b 45 f8          	mov    rax,QWORD PTR [rbp-0x8]
    8442:	48 83 c0 20          	add    rax,0x20
    8446:	5d                   	pop    rbp
    8447:	c3                   	ret    
    8448:	55                   	push   rbp
    8449:	48 89 e5             	mov    rbp,rsp
    844c:	48 83 ec 20          	sub    rsp,0x20
    8450:	48 89 7d f8          	mov    QWORD PTR [rbp-0x8],rdi
    8454:	48 89 75 f0          	mov    QWORD PTR [rbp-0x10],rsi
    8458:	48 89 55 e8          	mov    QWORD PTR [rbp-0x18],rdx
    845c:	48 8b 45 f0          	mov    rax,QWORD PTR [rbp-0x10]
    8460:	48 89 c7             	mov    rdi,rax
    8463:	e8 24 00 00 00       	call   848c <__cxa_finalize@plt+0x587c>
    8468:	48 8b 10             	mov    rdx,QWORD PTR [rax]
    846b:	48 8b 45 f8          	mov    rax,QWORD PTR [rbp-0x8]
    846f:	48 89 10             	mov    QWORD PTR [rax],rdx
    8472:	48 8b 45 e8          	mov    rax,QWORD PTR [rbp-0x18]
    8476:	48 89 c7             	mov    rdi,rax
    8479:	e8 74 e9 ff ff       	call   6df2 <__cxa_finalize@plt+0x41e2>
    847e:	48 8b 10             	mov    rdx,QWORD PTR [rax]
    8481:	48 8b 45 f8          	mov    rax,QWORD PTR [rbp-0x8]
    8485:	48 89 50 08          	mov    QWORD PTR [rax+0x8],rdx
    8489:	90                   	nop
    848a:	c9                   	leave  
    848b:	c3                   	ret    
    848c:	55                   	push   rbp
    848d:	48 89 e5             	mov    rbp,rsp
    8490:	48 89 7d f8          	mov    QWORD PTR [rbp-0x8],rdi
    8494:	48 8b 45 f8          	mov    rax,QWORD PTR [rbp-0x8]
    8498:	5d                   	pop    rbp
    8499:	c3                   	ret    
    849a:	55                   	push   rbp
    849b:	48 89 e5             	mov    rbp,rsp
    849e:	53                   	push   rbx
    849f:	48 83 ec 68          	sub    rsp,0x68
    84a3:	48 89 7d 98          	mov    QWORD PTR [rbp-0x68],rdi
    84a7:	48 89 75 90          	mov    QWORD PTR [rbp-0x70],rsi
    84ab:	64 48 8b 04 25 28 00 	mov    rax,QWORD PTR fs:0x28
    84b2:	00 00 
    84b4:	48 89 45 e8          	mov    QWORD PTR [rbp-0x18],rax
    84b8:	31 c0                	xor    eax,eax
    84ba:	48 8b 45 98          	mov    rax,QWORD PTR [rbp-0x68]
    84be:	48 89 c7             	mov    rdi,rax
    84c1:	e8 6e de ff ff       	call   6334 <__cxa_finalize@plt+0x3724>
    84c6:	48 89 45 b0          	mov    QWORD PTR [rbp-0x50],rax
    84ca:	48 8b 45 98          	mov    rax,QWORD PTR [rbp-0x68]
    84ce:	48 89 c7             	mov    rdi,rax
    84d1:	e8 1e fd ff ff       	call   81f4 <__cxa_finalize@plt+0x55e4>
    84d6:	48 89 45 b8          	mov    QWORD PTR [rbp-0x48],rax
    84da:	c6 45 af 01          	mov    BYTE PTR [rbp-0x51],0x1
    84de:	48 8b 45 b0          	mov    rax,QWORD PTR [rbp-0x50]
    84e2:	48 85 c0             	test   rax,rax
    84e5:	74 53                	je     853a <__cxa_finalize@plt+0x592a>
    84e7:	48 8b 45 b0          	mov    rax,QWORD PTR [rbp-0x50]
    84eb:	48 89 45 b8          	mov    QWORD PTR [rbp-0x48],rax
    84ef:	48 8b 5d 98          	mov    rbx,QWORD PTR [rbp-0x68]
    84f3:	48 8b 45 b0          	mov    rax,QWORD PTR [rbp-0x50]
    84f7:	48 89 c7             	mov    rdi,rax
    84fa:	e8 56 f3 ff ff       	call   7855 <__cxa_finalize@plt+0x4c45>
    84ff:	48 89 c2             	mov    rdx,rax
    8502:	48 8b 45 90          	mov    rax,QWORD PTR [rbp-0x70]
    8506:	48 89 c6             	mov    rsi,rax
    8509:	48 89 df             	mov    rdi,rbx
    850c:	e8 d7 de ff ff       	call   63e8 <__cxa_finalize@plt+0x37d8>
    8511:	88 45 af             	mov    BYTE PTR [rbp-0x51],al
    8514:	80 7d af 00          	cmp    BYTE PTR [rbp-0x51],0x0
    8518:	74 0e                	je     8528 <__cxa_finalize@plt+0x5918>
    851a:	48 8b 45 b0          	mov    rax,QWORD PTR [rbp-0x50]
    851e:	48 89 c7             	mov    rdi,rax
    8521:	e8 07 e7 ff ff       	call   6c2d <__cxa_finalize@plt+0x401d>
    8526:	eb 0c                	jmp    8534 <__cxa_finalize@plt+0x5924>
    8528:	48 8b 45 b0          	mov    rax,QWORD PTR [rbp-0x50]
    852c:	48 89 c7             	mov    rdi,rax
    852f:	e8 e7 e6 ff ff       	call   6c1b <__cxa_finalize@plt+0x400b>
    8534:	48 89 45 b0          	mov    QWORD PTR [rbp-0x50],rax
    8538:	eb a4                	jmp    84de <__cxa_finalize@plt+0x58ce>
    853a:	48 8b 55 b8          	mov    rdx,QWORD PTR [rbp-0x48]
    853e:	48 8d 45 c0          	lea    rax,[rbp-0x40]
    8542:	48 89 d6             	mov    rsi,rdx
    8545:	48 89 c7             	mov    rdi,rax
    8548:	e8 3d f4 ff ff       	call   798a <__cxa_finalize@plt+0x4d7a>
    854d:	80 7d af 00          	cmp    BYTE PTR [rbp-0x51],0x0
    8551:	74 54                	je     85a7 <__cxa_finalize@plt+0x5997>
    8553:	48 8b 45 98          	mov    rax,QWORD PTR [rbp-0x68]
    8557:	48 89 c7             	mov    rdi,rax
    855a:	e8 e5 05 00 00       	call   8b44 <__cxa_finalize@plt+0x5f34>
    855f:	48 89 45 d0          	mov    QWORD PTR [rbp-0x30],rax
    8563:	48 8d 55 d0          	lea    rdx,[rbp-0x30]
    8567:	48 8d 45 c0          	lea    rax,[rbp-0x40]
    856b:	48 89 d6             	mov    rsi,rdx
    856e:	48 89 c7             	mov    rdi,rax
    8571:	e8 cc e0 ff ff       	call   6642 <__cxa_finalize@plt+0x3a32>
    8576:	84 c0                	test   al,al
    8578:	74 21                	je     859b <__cxa_finalize@plt+0x598b>
    857a:	48 8d 55 b8          	lea    rdx,[rbp-0x48]
    857e:	48 8d 4d b0          	lea    rcx,[rbp-0x50]
    8582:	48 8d 45 d0          	lea    rax,[rbp-0x30]
    8586:	48 89 ce             	mov    rsi,rcx
    8589:	48 89 c7             	mov    rdi,rax
    858c:	e8 b7 fe ff ff       	call   8448 <__cxa_finalize@plt+0x5838>
    8591:	48 8b 45 d0          	mov    rax,QWORD PTR [rbp-0x30]
    8595:	48 8b 55 d8          	mov    rdx,QWORD PTR [rbp-0x28]
    8599:	eb 7d                	jmp    8618 <__cxa_finalize@plt+0x5a08>
    859b:	48 8d 45 c0          	lea    rax,[rbp-0x40]
    859f:	48 89 c7             	mov    rdi,rax
    85a2:	e8 9f 00 00 00       	call   8646 <__cxa_finalize@plt+0x5a36>
    85a7:	48 8b 5d 98          	mov    rbx,QWORD PTR [rbp-0x68]
    85ab:	48 8b 45 c0          	mov    rax,QWORD PTR [rbp-0x40]
    85af:	48 89 c7             	mov    rdi,rax
    85b2:	e8 ca f4 ff ff       	call   7a81 <__cxa_finalize@plt+0x4e71>
    85b7:	48 89 c1             	mov    rcx,rax
    85ba:	48 8b 45 90          	mov    rax,QWORD PTR [rbp-0x70]
    85be:	48 89 c2             	mov    rdx,rax
    85c1:	48 89 ce             	mov    rsi,rcx
    85c4:	48 89 df             	mov    rdi,rbx
    85c7:	e8 1c de ff ff       	call   63e8 <__cxa_finalize@plt+0x37d8>
    85cc:	84 c0                	test   al,al
    85ce:	74 21                	je     85f1 <__cxa_finalize@plt+0x59e1>
    85d0:	48 8d 55 b8          	lea    rdx,[rbp-0x48]
    85d4:	48 8d 4d b0          	lea    rcx,[rbp-0x50]
    85d8:	48 8d 45 d0          	lea    rax,[rbp-0x30]
    85dc:	48 89 ce             	mov    rsi,rcx
    85df:	48 89 c7             	mov    rdi,rax
    85e2:	e8 61 fe ff ff       	call   8448 <__cxa_finalize@plt+0x5838>
    85e7:	48 8b 45 d0          	mov    rax,QWORD PTR [rbp-0x30]
    85eb:	48 8b 55 d8          	mov    rdx,QWORD PTR [rbp-0x28]
    85ef:	eb 27                	jmp    8618 <__cxa_finalize@plt+0x5a08>
    85f1:	48 c7 45 c8 00 00 00 	mov    QWORD PTR [rbp-0x38],0x0
    85f8:	00 
    85f9:	48 8d 55 c8          	lea    rdx,[rbp-0x38]
    85fd:	48 8d 4d c0          	lea    rcx,[rbp-0x40]
    8601:	48 8d 45 d0          	lea    rax,[rbp-0x30]
    8605:	48 89 ce             	mov    rsi,rcx
    8608:	48 89 c7             	mov    rdi,rax
    860b:	e8 34 e8 ff ff       	call   6e44 <__cxa_finalize@plt+0x4234>
    8610:	48 8b 45 d0          	mov    rax,QWORD PTR [rbp-0x30]
    8614:	48 8b 55 d8          	mov    rdx,QWORD PTR [rbp-0x28]
    8618:	48 8b 5d e8          	mov    rbx,QWORD PTR [rbp-0x18]
    861c:	64 48 33 1c 25 28 00 	xor    rbx,QWORD PTR fs:0x28
    8623:	00 00 
    8625:	74 05                	je     862c <__cxa_finalize@plt+0x5a1c>
    8627:	e8 d4 a3 ff ff       	call   2a00 <__stack_chk_fail@plt>
    862c:	48 83 c4 68          	add    rsp,0x68
    8630:	5b                   	pop    rbx
    8631:	5d                   	pop    rbp
    8632:	c3                   	ret    
    8633:	90                   	nop
    8634:	55                   	push   rbp
    8635:	48 89 e5             	mov    rbp,rsp
    8638:	48 89 7d f8          	mov    QWORD PTR [rbp-0x8],rdi
    863c:	48 8b 45 f8          	mov    rax,QWORD PTR [rbp-0x8]
    8640:	48 83 c0 18          	add    rax,0x18
    8644:	5d                   	pop    rbp
    8645:	c3                   	ret    
    8646:	55                   	push   rbp
    8647:	48 89 e5             	mov    rbp,rsp
    864a:	48 83 ec 10          	sub    rsp,0x10
    864e:	48 89 7d f8          	mov    QWORD PTR [rbp-0x8],rdi
    8652:	48 8b 45 f8          	mov    rax,QWORD PTR [rbp-0x8]
    8656:	48 8b 00             	mov    rax,QWORD PTR [rax]
    8659:	48 89 c7             	mov    rdi,rax
    865c:	e8 6f a3 ff ff       	call   29d0 <_ZSt18_Rb_tree_decrementPSt18_Rb_tree_node_base@plt>
    8661:	48 89 c2             	mov    rdx,rax
    8664:	48 8b 45 f8          	mov    rax,QWORD PTR [rbp-0x8]
    8668:	48 89 10             	mov    QWORD PTR [rax],rdx
    866b:	48 8b 45 f8          	mov    rax,QWORD PTR [rbp-0x8]
    866f:	c9                   	leave  
    8670:	c3                   	ret    
    8671:	90                   	nop
    8672:	55                   	push   rbp
    8673:	48 89 e5             	mov    rbp,rsp
    8676:	48 83 ec 10          	sub    rsp,0x10
    867a:	48 89 7d f8          	mov    QWORD PTR [rbp-0x8],rdi
    867e:	48 8b 45 f8          	mov    rax,QWORD PTR [rbp-0x8]
    8682:	48 8b 00             	mov    rax,QWORD PTR [rax]
    8685:	48 89 c7             	mov    rdi,rax
    8688:	e8 53 a2 ff ff       	call   28e0 <_ZSt18_Rb_tree_incrementPSt18_Rb_tree_node_base@plt>
    868d:	48 89 c2             	mov    rdx,rax
    8690:	48 8b 45 f8          	mov    rax,QWORD PTR [rbp-0x8]
    8694:	48 89 10             	mov    QWORD PTR [rax],rdx
    8697:	48 8b 45 f8          	mov    rax,QWORD PTR [rbp-0x8]
    869b:	c9                   	leave  
    869c:	c3                   	ret    
    869d:	55                   	push   rbp
    869e:	48 89 e5             	mov    rbp,rsp
    86a1:	48 83 ec 10          	sub    rsp,0x10
    86a5:	48 89 7d f8          	mov    QWORD PTR [rbp-0x8],rdi
    86a9:	48 8b 45 f8          	mov    rax,QWORD PTR [rbp-0x8]
    86ad:	48 89 c7             	mov    rdi,rax
    86b0:	e8 db 04 00 00       	call   8b90 <__cxa_finalize@plt+0x5f80>
    86b5:	c9                   	leave  
    86b6:	c3                   	ret    
    86b7:	90                   	nop
    86b8:	55                   	push   rbp
    86b9:	48 89 e5             	mov    rbp,rsp
    86bc:	48 89 7d f8          	mov    QWORD PTR [rbp-0x8],rdi
    86c0:	48 89 75 f0          	mov    QWORD PTR [rbp-0x10],rsi
    86c4:	48 8b 45 f0          	mov    rax,QWORD PTR [rbp-0x10]
    86c8:	5d                   	pop    rbp
    86c9:	c3                   	ret    
    86ca:	55                   	push   rbp
    86cb:	48 89 e5             	mov    rbp,rsp
    86ce:	48 89 7d f8          	mov    QWORD PTR [rbp-0x8],rdi
    86d2:	48 8b 45 f8          	mov    rax,QWORD PTR [rbp-0x8]
    86d6:	48 8b 40 10          	mov    rax,QWORD PTR [rax+0x10]
    86da:	5d                   	pop    rbp
    86db:	c3                   	ret    
    86dc:	55                   	push   rbp
    86dd:	48 89 e5             	mov    rbp,rsp
    86e0:	48 89 7d f8          	mov    QWORD PTR [rbp-0x8],rdi
    86e4:	48 8b 45 f8          	mov    rax,QWORD PTR [rbp-0x8]
    86e8:	48 8b 40 18          	mov    rax,QWORD PTR [rax+0x18]
    86ec:	5d                   	pop    rbp
    86ed:	c3                   	ret    
    86ee:	55                   	push   rbp
    86ef:	48 89 e5             	mov    rbp,rsp
    86f2:	48 83 ec 10          	sub    rsp,0x10
    86f6:	48 89 7d f8          	mov    QWORD PTR [rbp-0x8],rdi
    86fa:	48 8b 45 f8          	mov    rax,QWORD PTR [rbp-0x8]
    86fe:	48 89 c7             	mov    rdi,rax
    8701:	e8 8a 04 00 00       	call   8b90 <__cxa_finalize@plt+0x5f80>
    8706:	c9                   	leave  
    8707:	c3                   	ret    
    8708:	55                   	push   rbp
    8709:	48 89 e5             	mov    rbp,rsp
    870c:	41 56                	push   r14
    870e:	41 55                	push   r13
    8710:	41 54                	push   r12
    8712:	53                   	push   rbx
    8713:	48 83 ec 30          	sub    rsp,0x30
    8717:	48 89 7d d8          	mov    QWORD PTR [rbp-0x28],rdi
    871b:	48 89 75 d0          	mov    QWORD PTR [rbp-0x30],rsi
    871f:	48 89 55 c8          	mov    QWORD PTR [rbp-0x38],rdx
    8723:	48 89 4d c0          	mov    QWORD PTR [rbp-0x40],rcx
    8727:	4c 89 45 b8          	mov    QWORD PTR [rbp-0x48],r8
    872b:	48 8b 45 d0          	mov    rax,QWORD PTR [rbp-0x30]
    872f:	48 89 c6             	mov    rsi,rax
    8732:	bf 28 00 00 00       	mov    edi,0x28
    8737:	e8 cb d0 ff ff       	call   5807 <__cxa_finalize@plt+0x2bf7>
    873c:	48 85 c0             	test   rax,rax
    873f:	48 8b 45 b8          	mov    rax,QWORD PTR [rbp-0x48]
    8743:	48 89 c7             	mov    rdi,rax
    8746:	e8 6f dd ff ff       	call   64ba <__cxa_finalize@plt+0x38aa>
    874b:	49 89 c6             	mov    r14,rax
    874e:	48 8b 45 c0          	mov    rax,QWORD PTR [rbp-0x40]
    8752:	48 89 c7             	mov    rdi,rax
    8755:	e8 e2 e1 ff ff       	call   693c <__cxa_finalize@plt+0x3d2c>
    875a:	49 89 c5             	mov    r13,rax
    875d:	48 8b 45 c8          	mov    rax,QWORD PTR [rbp-0x38]
    8761:	48 89 c7             	mov    rdi,rax
    8764:	e8 35 dd ff ff       	call   649e <__cxa_finalize@plt+0x388e>
    8769:	49 89 c4             	mov    r12,rax
    876c:	48 8b 45 d0          	mov    rax,QWORD PTR [rbp-0x30]
    8770:	48 89 c7             	mov    rdi,rax
    8773:	e8 9e ec ff ff       	call   7416 <__cxa_finalize@plt+0x4806>
    8778:	48 89 c3             	mov    rbx,rax
    877b:	48 8b 45 d8          	mov    rax,QWORD PTR [rbp-0x28]
    877f:	48 89 c7             	mov    rdi,rax
    8782:	e8 8f 01 00 00       	call   8916 <__cxa_finalize@plt+0x5d06>
    8787:	4d 89 f0             	mov    r8,r14
    878a:	4c 89 e9             	mov    rcx,r13
    878d:	4c 89 e2             	mov    rdx,r12
    8790:	48 89 de             	mov    rsi,rbx
    8793:	48 89 c7             	mov    rdi,rax
    8796:	e8 13 04 00 00       	call   8bae <__cxa_finalize@plt+0x5f9e>
    879b:	eb 33                	jmp    87d0 <__cxa_finalize@plt+0x5bc0>
    879d:	48 89 c7             	mov    rdi,rax
    87a0:	e8 ab a0 ff ff       	call   2850 <__cxa_begin_catch@plt>
    87a5:	48 8b 55 d0          	mov    rdx,QWORD PTR [rbp-0x30]
    87a9:	48 8b 45 d8          	mov    rax,QWORD PTR [rbp-0x28]
    87ad:	48 89 d6             	mov    rsi,rdx
    87b0:	48 89 c7             	mov    rdi,rax
    87b3:	e8 e0 f4 ff ff       	call   7c98 <__cxa_finalize@plt+0x5088>
    87b8:	e8 03 a3 ff ff       	call   2ac0 <__cxa_rethrow@plt>
    87bd:	48 89 c3             	mov    rbx,rax
    87c0:	e8 6b a3 ff ff       	call   2b30 <__cxa_end_catch@plt>
    87c5:	48 89 d8             	mov    rax,rbx
    87c8:	48 89 c7             	mov    rdi,rax
    87cb:	e8 c0 a3 ff ff       	call   2b90 <_Unwind_Resume@plt>
    87d0:	48 83 c4 30          	add    rsp,0x30
    87d4:	5b                   	pop    rbx
    87d5:	41 5c                	pop    r12
    87d7:	41 5d                	pop    r13
    87d9:	41 5e                	pop    r14
    87db:	5d                   	pop    rbp
    87dc:	c3                   	ret    
    87dd:	90                   	nop
    87de:	55                   	push   rbp
    87df:	48 89 e5             	mov    rbp,rsp
    87e2:	41 56                	push   r14
    87e4:	41 55                	push   r13
    87e6:	41 54                	push   r12
    87e8:	53                   	push   rbx
    87e9:	48 83 ec 30          	sub    rsp,0x30
    87ed:	48 89 7d d8          	mov    QWORD PTR [rbp-0x28],rdi
    87f1:	48 89 75 d0          	mov    QWORD PTR [rbp-0x30],rsi
    87f5:	48 89 55 c8          	mov    QWORD PTR [rbp-0x38],rdx
    87f9:	48 89 4d c0          	mov    QWORD PTR [rbp-0x40],rcx
    87fd:	4c 89 45 b8          	mov    QWORD PTR [rbp-0x48],r8
    8801:	48 8b 45 d0          	mov    rax,QWORD PTR [rbp-0x30]
    8805:	48 89 c6             	mov    rsi,rax
    8808:	bf 28 00 00 00       	mov    edi,0x28
    880d:	e8 f5 cf ff ff       	call   5807 <__cxa_finalize@plt+0x2bf7>
    8812:	48 85 c0             	test   rax,rax
    8815:	48 8b 45 b8          	mov    rax,QWORD PTR [rbp-0x48]
    8819:	48 89 c7             	mov    rdi,rax
    881c:	e8 99 dc ff ff       	call   64ba <__cxa_finalize@plt+0x38aa>
    8821:	49 89 c6             	mov    r14,rax
    8824:	48 8b 45 c0          	mov    rax,QWORD PTR [rbp-0x40]
    8828:	48 89 c7             	mov    rdi,rax
    882b:	e8 0c e1 ff ff       	call   693c <__cxa_finalize@plt+0x3d2c>
    8830:	49 89 c5             	mov    r13,rax
    8833:	48 8b 45 c8          	mov    rax,QWORD PTR [rbp-0x38]
    8837:	48 89 c7             	mov    rdi,rax
    883a:	e8 5f dc ff ff       	call   649e <__cxa_finalize@plt+0x388e>
    883f:	49 89 c4             	mov    r12,rax
    8842:	48 8b 45 d0          	mov    rax,QWORD PTR [rbp-0x30]
    8846:	48 89 c7             	mov    rdi,rax
    8849:	e8 ce e4 ff ff       	call   6d1c <__cxa_finalize@plt+0x410c>
    884e:	48 89 c3             	mov    rbx,rax
    8851:	48 8b 45 d8          	mov    rax,QWORD PTR [rbp-0x28]
    8855:	48 89 c7             	mov    rdi,rax
    8858:	e8 57 00 00 00       	call   88b4 <__cxa_finalize@plt+0x5ca4>
    885d:	4d 89 f0             	mov    r8,r14
    8860:	4c 89 e9             	mov    rcx,r13
    8863:	4c 89 e2             	mov    rdx,r12
    8866:	48 89 de             	mov    rsi,rbx
    8869:	48 89 c7             	mov    rdi,rax
    886c:	e8 a9 03 00 00       	call   8c1a <__cxa_finalize@plt+0x600a>
    8871:	eb 33                	jmp    88a6 <__cxa_finalize@plt+0x5c96>
    8873:	48 89 c7             	mov    rdi,rax
    8876:	e8 d5 9f ff ff       	call   2850 <__cxa_begin_catch@plt>
    887b:	48 8b 55 d0          	mov    rdx,QWORD PTR [rbp-0x30]
    887f:	48 8b 45 d8          	mov    rax,QWORD PTR [rbp-0x28]
    8883:	48 89 d6             	mov    rsi,rdx
    8886:	48 89 c7             	mov    rdi,rax
    8889:	e8 94 f3 ff ff       	call   7c22 <__cxa_finalize@plt+0x5012>
    888e:	e8 2d a2 ff ff       	call   2ac0 <__cxa_rethrow@plt>
    8893:	48 89 c3             	mov    rbx,rax
    8896:	e8 95 a2 ff ff       	call   2b30 <__cxa_end_catch@plt>
    889b:	48 89 d8             	mov    rax,rbx
    889e:	48 89 c7             	mov    rdi,rax
    88a1:	e8 ea a2 ff ff       	call   2b90 <_Unwind_Resume@plt>
    88a6:	48 83 c4 30          	add    rsp,0x30
    88aa:	5b                   	pop    rbx
    88ab:	41 5c                	pop    r12
    88ad:	41 5d                	pop    r13
    88af:	41 5e                	pop    r14
    88b1:	5d                   	pop    rbp
    88b2:	c3                   	ret    
    88b3:	90                   	nop
    88b4:	55                   	push   rbp
    88b5:	48 89 e5             	mov    rbp,rsp
    88b8:	48 89 7d f8          	mov    QWORD PTR [rbp-0x8],rdi
    88bc:	48 8b 45 f8          	mov    rax,QWORD PTR [rbp-0x8]
    88c0:	5d                   	pop    rbp
    88c1:	c3                   	ret    
    88c2:	55                   	push   rbp
    88c3:	48 89 e5             	mov    rbp,rsp
    88c6:	48 83 ec 10          	sub    rsp,0x10
    88ca:	48 89 7d f8          	mov    QWORD PTR [rbp-0x8],rdi
    88ce:	48 89 75 f0          	mov    QWORD PTR [rbp-0x10],rsi
    88d2:	48 8b 55 f0          	mov    rdx,QWORD PTR [rbp-0x10]
    88d6:	48 8b 45 f8          	mov    rax,QWORD PTR [rbp-0x8]
    88da:	48 89 d6             	mov    rsi,rdx
    88dd:	48 89 c7             	mov    rdi,rax
    88e0:	e8 a1 03 00 00       	call   8c86 <__cxa_finalize@plt+0x6076>
    88e5:	90                   	nop
    88e6:	c9                   	leave  
    88e7:	c3                   	ret    
    88e8:	55                   	push   rbp
    88e9:	48 89 e5             	mov    rbp,rsp
    88ec:	48 83 ec 20          	sub    rsp,0x20
    88f0:	48 89 7d f8          	mov    QWORD PTR [rbp-0x8],rdi
    88f4:	48 89 75 f0          	mov    QWORD PTR [rbp-0x10],rsi
    88f8:	48 89 55 e8          	mov    QWORD PTR [rbp-0x18],rdx
    88fc:	48 8b 55 e8          	mov    rdx,QWORD PTR [rbp-0x18]
    8900:	48 8b 4d f0          	mov    rcx,QWORD PTR [rbp-0x10]
    8904:	48 8b 45 f8          	mov    rax,QWORD PTR [rbp-0x8]
    8908:	48 89 ce             	mov    rsi,rcx
    890b:	48 89 c7             	mov    rdi,rax
    890e:	e8 83 03 00 00       	call   8c96 <__cxa_finalize@plt+0x6086>
    8913:	90                   	nop
    8914:	c9                   	leave  
    8915:	c3                   	ret    
    8916:	55                   	push   rbp
    8917:	48 89 e5             	mov    rbp,rsp
    891a:	48 89 7d f8          	mov    QWORD PTR [rbp-0x8],rdi
    891e:	48 8b 45 f8          	mov    rax,QWORD PTR [rbp-0x8]
    8922:	5d                   	pop    rbp
    8923:	c3                   	ret    
    8924:	55                   	push   rbp
    8925:	48 89 e5             	mov    rbp,rsp
    8928:	48 83 ec 10          	sub    rsp,0x10
    892c:	48 89 7d f8          	mov    QWORD PTR [rbp-0x8],rdi
    8930:	48 89 75 f0          	mov    QWORD PTR [rbp-0x10],rsi
    8934:	48 8b 55 f0          	mov    rdx,QWORD PTR [rbp-0x10]
    8938:	48 8b 45 f8          	mov    rax,QWORD PTR [rbp-0x8]
    893c:	48 89 d6             	mov    rsi,rdx
    893f:	48 89 c7             	mov    rdi,rax
    8942:	e8 73 03 00 00       	call   8cba <__cxa_finalize@plt+0x60aa>
    8947:	90                   	nop
    8948:	c9                   	leave  
    8949:	c3                   	ret    
    894a:	55                   	push   rbp
    894b:	48 89 e5             	mov    rbp,rsp
    894e:	48 83 ec 20          	sub    rsp,0x20
    8952:	48 89 7d f8          	mov    QWORD PTR [rbp-0x8],rdi
    8956:	48 89 75 f0          	mov    QWORD PTR [rbp-0x10],rsi
    895a:	48 89 55 e8          	mov    QWORD PTR [rbp-0x18],rdx
    895e:	48 8b 55 e8          	mov    rdx,QWORD PTR [rbp-0x18]
    8962:	48 8b 4d f0          	mov    rcx,QWORD PTR [rbp-0x10]
    8966:	48 8b 45 f8          	mov    rax,QWORD PTR [rbp-0x8]
    896a:	48 89 ce             	mov    rsi,rcx
    896d:	48 89 c7             	mov    rdi,rax
    8970:	e8 55 03 00 00       	call   8cca <__cxa_finalize@plt+0x60ba>
    8975:	90                   	nop
    8976:	c9                   	leave  
    8977:	c3                   	ret    
    8978:	55                   	push   rbp
    8979:	48 89 e5             	mov    rbp,rsp
    897c:	48 89 7d f8          	mov    QWORD PTR [rbp-0x8],rdi
    8980:	48 8b 45 f8          	mov    rax,QWORD PTR [rbp-0x8]
    8984:	5d                   	pop    rbp
    8985:	c3                   	ret    
    8986:	55                   	push   rbp
    8987:	48 89 e5             	mov    rbp,rsp
    898a:	48 83 ec 10          	sub    rsp,0x10
    898e:	48 89 7d f8          	mov    QWORD PTR [rbp-0x8],rdi
    8992:	48 89 75 f0          	mov    QWORD PTR [rbp-0x10],rsi
    8996:	48 8b 4d f0          	mov    rcx,QWORD PTR [rbp-0x10]
    899a:	48 8b 45 f8          	mov    rax,QWORD PTR [rbp-0x8]
    899e:	ba 00 00 00 00       	mov    edx,0x0
    89a3:	48 89 ce             	mov    rsi,rcx
    89a6:	48 89 c7             	mov    rdi,rax
    89a9:	e8 40 03 00 00       	call   8cee <__cxa_finalize@plt+0x60de>
    89ae:	c9                   	leave  
    89af:	c3                   	ret    
    89b0:	55                   	push   rbp
    89b1:	48 89 e5             	mov    rbp,rsp
    89b4:	41 54                	push   r12
    89b6:	53                   	push   rbx
    89b7:	48 83 ec 30          	sub    rsp,0x30
    89bb:	48 89 7d e8          	mov    QWORD PTR [rbp-0x18],rdi
    89bf:	48 89 75 e0          	mov    QWORD PTR [rbp-0x20],rsi
    89c3:	48 89 55 d8          	mov    QWORD PTR [rbp-0x28],rdx
    89c7:	48 89 4d d0          	mov    QWORD PTR [rbp-0x30],rcx
    89cb:	4c 89 45 c8          	mov    QWORD PTR [rbp-0x38],r8
    89cf:	48 8b 45 c8          	mov    rax,QWORD PTR [rbp-0x38]
    89d3:	48 89 c7             	mov    rdi,rax
    89d6:	e8 df da ff ff       	call   64ba <__cxa_finalize@plt+0x38aa>
    89db:	49 89 c4             	mov    r12,rax
    89de:	48 8b 45 d0          	mov    rax,QWORD PTR [rbp-0x30]
    89e2:	48 89 c7             	mov    rdi,rax
    89e5:	e8 c2 da ff ff       	call   64ac <__cxa_finalize@plt+0x389c>
    89ea:	48 89 c3             	mov    rbx,rax
    89ed:	48 8b 45 d8          	mov    rax,QWORD PTR [rbp-0x28]
    89f1:	48 89 c7             	mov    rdi,rax
    89f4:	e8 a5 da ff ff       	call   649e <__cxa_finalize@plt+0x388e>
    89f9:	48 89 c2             	mov    rdx,rax
    89fc:	48 8b 75 e0          	mov    rsi,QWORD PTR [rbp-0x20]
    8a00:	48 8b 45 e8          	mov    rax,QWORD PTR [rbp-0x18]
    8a04:	4d 89 e0             	mov    r8,r12
    8a07:	48 89 d9             	mov    rcx,rbx
    8a0a:	48 89 c7             	mov    rdi,rax
    8a0d:	e8 28 03 00 00       	call   8d3a <__cxa_finalize@plt+0x612a>
    8a12:	90                   	nop
    8a13:	48 83 c4 30          	add    rsp,0x30
    8a17:	5b                   	pop    rbx
    8a18:	41 5c                	pop    r12
    8a1a:	5d                   	pop    rbp
    8a1b:	c3                   	ret    
    8a1c:	55                   	push   rbp
    8a1d:	48 89 e5             	mov    rbp,rsp
    8a20:	48 83 ec 10          	sub    rsp,0x10
    8a24:	48 89 7d f8          	mov    QWORD PTR [rbp-0x8],rdi
    8a28:	48 8b 45 f8          	mov    rax,QWORD PTR [rbp-0x8]
    8a2c:	48 89 c7             	mov    rdi,rax
    8a2f:	e8 4e 00 00 00       	call   8a82 <__cxa_finalize@plt+0x5e72>
    8a34:	c9                   	leave  
    8a35:	c3                   	ret    
    8a36:	55                   	push   rbp
    8a37:	48 89 e5             	mov    rbp,rsp
    8a3a:	48 83 ec 20          	sub    rsp,0x20
    8a3e:	48 89 7d e8          	mov    QWORD PTR [rbp-0x18],rdi
    8a42:	64 48 8b 04 25 28 00 	mov    rax,QWORD PTR fs:0x28
    8a49:	00 00 
    8a4b:	48 89 45 f8          	mov    QWORD PTR [rbp-0x8],rax
    8a4f:	31 c0                	xor    eax,eax
    8a51:	48 8b 45 e8          	mov    rax,QWORD PTR [rbp-0x18]
    8a55:	48 8b 50 18          	mov    rdx,QWORD PTR [rax+0x18]
    8a59:	48 8d 45 f0          	lea    rax,[rbp-0x10]
    8a5d:	48 89 d6             	mov    rsi,rdx
    8a60:	48 89 c7             	mov    rdi,rax
    8a63:	e8 f2 e8 ff ff       	call   735a <__cxa_finalize@plt+0x474a>
    8a68:	48 8b 45 f0          	mov    rax,QWORD PTR [rbp-0x10]
    8a6c:	48 8b 4d f8          	mov    rcx,QWORD PTR [rbp-0x8]
    8a70:	64 48 33 0c 25 28 00 	xor    rcx,QWORD PTR fs:0x28
    8a77:	00 00 
    8a79:	74 05                	je     8a80 <__cxa_finalize@plt+0x5e70>
    8a7b:	e8 80 9f ff ff       	call   2a00 <__stack_chk_fail@plt>
    8a80:	c9                   	leave  
    8a81:	c3                   	ret    
    8a82:	55                   	push   rbp
    8a83:	48 89 e5             	mov    rbp,rsp
    8a86:	48 83 ec 10          	sub    rsp,0x10
    8a8a:	48 89 7d f8          	mov    QWORD PTR [rbp-0x8],rdi
    8a8e:	48 8b 45 f8          	mov    rax,QWORD PTR [rbp-0x8]
    8a92:	48 83 c0 20          	add    rax,0x20
    8a96:	48 89 c7             	mov    rdi,rax
    8a99:	e8 74 03 00 00       	call   8e12 <__cxa_finalize@plt+0x6202>
    8a9e:	c9                   	leave  
    8a9f:	c3                   	ret    
    8aa0:	55                   	push   rbp
    8aa1:	48 89 e5             	mov    rbp,rsp
    8aa4:	48 89 7d f8          	mov    QWORD PTR [rbp-0x8],rdi
    8aa8:	48 8b 45 f8          	mov    rax,QWORD PTR [rbp-0x8]
    8aac:	5d                   	pop    rbp
    8aad:	c3                   	ret    
    8aae:	55                   	push   rbp
    8aaf:	48 89 e5             	mov    rbp,rsp
    8ab2:	48 83 ec 10          	sub    rsp,0x10
    8ab6:	48 89 7d f8          	mov    QWORD PTR [rbp-0x8],rdi
    8aba:	48 89 75 f0          	mov    QWORD PTR [rbp-0x10],rsi
    8abe:	48 8b 4d f0          	mov    rcx,QWORD PTR [rbp-0x10]
    8ac2:	48 8b 45 f8          	mov    rax,QWORD PTR [rbp-0x8]
    8ac6:	ba 00 00 00 00       	mov    edx,0x0
    8acb:	48 89 ce             	mov    rsi,rcx
    8ace:	48 89 c7             	mov    rdi,rax
    8ad1:	e8 56 03 00 00       	call   8e2c <__cxa_finalize@plt+0x621c>
    8ad6:	c9                   	leave  
    8ad7:	c3                   	ret    
    8ad8:	55                   	push   rbp
    8ad9:	48 89 e5             	mov    rbp,rsp
    8adc:	41 54                	push   r12
    8ade:	53                   	push   rbx
    8adf:	48 83 ec 30          	sub    rsp,0x30
    8ae3:	48 89 7d e8          	mov    QWORD PTR [rbp-0x18],rdi
    8ae7:	48 89 75 e0          	mov    QWORD PTR [rbp-0x20],rsi
    8aeb:	48 89 55 d8          	mov    QWORD PTR [rbp-0x28],rdx
    8aef:	48 89 4d d0          	mov    QWORD PTR [rbp-0x30],rcx
    8af3:	4c 89 45 c8          	mov    QWORD PTR [rbp-0x38],r8
    8af7:	48 8b 45 c8          	mov    rax,QWORD PTR [rbp-0x38]
    8afb:	48 89 c7             	mov    rdi,rax
    8afe:	e8 b7 d9 ff ff       	call   64ba <__cxa_finalize@plt+0x38aa>
    8b03:	49 89 c4             	mov    r12,rax
    8b06:	48 8b 45 d0          	mov    rax,QWORD PTR [rbp-0x30]
    8b0a:	48 89 c7             	mov    rdi,rax
    8b0d:	e8 9a d9 ff ff       	call   64ac <__cxa_finalize@plt+0x389c>
    8b12:	48 89 c3             	mov    rbx,rax
    8b15:	48 8b 45 d8          	mov    rax,QWORD PTR [rbp-0x28]
    8b19:	48 89 c7             	mov    rdi,rax
    8b1c:	e8 7d d9 ff ff       	call   649e <__cxa_finalize@plt+0x388e>
    8b21:	48 89 c2             	mov    rdx,rax
    8b24:	48 8b 75 e0          	mov    rsi,QWORD PTR [rbp-0x20]
    8b28:	48 8b 45 e8          	mov    rax,QWORD PTR [rbp-0x18]
    8b2c:	4d 89 e0             	mov    r8,r12
    8b2f:	48 89 d9             	mov    rcx,rbx
    8b32:	48 89 c7             	mov    rdi,rax
    8b35:	e8 3e 03 00 00       	call   8e78 <__cxa_finalize@plt+0x6268>
    8b3a:	90                   	nop
    8b3b:	48 83 c4 30          	add    rsp,0x30
    8b3f:	5b                   	pop    rbx
    8b40:	41 5c                	pop    r12
    8b42:	5d                   	pop    rbp
    8b43:	c3                   	ret    
    8b44:	55                   	push   rbp
    8b45:	48 89 e5             	mov    rbp,rsp
    8b48:	48 83 ec 20          	sub    rsp,0x20
    8b4c:	48 89 7d e8          	mov    QWORD PTR [rbp-0x18],rdi
    8b50:	64 48 8b 04 25 28 00 	mov    rax,QWORD PTR fs:0x28
    8b57:	00 00 
    8b59:	48 89 45 f8          	mov    QWORD PTR [rbp-0x8],rax
    8b5d:	31 c0                	xor    eax,eax
    8b5f:	48 8b 45 e8          	mov    rax,QWORD PTR [rbp-0x18]
    8b63:	48 8b 50 18          	mov    rdx,QWORD PTR [rax+0x18]
    8b67:	48 8d 45 f0          	lea    rax,[rbp-0x10]
    8b6b:	48 89 d6             	mov    rsi,rdx
    8b6e:	48 89 c7             	mov    rdi,rax
    8b71:	e8 14 ee ff ff       	call   798a <__cxa_finalize@plt+0x4d7a>
    8b76:	48 8b 45 f0          	mov    rax,QWORD PTR [rbp-0x10]
    8b7a:	48 8b 4d f8          	mov    rcx,QWORD PTR [rbp-0x8]
    8b7e:	64 48 33 0c 25 28 00 	xor    rcx,QWORD PTR fs:0x28
    8b85:	00 00 
    8b87:	74 05                	je     8b8e <__cxa_finalize@plt+0x5f7e>
    8b89:	e8 72 9e ff ff       	call   2a00 <__stack_chk_fail@plt>
    8b8e:	c9                   	leave  
    8b8f:	c3                   	ret    
    8b90:	55                   	push   rbp
    8b91:	48 89 e5             	mov    rbp,rsp
    8b94:	48 83 ec 10          	sub    rsp,0x10
    8b98:	48 89 7d f8          	mov    QWORD PTR [rbp-0x8],rdi
    8b9c:	48 8b 45 f8          	mov    rax,QWORD PTR [rbp-0x8]
    8ba0:	48 83 c0 20          	add    rax,0x20
    8ba4:	48 89 c7             	mov    rdi,rax
    8ba7:	e8 a4 03 00 00       	call   8f50 <__cxa_finalize@plt+0x6340>
    8bac:	c9                   	leave  
    8bad:	c3                   	ret    
    8bae:	55                   	push   rbp
    8baf:	48 89 e5             	mov    rbp,rsp
    8bb2:	41 54                	push   r12
    8bb4:	53                   	push   rbx
    8bb5:	48 83 ec 30          	sub    rsp,0x30
    8bb9:	48 89 7d e8          	mov    QWORD PTR [rbp-0x18],rdi
    8bbd:	48 89 75 e0          	mov    QWORD PTR [rbp-0x20],rsi
    8bc1:	48 89 55 d8          	mov    QWORD PTR [rbp-0x28],rdx
    8bc5:	48 89 4d d0          	mov    QWORD PTR [rbp-0x30],rcx
    8bc9:	4c 89 45 c8          	mov    QWORD PTR [rbp-0x38],r8
    8bcd:	48 8b 45 c8          	mov    rax,QWORD PTR [rbp-0x38]
    8bd1:	48 89 c7             	mov    rdi,rax
    8bd4:	e8 e1 d8 ff ff       	call   64ba <__cxa_finalize@plt+0x38aa>
    8bd9:	49 89 c4             	mov    r12,rax
    8bdc:	48 8b 45 d0          	mov    rax,QWORD PTR [rbp-0x30]
    8be0:	48 89 c7             	mov    rdi,rax
    8be3:	e8 54 dd ff ff       	call   693c <__cxa_finalize@plt+0x3d2c>
    8be8:	48 89 c3             	mov    rbx,rax
    8beb:	48 8b 45 d8          	mov    rax,QWORD PTR [rbp-0x28]
    8bef:	48 89 c7             	mov    rdi,rax
    8bf2:	e8 a7 d8 ff ff       	call   649e <__cxa_finalize@plt+0x388e>
    8bf7:	48 89 c2             	mov    rdx,rax
    8bfa:	48 8b 75 e0          	mov    rsi,QWORD PTR [rbp-0x20]
    8bfe:	48 8b 45 e8          	mov    rax,QWORD PTR [rbp-0x18]
    8c02:	4d 89 e0             	mov    r8,r12
    8c05:	48 89 d9             	mov    rcx,rbx
    8c08:	48 89 c7             	mov    rdi,rax
    8c0b:	e8 80 03 00 00       	call   8f90 <__cxa_finalize@plt+0x6380>
    8c10:	90                   	nop
    8c11:	48 83 c4 30          	add    rsp,0x30
    8c15:	5b                   	pop    rbx
    8c16:	41 5c                	pop    r12
    8c18:	5d                   	pop    rbp
    8c19:	c3                   	ret    
    8c1a:	55                   	push   rbp
    8c1b:	48 89 e5             	mov    rbp,rsp
    8c1e:	41 54                	push   r12
    8c20:	53                   	push   rbx
    8c21:	48 83 ec 30          	sub    rsp,0x30
    8c25:	48 89 7d e8          	mov    QWORD PTR [rbp-0x18],rdi
    8c29:	48 89 75 e0          	mov    QWORD PTR [rbp-0x20],rsi
    8c2d:	48 89 55 d8          	mov    QWORD PTR [rbp-0x28],rdx
    8c31:	48 89 4d d0          	mov    QWORD PTR [rbp-0x30],rcx
    8c35:	4c 89 45 c8          	mov    QWORD PTR [rbp-0x38],r8
    8c39:	48 8b 45 c8          	mov    rax,QWORD PTR [rbp-0x38]
    8c3d:	48 89 c7             	mov    rdi,rax
    8c40:	e8 75 d8 ff ff       	call   64ba <__cxa_finalize@plt+0x38aa>
    8c45:	49 89 c4             	mov    r12,rax
    8c48:	48 8b 45 d0          	mov    rax,QWORD PTR [rbp-0x30]
    8c4c:	48 89 c7             	mov    rdi,rax
    8c4f:	e8 e8 dc ff ff       	call   693c <__cxa_finalize@plt+0x3d2c>
    8c54:	48 89 c3             	mov    rbx,rax
    8c57:	48 8b 45 d8          	mov    rax,QWORD PTR [rbp-0x28]
    8c5b:	48 89 c7             	mov    rdi,rax
    8c5e:	e8 3b d8 ff ff       	call   649e <__cxa_finalize@plt+0x388e>
    8c63:	48 89 c2             	mov    rdx,rax
    8c66:	48 8b 75 e0          	mov    rsi,QWORD PTR [rbp-0x20]
    8c6a:	48 8b 45 e8          	mov    rax,QWORD PTR [rbp-0x18]
    8c6e:	4d 89 e0             	mov    r8,r12
    8c71:	48 89 d9             	mov    rcx,rbx
    8c74:	48 89 c7             	mov    rdi,rax
    8c77:	e8 ec 03 00 00       	call   9068 <__cxa_finalize@plt+0x6458>
    8c7c:	90                   	nop
    8c7d:	48 83 c4 30          	add    rsp,0x30
    8c81:	5b                   	pop    rbx
    8c82:	41 5c                	pop    r12
    8c84:	5d                   	pop    rbp
    8c85:	c3                   	ret    
    8c86:	55                   	push   rbp
    8c87:	48 89 e5             	mov    rbp,rsp
    8c8a:	48 89 7d f8          	mov    QWORD PTR [rbp-0x8],rdi
    8c8e:	48 89 75 f0          	mov    QWORD PTR [rbp-0x10],rsi
    8c92:	90                   	nop
    8c93:	5d                   	pop    rbp
    8c94:	c3                   	ret    
    8c95:	90                   	nop
    8c96:	55                   	push   rbp
    8c97:	48 89 e5             	mov    rbp,rsp
    8c9a:	48 83 ec 20          	sub    rsp,0x20
    8c9e:	48 89 7d f8          	mov    QWORD PTR [rbp-0x8],rdi
    8ca2:	48 89 75 f0          	mov    QWORD PTR [rbp-0x10],rsi
    8ca6:	48 89 55 e8          	mov    QWORD PTR [rbp-0x18],rdx
    8caa:	48 8b 45 f0          	mov    rax,QWORD PTR [rbp-0x10]
    8cae:	48 89 c7             	mov    rdi,rax
    8cb1:	e8 da 9c ff ff       	call   2990 <_ZdlPv@plt>
    8cb6:	90                   	nop
    8cb7:	c9                   	leave  
    8cb8:	c3                   	ret    
    8cb9:	90                   	nop
    8cba:	55                   	push   rbp
    8cbb:	48 89 e5             	mov    rbp,rsp
    8cbe:	48 89 7d f8          	mov    QWORD PTR [rbp-0x8],rdi
    8cc2:	48 89 75 f0          	mov    QWORD PTR [rbp-0x10],rsi
    8cc6:	90                   	nop
    8cc7:	5d                   	pop    rbp
    8cc8:	c3                   	ret    
    8cc9:	90                   	nop
    8cca:	55                   	push   rbp
    8ccb:	48 89 e5             	mov    rbp,rsp
    8cce:	48 83 ec 20          	sub    rsp,0x20
    8cd2:	48 89 7d f8          	mov    QWORD PTR [rbp-0x8],rdi
    8cd6:	48 89 75 f0          	mov    QWORD PTR [rbp-0x10],rsi
    8cda:	48 89 55 e8          	mov    QWORD PTR [rbp-0x18],rdx
    8cde:	48 8b 45 f0          	mov    rax,QWORD PTR [rbp-0x10]
    8ce2:	48 89 c7             	mov    rdi,rax
    8ce5:	e8 a6 9c ff ff       	call   2990 <_ZdlPv@plt>
    8cea:	90                   	nop
    8ceb:	c9                   	leave  
    8cec:	c3                   	ret    
    8ced:	90                   	nop
    8cee:	55                   	push   rbp
    8cef:	48 89 e5             	mov    rbp,rsp
    8cf2:	48 83 ec 20          	sub    rsp,0x20
    8cf6:	48 89 7d f8          	mov    QWORD PTR [rbp-0x8],rdi
    8cfa:	48 89 75 f0          	mov    QWORD PTR [rbp-0x10],rsi
    8cfe:	48 89 55 e8          	mov    QWORD PTR [rbp-0x18],rdx
    8d02:	48 8b 45 f8          	mov    rax,QWORD PTR [rbp-0x8]
    8d06:	48 89 c7             	mov    rdi,rax
    8d09:	e8 32 04 00 00       	call   9140 <__cxa_finalize@plt+0x6530>
    8d0e:	48 39 45 f0          	cmp    QWORD PTR [rbp-0x10],rax
    8d12:	0f 97 c0             	seta   al
    8d15:	84 c0                	test   al,al
    8d17:	74 05                	je     8d1e <__cxa_finalize@plt+0x610e>
    8d19:	e8 22 9b ff ff       	call   2840 <_ZSt17__throw_bad_allocv@plt>
    8d1e:	48 8b 55 f0          	mov    rdx,QWORD PTR [rbp-0x10]
    8d22:	48 89 d0             	mov    rax,rdx
    8d25:	48 c1 e0 02          	shl    rax,0x2
    8d29:	48 01 d0             	add    rax,rdx
    8d2c:	48 c1 e0 03          	shl    rax,0x3
    8d30:	48 89 c7             	mov    rdi,rax
    8d33:	e8 68 9c ff ff       	call   29a0 <_Znwm@plt>
    8d38:	c9                   	leave  
    8d39:	c3                   	ret    
    8d3a:	55                   	push   rbp
    8d3b:	48 89 e5             	mov    rbp,rsp
    8d3e:	41 55                	push   r13
    8d40:	41 54                	push   r12
    8d42:	53                   	push   rbx
    8d43:	48 83 ec 58          	sub    rsp,0x58
    8d47:	48 89 7d b8          	mov    QWORD PTR [rbp-0x48],rdi
    8d4b:	48 89 75 b0          	mov    QWORD PTR [rbp-0x50],rsi
    8d4f:	48 89 55 a8          	mov    QWORD PTR [rbp-0x58],rdx
    8d53:	48 89 4d a0          	mov    QWORD PTR [rbp-0x60],rcx
    8d57:	4c 89 45 98          	mov    QWORD PTR [rbp-0x68],r8
    8d5b:	64 48 8b 04 25 28 00 	mov    rax,QWORD PTR fs:0x28
    8d62:	00 00 
    8d64:	48 89 45 d8          	mov    QWORD PTR [rbp-0x28],rax
    8d68:	31 c0                	xor    eax,eax
    8d6a:	48 8b 45 a8          	mov    rax,QWORD PTR [rbp-0x58]
    8d6e:	48 89 c7             	mov    rdi,rax
    8d71:	e8 28 d7 ff ff       	call   649e <__cxa_finalize@plt+0x388e>
    8d76:	48 8b 45 a0          	mov    rax,QWORD PTR [rbp-0x60]
    8d7a:	48 89 c7             	mov    rdi,rax
    8d7d:	e8 2a d7 ff ff       	call   64ac <__cxa_finalize@plt+0x389c>
    8d82:	48 89 c2             	mov    rdx,rax
    8d85:	48 8d 45 d0          	lea    rax,[rbp-0x30]
    8d89:	48 89 d6             	mov    rsi,rdx
    8d8c:	48 89 c7             	mov    rdi,rax
    8d8f:	e8 c6 ce ff ff       	call   5c5a <__cxa_finalize@plt+0x304a>
    8d94:	4c 8d 6d d0          	lea    r13,[rbp-0x30]
    8d98:	48 8b 45 98          	mov    rax,QWORD PTR [rbp-0x68]
    8d9c:	48 89 c7             	mov    rdi,rax
    8d9f:	e8 16 d7 ff ff       	call   64ba <__cxa_finalize@plt+0x38aa>
    8da4:	4c 8b 65 b0          	mov    r12,QWORD PTR [rbp-0x50]
    8da8:	4c 89 e6             	mov    rsi,r12
    8dab:	bf 08 00 00 00       	mov    edi,0x8
    8db0:	e8 52 ca ff ff       	call   5807 <__cxa_finalize@plt+0x2bf7>
    8db5:	48 89 c3             	mov    rbx,rax
    8db8:	48 85 db             	test   rbx,rbx
    8dbb:	74 34                	je     8df1 <__cxa_finalize@plt+0x61e1>
    8dbd:	0f b6 45 cf          	movzx  eax,BYTE PTR [rbp-0x31]
    8dc1:	50                   	push   rax
    8dc2:	0f b6 45 ce          	movzx  eax,BYTE PTR [rbp-0x32]
    8dc6:	50                   	push   rax
    8dc7:	4c 89 ee             	mov    rsi,r13
    8dca:	48 89 df             	mov    rdi,rbx
    8dcd:	e8 82 03 00 00       	call   9154 <__cxa_finalize@plt+0x6544>
    8dd2:	48 83 c4 10          	add    rsp,0x10
    8dd6:	eb 19                	jmp    8df1 <__cxa_finalize@plt+0x61e1>
    8dd8:	49 89 c5             	mov    r13,rax
    8ddb:	4c 89 e6             	mov    rsi,r12
    8dde:	48 89 df             	mov    rdi,rbx
    8de1:	e8 33 ca ff ff       	call   5819 <__cxa_finalize@plt+0x2c09>
    8de6:	4c 89 e8             	mov    rax,r13
    8de9:	48 89 c7             	mov    rdi,rax
    8dec:	e8 9f 9d ff ff       	call   2b90 <_Unwind_Resume@plt>
    8df1:	90                   	nop
    8df2:	48 8b 45 d8          	mov    rax,QWORD PTR [rbp-0x28]
    8df6:	64 48 33 04 25 28 00 	xor    rax,QWORD PTR fs:0x28
    8dfd:	00 00 
    8dff:	74 05                	je     8e06 <__cxa_finalize@plt+0x61f6>
    8e01:	e8 fa 9b ff ff       	call   2a00 <__stack_chk_fail@plt>
    8e06:	48 8d 65 e8          	lea    rsp,[rbp-0x18]
    8e0a:	5b                   	pop    rbx
    8e0b:	41 5c                	pop    r12
    8e0d:	41 5d                	pop    r13
    8e0f:	5d                   	pop    rbp
    8e10:	c3                   	ret    
    8e11:	90                   	nop
    8e12:	55                   	push   rbp
    8e13:	48 89 e5             	mov    rbp,rsp
    8e16:	48 83 ec 10          	sub    rsp,0x10
    8e1a:	48 89 7d f8          	mov    QWORD PTR [rbp-0x8],rdi
    8e1e:	48 8b 45 f8          	mov    rax,QWORD PTR [rbp-0x8]
    8e22:	48 89 c7             	mov    rdi,rax
    8e25:	e8 80 03 00 00       	call   91aa <__cxa_finalize@plt+0x659a>
    8e2a:	c9                   	leave  
    8e2b:	c3                   	ret    
    8e2c:	55                   	push   rbp
    8e2d:	48 89 e5             	mov    rbp,rsp
    8e30:	48 83 ec 20          	sub    rsp,0x20
    8e34:	48 89 7d f8          	mov    QWORD PTR [rbp-0x8],rdi
    8e38:	48 89 75 f0          	mov    QWORD PTR [rbp-0x10],rsi
    8e3c:	48 89 55 e8          	mov    QWORD PTR [rbp-0x18],rdx
    8e40:	48 8b 45 f8          	mov    rax,QWORD PTR [rbp-0x8]
    8e44:	48 89 c7             	mov    rdi,rax
    8e47:	e8 6c 03 00 00       	call   91b8 <__cxa_finalize@plt+0x65a8>
    8e4c:	48 39 45 f0          	cmp    QWORD PTR [rbp-0x10],rax
    8e50:	0f 97 c0             	seta   al
    8e53:	84 c0                	test   al,al
    8e55:	74 05                	je     8e5c <__cxa_finalize@plt+0x624c>
    8e57:	e8 e4 99 ff ff       	call   2840 <_ZSt17__throw_bad_allocv@plt>
    8e5c:	48 8b 55 f0          	mov    rdx,QWORD PTR [rbp-0x10]
    8e60:	48 89 d0             	mov    rax,rdx
    8e63:	48 c1 e0 02          	shl    rax,0x2
    8e67:	48 01 d0             	add    rax,rdx
    8e6a:	48 c1 e0 03          	shl    rax,0x3
    8e6e:	48 89 c7             	mov    rdi,rax
    8e71:	e8 2a 9b ff ff       	call   29a0 <_Znwm@plt>
    8e76:	c9                   	leave  
    8e77:	c3                   	ret    
    8e78:	55                   	push   rbp
    8e79:	48 89 e5             	mov    rbp,rsp
    8e7c:	41 55                	push   r13
    8e7e:	41 54                	push   r12
    8e80:	53                   	push   rbx
    8e81:	48 83 ec 58          	sub    rsp,0x58
    8e85:	48 89 7d b8          	mov    QWORD PTR [rbp-0x48],rdi
    8e89:	48 89 75 b0          	mov    QWORD PTR [rbp-0x50],rsi
    8e8d:	48 89 55 a8          	mov    QWORD PTR [rbp-0x58],rdx
    8e91:	48 89 4d a0          	mov    QWORD PTR [rbp-0x60],rcx
    8e95:	4c 89 45 98          	mov    QWORD PTR [rbp-0x68],r8
    8e99:	64 48 8b 04 25 28 00 	mov    rax,QWORD PTR fs:0x28
    8ea0:	00 00 
    8ea2:	48 89 45 d8          	mov    QWORD PTR [rbp-0x28],rax
    8ea6:	31 c0                	xor    eax,eax
    8ea8:	48 8b 45 a8          	mov    rax,QWORD PTR [rbp-0x58]
    8eac:	48 89 c7             	mov    rdi,rax
    8eaf:	e8 ea d5 ff ff       	call   649e <__cxa_finalize@plt+0x388e>
    8eb4:	48 8b 45 a0          	mov    rax,QWORD PTR [rbp-0x60]
    8eb8:	48 89 c7             	mov    rdi,rax
    8ebb:	e8 ec d5 ff ff       	call   64ac <__cxa_finalize@plt+0x389c>
    8ec0:	48 89 c2             	mov    rdx,rax
    8ec3:	48 8d 45 d0          	lea    rax,[rbp-0x30]
    8ec7:	48 89 d6             	mov    rsi,rdx
    8eca:	48 89 c7             	mov    rdi,rax
    8ecd:	e8 88 cd ff ff       	call   5c5a <__cxa_finalize@plt+0x304a>
    8ed2:	4c 8d 6d d0          	lea    r13,[rbp-0x30]
    8ed6:	48 8b 45 98          	mov    rax,QWORD PTR [rbp-0x68]
    8eda:	48 89 c7             	mov    rdi,rax
    8edd:	e8 d8 d5 ff ff       	call   64ba <__cxa_finalize@plt+0x38aa>
    8ee2:	4c 8b 65 b0          	mov    r12,QWORD PTR [rbp-0x50]
    8ee6:	4c 89 e6             	mov    rsi,r12
    8ee9:	bf 08 00 00 00       	mov    edi,0x8
    8eee:	e8 14 c9 ff ff       	call   5807 <__cxa_finalize@plt+0x2bf7>
    8ef3:	48 89 c3             	mov    rbx,rax
    8ef6:	48 85 db             	test   rbx,rbx
    8ef9:	74 34                	je     8f2f <__cxa_finalize@plt+0x631f>
    8efb:	0f b6 45 cf          	movzx  eax,BYTE PTR [rbp-0x31]
    8eff:	50                   	push   rax
    8f00:	0f b6 45 ce          	movzx  eax,BYTE PTR [rbp-0x32]
    8f04:	50                   	push   rax
    8f05:	4c 89 ee             	mov    rsi,r13
    8f08:	48 89 df             	mov    rdi,rbx
    8f0b:	e8 bc 02 00 00       	call   91cc <__cxa_finalize@plt+0x65bc>
    8f10:	48 83 c4 10          	add    rsp,0x10
    8f14:	eb 19                	jmp    8f2f <__cxa_finalize@plt+0x631f>
    8f16:	49 89 c5             	mov    r13,rax
    8f19:	4c 89 e6             	mov    rsi,r12
    8f1c:	48 89 df             	mov    rdi,rbx
    8f1f:	e8 f5 c8 ff ff       	call   5819 <__cxa_finalize@plt+0x2c09>
    8f24:	4c 89 e8             	mov    rax,r13
    8f27:	48 89 c7             	mov    rdi,rax
    8f2a:	e8 61 9c ff ff       	call   2b90 <_Unwind_Resume@plt>
    8f2f:	90                   	nop
    8f30:	48 8b 45 d8          	mov    rax,QWORD PTR [rbp-0x28]
    8f34:	64 48 33 04 25 28 00 	xor    rax,QWORD PTR fs:0x28
    8f3b:	00 00 
    8f3d:	74 05                	je     8f44 <__cxa_finalize@plt+0x6334>
    8f3f:	e8 bc 9a ff ff       	call   2a00 <__stack_chk_fail@plt>
    8f44:	48 8d 65 e8          	lea    rsp,[rbp-0x18]
    8f48:	5b                   	pop    rbx
    8f49:	41 5c                	pop    r12
    8f4b:	41 5d                	pop    r13
    8f4d:	5d                   	pop    rbp
    8f4e:	c3                   	ret    
    8f4f:	90                   	nop
    8f50:	55                   	push   rbp
    8f51:	48 89 e5             	mov    rbp,rsp
    8f54:	48 83 ec 10          	sub    rsp,0x10
    8f58:	48 89 7d f8          	mov    QWORD PTR [rbp-0x8],rdi
    8f5c:	48 8b 45 f8          	mov    rax,QWORD PTR [rbp-0x8]
    8f60:	48 89 c7             	mov    rdi,rax
    8f63:	e8 ba 02 00 00       	call   9222 <__cxa_finalize@plt+0x6612>
    8f68:	c9                   	leave  
    8f69:	c3                   	ret    
    8f6a:	55                   	push   rbp
    8f6b:	48 89 e5             	mov    rbp,rsp
    8f6e:	48 83 ec 10          	sub    rsp,0x10
    8f72:	48 89 7d f8          	mov    QWORD PTR [rbp-0x8],rdi
    8f76:	48 89 75 f0          	mov    QWORD PTR [rbp-0x10],rsi
    8f7a:	48 8b 45 f8          	mov    rax,QWORD PTR [rbp-0x8]
    8f7e:	48 8b 55 f0          	mov    rdx,QWORD PTR [rbp-0x10]
    8f82:	48 89 d6             	mov    rsi,rdx
    8f85:	48 89 c7             	mov    rdi,rax
    8f88:	e8 dd 02 00 00       	call   926a <__cxa_finalize@plt+0x665a>
    8f8d:	90                   	nop
    8f8e:	c9                   	leave  
    8f8f:	c3                   	ret    
    8f90:	55                   	push   rbp
    8f91:	48 89 e5             	mov    rbp,rsp
    8f94:	41 55                	push   r13
    8f96:	41 54                	push   r12
    8f98:	53                   	push   rbx
    8f99:	48 83 ec 58          	sub    rsp,0x58
    8f9d:	48 89 7d b8          	mov    QWORD PTR [rbp-0x48],rdi
    8fa1:	48 89 75 b0          	mov    QWORD PTR [rbp-0x50],rsi
    8fa5:	48 89 55 a8          	mov    QWORD PTR [rbp-0x58],rdx
    8fa9:	48 89 4d a0          	mov    QWORD PTR [rbp-0x60],rcx
    8fad:	4c 89 45 98          	mov    QWORD PTR [rbp-0x68],r8
    8fb1:	64 48 8b 04 25 28 00 	mov    rax,QWORD PTR fs:0x28
    8fb8:	00 00 
    8fba:	48 89 45 d8          	mov    QWORD PTR [rbp-0x28],rax
    8fbe:	31 c0                	xor    eax,eax
    8fc0:	48 8b 45 a8          	mov    rax,QWORD PTR [rbp-0x58]
    8fc4:	48 89 c7             	mov    rdi,rax
    8fc7:	e8 d2 d4 ff ff       	call   649e <__cxa_finalize@plt+0x388e>
    8fcc:	48 8b 45 a0          	mov    rax,QWORD PTR [rbp-0x60]
    8fd0:	48 89 c7             	mov    rdi,rax
    8fd3:	e8 64 d9 ff ff       	call   693c <__cxa_finalize@plt+0x3d2c>
    8fd8:	48 89 c2             	mov    rdx,rax
    8fdb:	48 8d 45 d0          	lea    rax,[rbp-0x30]
    8fdf:	48 89 d6             	mov    rsi,rdx
    8fe2:	48 89 c7             	mov    rdi,rax
    8fe5:	e8 80 ff ff ff       	call   8f6a <__cxa_finalize@plt+0x635a>
    8fea:	4c 8d 6d d0          	lea    r13,[rbp-0x30]
    8fee:	48 8b 45 98          	mov    rax,QWORD PTR [rbp-0x68]
    8ff2:	48 89 c7             	mov    rdi,rax
    8ff5:	e8 c0 d4 ff ff       	call   64ba <__cxa_finalize@plt+0x38aa>
    8ffa:	4c 8b 65 b0          	mov    r12,QWORD PTR [rbp-0x50]
    8ffe:	4c 89 e6             	mov    rsi,r12
    9001:	bf 08 00 00 00       	mov    edi,0x8
    9006:	e8 fc c7 ff ff       	call   5807 <__cxa_finalize@plt+0x2bf7>
    900b:	48 89 c3             	mov    rbx,rax
    900e:	48 85 db             	test   rbx,rbx
    9011:	74 34                	je     9047 <__cxa_finalize@plt+0x6437>
    9013:	0f b6 45 cf          	movzx  eax,BYTE PTR [rbp-0x31]
    9017:	50                   	push   rax
    9018:	0f b6 45 ce          	movzx  eax,BYTE PTR [rbp-0x32]
    901c:	50                   	push   rax
    901d:	4c 89 ee             	mov    rsi,r13
    9020:	48 89 df             	mov    rdi,rbx
    9023:	e8 7e 02 00 00       	call   92a6 <__cxa_finalize@plt+0x6696>
    9028:	48 83 c4 10          	add    rsp,0x10
    902c:	eb 19                	jmp    9047 <__cxa_finalize@plt+0x6437>
    902e:	49 89 c5             	mov    r13,rax
    9031:	4c 89 e6             	mov    rsi,r12
    9034:	48 89 df             	mov    rdi,rbx
    9037:	e8 dd c7 ff ff       	call   5819 <__cxa_finalize@plt+0x2c09>
    903c:	4c 89 e8             	mov    rax,r13
    903f:	48 89 c7             	mov    rdi,rax
    9042:	e8 49 9b ff ff       	call   2b90 <_Unwind_Resume@plt>
    9047:	90                   	nop
    9048:	48 8b 45 d8          	mov    rax,QWORD PTR [rbp-0x28]
    904c:	64 48 33 04 25 28 00 	xor    rax,QWORD PTR fs:0x28
    9053:	00 00 
    9055:	74 05                	je     905c <__cxa_finalize@plt+0x644c>
    9057:	e8 a4 99 ff ff       	call   2a00 <__stack_chk_fail@plt>
    905c:	48 8d 65 e8          	lea    rsp,[rbp-0x18]
    9060:	5b                   	pop    rbx
    9061:	41 5c                	pop    r12
    9063:	41 5d                	pop    r13
    9065:	5d                   	pop    rbp
    9066:	c3                   	ret    
    9067:	90                   	nop
    9068:	55                   	push   rbp
    9069:	48 89 e5             	mov    rbp,rsp
    906c:	41 55                	push   r13
    906e:	41 54                	push   r12
    9070:	53                   	push   rbx
    9071:	48 83 ec 58          	sub    rsp,0x58
    9075:	48 89 7d b8          	mov    QWORD PTR [rbp-0x48],rdi
    9079:	48 89 75 b0          	mov    QWORD PTR [rbp-0x50],rsi
    907d:	48 89 55 a8          	mov    QWORD PTR [rbp-0x58],rdx
    9081:	48 89 4d a0          	mov    QWORD PTR [rbp-0x60],rcx
    9085:	4c 89 45 98          	mov    QWORD PTR [rbp-0x68],r8
    9089:	64 48 8b 04 25 28 00 	mov    rax,QWORD PTR fs:0x28
    9090:	00 00 
    9092:	48 89 45 d8          	mov    QWORD PTR [rbp-0x28],rax
    9096:	31 c0                	xor    eax,eax
    9098:	48 8b 45 a8          	mov    rax,QWORD PTR [rbp-0x58]
    909c:	48 89 c7             	mov    rdi,rax
    909f:	e8 fa d3 ff ff       	call   649e <__cxa_finalize@plt+0x388e>
    90a4:	48 8b 45 a0          	mov    rax,QWORD PTR [rbp-0x60]
    90a8:	48 89 c7             	mov    rdi,rax
    90ab:	e8 8c d8 ff ff       	call   693c <__cxa_finalize@plt+0x3d2c>
    90b0:	48 89 c2             	mov    rdx,rax
    90b3:	48 8d 45 d0          	lea    rax,[rbp-0x30]
    90b7:	48 89 d6             	mov    rsi,rdx
    90ba:	48 89 c7             	mov    rdi,rax
    90bd:	e8 a8 fe ff ff       	call   8f6a <__cxa_finalize@plt+0x635a>
    90c2:	4c 8d 6d d0          	lea    r13,[rbp-0x30]
    90c6:	48 8b 45 98          	mov    rax,QWORD PTR [rbp-0x68]
    90ca:	48 89 c7             	mov    rdi,rax
    90cd:	e8 e8 d3 ff ff       	call   64ba <__cxa_finalize@plt+0x38aa>
    90d2:	4c 8b 65 b0          	mov    r12,QWORD PTR [rbp-0x50]
    90d6:	4c 89 e6             	mov    rsi,r12
    90d9:	bf 08 00 00 00       	mov    edi,0x8
    90de:	e8 24 c7 ff ff       	call   5807 <__cxa_finalize@plt+0x2bf7>
    90e3:	48 89 c3             	mov    rbx,rax
    90e6:	48 85 db             	test   rbx,rbx
    90e9:	74 34                	je     911f <__cxa_finalize@plt+0x650f>
    90eb:	0f b6 45 cf          	movzx  eax,BYTE PTR [rbp-0x31]
    90ef:	50                   	push   rax
    90f0:	0f b6 45 ce          	movzx  eax,BYTE PTR [rbp-0x32]
    90f4:	50                   	push   rax
    90f5:	4c 89 ee             	mov    rsi,r13
    90f8:	48 89 df             	mov    rdi,rbx
    90fb:	e8 fc 01 00 00       	call   92fc <__cxa_finalize@plt+0x66ec>
    9100:	48 83 c4 10          	add    rsp,0x10
    9104:	eb 19                	jmp    911f <__cxa_finalize@plt+0x650f>
    9106:	49 89 c5             	mov    r13,rax
    9109:	4c 89 e6             	mov    rsi,r12
    910c:	48 89 df             	mov    rdi,rbx
    910f:	e8 05 c7 ff ff       	call   5819 <__cxa_finalize@plt+0x2c09>
    9114:	4c 89 e8             	mov    rax,r13
    9117:	48 89 c7             	mov    rdi,rax
    911a:	e8 71 9a ff ff       	call   2b90 <_Unwind_Resume@plt>
    911f:	90                   	nop
    9120:	48 8b 45 d8          	mov    rax,QWORD PTR [rbp-0x28]
    9124:	64 48 33 04 25 28 00 	xor    rax,QWORD PTR fs:0x28
    912b:	00 00 
    912d:	74 05                	je     9134 <__cxa_finalize@plt+0x6524>
    912f:	e8 cc 98 ff ff       	call   2a00 <__stack_chk_fail@plt>
    9134:	48 8d 65 e8          	lea    rsp,[rbp-0x18]
    9138:	5b                   	pop    rbx
    9139:	41 5c                	pop    r12
    913b:	41 5d                	pop    r13
    913d:	5d                   	pop    rbp
    913e:	c3                   	ret    
    913f:	90                   	nop
    9140:	55                   	push   rbp
    9141:	48 89 e5             	mov    rbp,rsp
    9144:	48 89 7d f8          	mov    QWORD PTR [rbp-0x8],rdi
    9148:	48 b8 66 66 66 66 66 	movabs rax,0x666666666666666
    914f:	66 66 06 
    9152:	5d                   	pop    rbp
    9153:	c3                   	ret    
    9154:	55                   	push   rbp
    9155:	48 89 e5             	mov    rbp,rsp
    9158:	48 83 ec 20          	sub    rsp,0x20
    915c:	48 89 7d e8          	mov    QWORD PTR [rbp-0x18],rdi
    9160:	48 89 75 e0          	mov    QWORD PTR [rbp-0x20],rsi
    9164:	64 48 8b 04 25 28 00 	mov    rax,QWORD PTR fs:0x28
    916b:	00 00 
    916d:	48 89 45 f8          	mov    QWORD PTR [rbp-0x8],rax
    9171:	31 c0                	xor    eax,eax
    9173:	48 8d 55 18          	lea    rdx,[rbp+0x18]
    9177:	48 8b 4d e0          	mov    rcx,QWORD PTR [rbp-0x20]
    917b:	48 8b 45 e8          	mov    rax,QWORD PTR [rbp-0x18]
    917f:	41 51                	push   r9
    9181:	41 50                	push   r8
    9183:	48 89 ce             	mov    rsi,rcx
    9186:	48 89 c7             	mov    rdi,rax
    9189:	e8 f8 01 00 00       	call   9386 <__cxa_finalize@plt+0x6776>
    918e:	48 83 c4 10          	add    rsp,0x10
    9192:	90                   	nop
    9193:	48 8b 45 f8          	mov    rax,QWORD PTR [rbp-0x8]
    9197:	64 48 33 04 25 28 00 	xor    rax,QWORD PTR fs:0x28
    919e:	00 00 
    91a0:	74 05                	je     91a7 <__cxa_finalize@plt+0x6597>
    91a2:	e8 59 98 ff ff       	call   2a00 <__stack_chk_fail@plt>
    91a7:	c9                   	leave  
    91a8:	c3                   	ret    
    91a9:	90                   	nop
    91aa:	55                   	push   rbp
    91ab:	48 89 e5             	mov    rbp,rsp
    91ae:	48 89 7d f8          	mov    QWORD PTR [rbp-0x8],rdi
    91b2:	48 8b 45 f8          	mov    rax,QWORD PTR [rbp-0x8]
    91b6:	5d                   	pop    rbp
    91b7:	c3                   	ret    
    91b8:	55                   	push   rbp
    91b9:	48 89 e5             	mov    rbp,rsp
    91bc:	48 89 7d f8          	mov    QWORD PTR [rbp-0x8],rdi
    91c0:	48 b8 66 66 66 66 66 	movabs rax,0x666666666666666
    91c7:	66 66 06 
    91ca:	5d                   	pop    rbp
    91cb:	c3                   	ret    
    91cc:	55                   	push   rbp
    91cd:	48 89 e5             	mov    rbp,rsp
    91d0:	48 83 ec 20          	sub    rsp,0x20
    91d4:	48 89 7d e8          	mov    QWORD PTR [rbp-0x18],rdi
    91d8:	48 89 75 e0          	mov    QWORD PTR [rbp-0x20],rsi
    91dc:	64 48 8b 04 25 28 00 	mov    rax,QWORD PTR fs:0x28
    91e3:	00 00 
    91e5:	48 89 45 f8          	mov    QWORD PTR [rbp-0x8],rax
    91e9:	31 c0                	xor    eax,eax
    91eb:	48 8d 55 18          	lea    rdx,[rbp+0x18]
    91ef:	48 8b 4d e0          	mov    rcx,QWORD PTR [rbp-0x20]
    91f3:	48 8b 45 e8          	mov    rax,QWORD PTR [rbp-0x18]
    91f7:	41 51                	push   r9
    91f9:	41 50                	push   r8
    91fb:	48 89 ce             	mov    rsi,rcx
    91fe:	48 89 c7             	mov    rdi,rax
    9201:	e8 be 01 00 00       	call   93c4 <__cxa_finalize@plt+0x67b4>
    9206:	48 83 c4 10          	add    rsp,0x10
    920a:	90                   	nop
    920b:	48 8b 45 f8          	mov    rax,QWORD PTR [rbp-0x8]
    920f:	64 48 33 04 25 28 00 	xor    rax,QWORD PTR fs:0x28
    9216:	00 00 
    9218:	74 05                	je     921f <__cxa_finalize@plt+0x660f>
    921a:	e8 e1 97 ff ff       	call   2a00 <__stack_chk_fail@plt>
    921f:	c9                   	leave  
    9220:	c3                   	ret    
    9221:	90                   	nop
    9222:	55                   	push   rbp
    9223:	48 89 e5             	mov    rbp,rsp
    9226:	48 89 7d f8          	mov    QWORD PTR [rbp-0x8],rdi
    922a:	48 8b 45 f8          	mov    rax,QWORD PTR [rbp-0x8]
    922e:	5d                   	pop    rbp
    922f:	c3                   	ret    
    9230:	55                   	push   rbp
    9231:	48 89 e5             	mov    rbp,rsp
    9234:	48 83 ec 10          	sub    rsp,0x10
    9238:	48 89 7d f8          	mov    QWORD PTR [rbp-0x8],rdi
    923c:	48 8b 45 f8          	mov    rax,QWORD PTR [rbp-0x8]
    9240:	48 89 c7             	mov    rdi,rax
    9243:	e8 02 00 00 00       	call   924a <__cxa_finalize@plt+0x663a>
    9248:	c9                   	leave  
    9249:	c3                   	ret    
    924a:	55                   	push   rbp
    924b:	48 89 e5             	mov    rbp,rsp
    924e:	48 89 7d f8          	mov    QWORD PTR [rbp-0x8],rdi
    9252:	48 8b 45 f8          	mov    rax,QWORD PTR [rbp-0x8]
    9256:	48 8b 00             	mov    rax,QWORD PTR [rax]
    9259:	5d                   	pop    rbp
    925a:	c3                   	ret    
    925b:	55                   	push   rbp
    925c:	48 89 e5             	mov    rbp,rsp
    925f:	48 89 7d f8          	mov    QWORD PTR [rbp-0x8],rdi
    9263:	48 8b 45 f8          	mov    rax,QWORD PTR [rbp-0x8]
    9267:	5d                   	pop    rbp
    9268:	c3                   	ret    
    9269:	90                   	nop
    926a:	55                   	push   rbp
    926b:	48 89 e5             	mov    rbp,rsp
    926e:	53                   	push   rbx
    926f:	48 83 ec 18          	sub    rsp,0x18
    9273:	48 89 7d e8          	mov    QWORD PTR [rbp-0x18],rdi
    9277:	48 89 75 e0          	mov    QWORD PTR [rbp-0x20],rsi
    927b:	48 8b 5d e8          	mov    rbx,QWORD PTR [rbp-0x18]
    927f:	48 8b 45 e0          	mov    rax,QWORD PTR [rbp-0x20]
    9283:	48 89 c7             	mov    rdi,rax
    9286:	e8 a5 ff ff ff       	call   9230 <__cxa_finalize@plt+0x6620>
    928b:	48 89 c7             	mov    rdi,rax
    928e:	e8 c8 ff ff ff       	call   925b <__cxa_finalize@plt+0x664b>
    9293:	48 89 c6             	mov    rsi,rax
    9296:	48 89 df             	mov    rdi,rbx
    9299:	e8 32 cd ff ff       	call   5fd0 <__cxa_finalize@plt+0x33c0>
    929e:	90                   	nop
    929f:	48 83 c4 18          	add    rsp,0x18
    92a3:	5b                   	pop    rbx
    92a4:	5d                   	pop    rbp
    92a5:	c3                   	ret    
    92a6:	55                   	push   rbp
    92a7:	48 89 e5             	mov    rbp,rsp
    92aa:	48 83 ec 20          	sub    rsp,0x20
    92ae:	48 89 7d e8          	mov    QWORD PTR [rbp-0x18],rdi
    92b2:	48 89 75 e0          	mov    QWORD PTR [rbp-0x20],rsi
    92b6:	64 48 8b 04 25 28 00 	mov    rax,QWORD PTR fs:0x28
    92bd:	00 00 
    92bf:	48 89 45 f8          	mov    QWORD PTR [rbp-0x8],rax
    92c3:	31 c0                	xor    eax,eax
    92c5:	48 8d 55 18          	lea    rdx,[rbp+0x18]
    92c9:	48 8b 4d e0          	mov    rcx,QWORD PTR [rbp-0x20]
    92cd:	48 8b 45 e8          	mov    rax,QWORD PTR [rbp-0x18]
    92d1:	41 51                	push   r9
    92d3:	41 50                	push   r8
    92d5:	48 89 ce             	mov    rsi,rcx
    92d8:	48 89 c7             	mov    rdi,rax
    92db:	e8 56 01 00 00       	call   9436 <__cxa_finalize@plt+0x6826>
    92e0:	48 83 c4 10          	add    rsp,0x10
    92e4:	90                   	nop
    92e5:	48 8b 45 f8          	mov    rax,QWORD PTR [rbp-0x8]
    92e9:	64 48 33 04 25 28 00 	xor    rax,QWORD PTR fs:0x28
    92f0:	00 00 
    92f2:	74 05                	je     92f9 <__cxa_finalize@plt+0x66e9>
    92f4:	e8 07 97 ff ff       	call   2a00 <__stack_chk_fail@plt>
    92f9:	c9                   	leave  
    92fa:	c3                   	ret    
    92fb:	90                   	nop
    92fc:	55                   	push   rbp
    92fd:	48 89 e5             	mov    rbp,rsp
    9300:	48 83 ec 20          	sub    rsp,0x20
    9304:	48 89 7d e8          	mov    QWORD PTR [rbp-0x18],rdi
    9308:	48 89 75 e0          	mov    QWORD PTR [rbp-0x20],rsi
    930c:	64 48 8b 04 25 28 00 	mov    rax,QWORD PTR fs:0x28
    9313:	00 00 
    9315:	48 89 45 f8          	mov    QWORD PTR [rbp-0x8],rax
    9319:	31 c0                	xor    eax,eax
    931b:	48 8d 55 18          	lea    rdx,[rbp+0x18]
    931f:	48 8b 4d e0          	mov    rcx,QWORD PTR [rbp-0x20]
    9323:	48 8b 45 e8          	mov    rax,QWORD PTR [rbp-0x18]
    9327:	41 51                	push   r9
    9329:	41 50                	push   r8
    932b:	48 89 ce             	mov    rsi,rcx
    932e:	48 89 c7             	mov    rdi,rax
    9331:	e8 3e 01 00 00       	call   9474 <__cxa_finalize@plt+0x6864>
    9336:	48 83 c4 10          	add    rsp,0x10
    933a:	90                   	nop
    933b:	48 8b 45 f8          	mov    rax,QWORD PTR [rbp-0x8]
    933f:	64 48 33 04 25 28 00 	xor    rax,QWORD PTR fs:0x28
    9346:	00 00 
    9348:	74 05                	je     934f <__cxa_finalize@plt+0x673f>
    934a:	e8 b1 96 ff ff       	call   2a00 <__stack_chk_fail@plt>
    934f:	c9                   	leave  
    9350:	c3                   	ret    
    9351:	55                   	push   rbp
    9352:	48 89 e5             	mov    rbp,rsp
    9355:	48 83 ec 10          	sub    rsp,0x10
    9359:	48 89 7d f8          	mov    QWORD PTR [rbp-0x8],rdi
    935d:	48 8b 45 f8          	mov    rax,QWORD PTR [rbp-0x8]
    9361:	48 89 c7             	mov    rdi,rax
    9364:	e8 02 00 00 00       	call   936b <__cxa_finalize@plt+0x675b>
    9369:	c9                   	leave  
    936a:	c3                   	ret    
    936b:	55                   	push   rbp
    936c:	48 89 e5             	mov    rbp,rsp
    936f:	48 83 ec 10          	sub    rsp,0x10
    9373:	48 89 7d f8          	mov    QWORD PTR [rbp-0x8],rdi
    9377:	48 8b 45 f8          	mov    rax,QWORD PTR [rbp-0x8]
    937b:	48 89 c7             	mov    rdi,rax
    937e:	e8 a6 d0 ff ff       	call   6429 <__cxa_finalize@plt+0x3819>
    9383:	c9                   	leave  
    9384:	c3                   	ret    
    9385:	90                   	nop
    9386:	55                   	push   rbp
    9387:	48 89 e5             	mov    rbp,rsp
    938a:	48 83 ec 20          	sub    rsp,0x20
    938e:	48 89 7d f8          	mov    QWORD PTR [rbp-0x8],rdi
    9392:	48 89 75 f0          	mov    QWORD PTR [rbp-0x10],rsi
    9396:	48 89 55 e8          	mov    QWORD PTR [rbp-0x18],rdx
    939a:	48 8b 45 f0          	mov    rax,QWORD PTR [rbp-0x10]
    939e:	48 89 c7             	mov    rdi,rax
    93a1:	e8 ab ff ff ff       	call   9351 <__cxa_finalize@plt+0x6741>
    93a6:	48 89 c7             	mov    rdi,rax
    93a9:	e8 a6 d0 ff ff       	call   6454 <__cxa_finalize@plt+0x3844>
    93ae:	8b 10                	mov    edx,DWORD PTR [rax]
    93b0:	48 8b 45 f8          	mov    rax,QWORD PTR [rbp-0x8]
    93b4:	89 10                	mov    DWORD PTR [rax],edx
    93b6:	48 8b 45 f8          	mov    rax,QWORD PTR [rbp-0x8]
    93ba:	c7 40 04 00 00 00 00 	mov    DWORD PTR [rax+0x4],0x0
    93c1:	90                   	nop
    93c2:	c9                   	leave  
    93c3:	c3                   	ret    
    93c4:	55                   	push   rbp
    93c5:	48 89 e5             	mov    rbp,rsp
    93c8:	48 83 ec 20          	sub    rsp,0x20
    93cc:	48 89 7d f8          	mov    QWORD PTR [rbp-0x8],rdi
    93d0:	48 89 75 f0          	mov    QWORD PTR [rbp-0x10],rsi
    93d4:	48 89 55 e8          	mov    QWORD PTR [rbp-0x18],rdx
    93d8:	48 8b 45 f0          	mov    rax,QWORD PTR [rbp-0x10]
    93dc:	48 89 c7             	mov    rdi,rax
    93df:	e8 6d ff ff ff       	call   9351 <__cxa_finalize@plt+0x6741>
    93e4:	48 89 c7             	mov    rdi,rax
    93e7:	e8 68 d0 ff ff       	call   6454 <__cxa_finalize@plt+0x3844>
    93ec:	8b 10                	mov    edx,DWORD PTR [rax]
    93ee:	48 8b 45 f8          	mov    rax,QWORD PTR [rbp-0x8]
    93f2:	89 10                	mov    DWORD PTR [rax],edx
    93f4:	48 8b 45 f8          	mov    rax,QWORD PTR [rbp-0x8]
    93f8:	c7 40 04 00 00 00 00 	mov    DWORD PTR [rax+0x4],0x0
    93ff:	90                   	nop
    9400:	c9                   	leave  
    9401:	c3                   	ret    
    9402:	55                   	push   rbp
    9403:	48 89 e5             	mov    rbp,rsp
    9406:	48 83 ec 10          	sub    rsp,0x10
    940a:	48 89 7d f8          	mov    QWORD PTR [rbp-0x8],rdi
    940e:	48 8b 45 f8          	mov    rax,QWORD PTR [rbp-0x8]
    9412:	48 89 c7             	mov    rdi,rax
    9415:	e8 02 00 00 00       	call   941c <__cxa_finalize@plt+0x680c>
    941a:	c9                   	leave  
    941b:	c3                   	ret    
    941c:	55                   	push   rbp
    941d:	48 89 e5             	mov    rbp,rsp
    9420:	48 83 ec 10          	sub    rsp,0x10
    9424:	48 89 7d f8          	mov    QWORD PTR [rbp-0x8],rdi
    9428:	48 8b 45 f8          	mov    rax,QWORD PTR [rbp-0x8]
    942c:	48 89 c7             	mov    rdi,rax
    942f:	e8 fc fd ff ff       	call   9230 <__cxa_finalize@plt+0x6620>
    9434:	c9                   	leave  
    9435:	c3                   	ret    
    9436:	55                   	push   rbp
    9437:	48 89 e5             	mov    rbp,rsp
    943a:	48 83 ec 20          	sub    rsp,0x20
    943e:	48 89 7d f8          	mov    QWORD PTR [rbp-0x8],rdi
    9442:	48 89 75 f0          	mov    QWORD PTR [rbp-0x10],rsi
    9446:	48 89 55 e8          	mov    QWORD PTR [rbp-0x18],rdx
    944a:	48 8b 45 f0          	mov    rax,QWORD PTR [rbp-0x10]
    944e:	48 89 c7             	mov    rdi,rax
    9451:	e8 ac ff ff ff       	call   9402 <__cxa_finalize@plt+0x67f2>
    9456:	48 89 c7             	mov    rdi,rax
    9459:	e8 fd fd ff ff       	call   925b <__cxa_finalize@plt+0x664b>
    945e:	8b 10                	mov    edx,DWORD PTR [rax]
    9460:	48 8b 45 f8          	mov    rax,QWORD PTR [rbp-0x8]
    9464:	89 10                	mov    DWORD PTR [rax],edx
    9466:	48 8b 45 f8          	mov    rax,QWORD PTR [rbp-0x8]
    946a:	c7 40 04 00 00 00 00 	mov    DWORD PTR [rax+0x4],0x0
    9471:	90                   	nop
    9472:	c9                   	leave  
    9473:	c3                   	ret    
    9474:	55                   	push   rbp
    9475:	48 89 e5             	mov    rbp,rsp
    9478:	48 83 ec 20          	sub    rsp,0x20
    947c:	48 89 7d f8          	mov    QWORD PTR [rbp-0x8],rdi
    9480:	48 89 75 f0          	mov    QWORD PTR [rbp-0x10],rsi
    9484:	48 89 55 e8          	mov    QWORD PTR [rbp-0x18],rdx
    9488:	48 8b 45 f0          	mov    rax,QWORD PTR [rbp-0x10]
    948c:	48 89 c7             	mov    rdi,rax
    948f:	e8 6e ff ff ff       	call   9402 <__cxa_finalize@plt+0x67f2>
    9494:	48 89 c7             	mov    rdi,rax
    9497:	e8 bf fd ff ff       	call   925b <__cxa_finalize@plt+0x664b>
    949c:	8b 10                	mov    edx,DWORD PTR [rax]
    949e:	48 8b 45 f8          	mov    rax,QWORD PTR [rbp-0x8]
    94a2:	89 10                	mov    DWORD PTR [rax],edx
    94a4:	48 8b 45 f8          	mov    rax,QWORD PTR [rbp-0x8]
    94a8:	c7 40 04 00 00 00 00 	mov    DWORD PTR [rax+0x4],0x0
    94af:	90                   	nop
    94b0:	c9                   	leave  
    94b1:	c3                   	ret    
    94b2:	55                   	push   rbp
    94b3:	48 89 e5             	mov    rbp,rsp
    94b6:	48 83 ec 10          	sub    rsp,0x10
    94ba:	48 89 7d f8          	mov    QWORD PTR [rbp-0x8],rdi
    94be:	48 8b 45 f8          	mov    rax,QWORD PTR [rbp-0x8]
    94c2:	48 89 c7             	mov    rdi,rax
    94c5:	e8 36 c6 ff ff       	call   5b00 <__cxa_finalize@plt+0x2ef0>
    94ca:	90                   	nop
    94cb:	c9                   	leave  
    94cc:	c3                   	ret    
    94cd:	90                   	nop
    94ce:	55                   	push   rbp
    94cf:	48 89 e5             	mov    rbp,rsp
    94d2:	48 83 ec 10          	sub    rsp,0x10
    94d6:	48 89 7d f8          	mov    QWORD PTR [rbp-0x8],rdi
    94da:	48 8b 45 f8          	mov    rax,QWORD PTR [rbp-0x8]
    94de:	48 89 c7             	mov    rdi,rax
    94e1:	e8 8c c6 ff ff       	call   5b72 <__cxa_finalize@plt+0x2f62>
    94e6:	90                   	nop
    94e7:	c9                   	leave  
    94e8:	c3                   	ret    
    94e9:	0f 1f 80 00 00 00 00 	nop    DWORD PTR [rax+0x0]
    94f0:	41 57                	push   r15
    94f2:	41 56                	push   r14
    94f4:	49 89 d7             	mov    r15,rdx
    94f7:	41 55                	push   r13
    94f9:	41 54                	push   r12
    94fb:	4c 8d 25 5e 45 20 00 	lea    r12,[rip+0x20455e]        # 20da60 <__cxa_finalize@plt+0x20ae50>
    9502:	55                   	push   rbp
    9503:	48 8d 2d 6e 45 20 00 	lea    rbp,[rip+0x20456e]        # 20da78 <__cxa_finalize@plt+0x20ae68>
    950a:	53                   	push   rbx
    950b:	41 89 fd             	mov    r13d,edi
    950e:	49 89 f6             	mov    r14,rsi
    9511:	4c 29 e5             	sub    rbp,r12
    9514:	48 83 ec 08          	sub    rsp,0x8
    9518:	48 c1 fd 03          	sar    rbp,0x3
    951c:	e8 17 92 ff ff       	call   2738 <_Znam@plt-0x28>
    9521:	48 85 ed             	test   rbp,rbp
    9524:	74 20                	je     9546 <__cxa_finalize@plt+0x6936>
    9526:	31 db                	xor    ebx,ebx
    9528:	0f 1f 84 00 00 00 00 	nop    DWORD PTR [rax+rax*1+0x0]
    952f:	00 
    9530:	4c 89 fa             	mov    rdx,r15
    9533:	4c 89 f6             	mov    rsi,r14
    9536:	44 89 ef             	mov    edi,r13d
    9539:	41 ff 14 dc          	call   QWORD PTR [r12+rbx*8]
    953d:	48 83 c3 01          	add    rbx,0x1
    9541:	48 39 dd             	cmp    rbp,rbx
    9544:	75 ea                	jne    9530 <__cxa_finalize@plt+0x6920>
    9546:	48 83 c4 08          	add    rsp,0x8
    954a:	5b                   	pop    rbx
    954b:	5d                   	pop    rbp
    954c:	41 5c                	pop    r12
    954e:	41 5d                	pop    r13
    9550:	41 5e                	pop    r14
    9552:	41 5f                	pop    r15
    9554:	c3                   	ret    
    9555:	90                   	nop
    9556:	66 2e 0f 1f 84 00 00 	nop    WORD PTR cs:[rax+rax*1+0x0]
    955d:	00 00 00 
    9560:	f3 c3                	repz ret 

Disassembly of section .fini:

0000000000009564 <.fini>:
    9564:	48 83 ec 08          	sub    rsp,0x8
    9568:	48 83 c4 08          	add    rsp,0x8
    956c:	c3                   	ret    
