
emojivm:     file format elf64-x86-64


Disassembly of section .init:

0000000000002738 <.init>:
    2738:	48 83 ec 08          	sub    rsp,0x8
    273c:	48 8b 05 a5 b8 20 00 	mov    rax,QWORD PTR [rip+0x20b8a5]        # 20dfe8 <__gmon_start__>
    2743:	48 85 c0             	test   rax,rax
    2746:	74 02                	je     274a <_Znam@plt-0x16>
    2748:	ff d0                	call   rax
    274a:	48 83 c4 08          	add    rsp,0x8
    274e:	c3                   	ret    

Disassembly of section .plt:

0000000000002750 <_Znam@plt-0x10>:
    2750:	ff 35 0a b6 20 00    	push   QWORD PTR [rip+0x20b60a]        # 20dd60 <_ZTVSt19__codecvt_utf8_baseIwE@@GLIBCXX_3.4.21+0x2e0>
    2756:	ff 25 0c b6 20 00    	jmp    QWORD PTR [rip+0x20b60c]        # 20dd68 <_ZTVSt19__codecvt_utf8_baseIwE@@GLIBCXX_3.4.21+0x2e8>
    275c:	0f 1f 40 00          	nop    DWORD PTR [rax+0x0]

0000000000002760 <_Znam@plt>:
    2760:	ff 25 0a b6 20 00    	jmp    QWORD PTR [rip+0x20b60a]        # 20dd70 <_Znam@GLIBCXX_3.4>
    2766:	68 00 00 00 00       	push   0x0
    276b:	e9 e0 ff ff ff       	jmp    2750 <_Znam@plt-0x10>

0000000000002770 <setvbuf@plt>:
    2770:	ff 25 02 b6 20 00    	jmp    QWORD PTR [rip+0x20b602]        # 20dd78 <setvbuf@GLIBC_2.2.5>
    2776:	68 01 00 00 00       	push   0x1
    277b:	e9 d0 ff ff ff       	jmp    2750 <_Znam@plt-0x10>

0000000000002780 <_ZNKSt7__cxx1112basic_stringIwSt11char_traitsIwESaIwEE13get_allocatorEv@plt>:
    2780:	ff 25 fa b5 20 00    	jmp    QWORD PTR [rip+0x20b5fa]        # 20dd80 <_ZNKSt7__cxx1112basic_stringIwSt11char_traitsIwESaIwEE13get_allocatorEv@GLIBCXX_3.4.21>
    2786:	68 02 00 00 00       	push   0x2
    278b:	e9 c0 ff ff ff       	jmp    2750 <_Znam@plt-0x10>

0000000000002790 <_ZSt29_Rb_tree_insert_and_rebalancebPSt18_Rb_tree_node_baseS0_RS_@plt>:
    2790:	ff 25 f2 b5 20 00    	jmp    QWORD PTR [rip+0x20b5f2]        # 20dd88 <_ZSt29_Rb_tree_insert_and_rebalancebPSt18_Rb_tree_node_baseS0_RS_@GLIBCXX_3.4>
    2796:	68 03 00 00 00       	push   0x3
    279b:	e9 b0 ff ff ff       	jmp    2750 <_Znam@plt-0x10>

00000000000027a0 <_ZStlsIwSt11char_traitsIwEERSt13basic_ostreamIT_T0_ES6_PKc@plt>:
    27a0:	ff 25 ea b5 20 00    	jmp    QWORD PTR [rip+0x20b5ea]        # 20dd90 <_ZStlsIwSt11char_traitsIwEERSt13basic_ostreamIT_T0_ES6_PKc@GLIBCXX_3.4>
    27a6:	68 04 00 00 00       	push   0x4
    27ab:	e9 a0 ff ff ff       	jmp    2750 <_Znam@plt-0x10>

00000000000027b0 <_ZNSolsEPSt15basic_streambufIcSt11char_traitsIcEE@plt>:
    27b0:	ff 25 e2 b5 20 00    	jmp    QWORD PTR [rip+0x20b5e2]        # 20dd98 <_ZNSolsEPSt15basic_streambufIcSt11char_traitsIcEE@GLIBCXX_3.4>
    27b6:	68 05 00 00 00       	push   0x5
    27bb:	e9 90 ff ff ff       	jmp    2750 <_Znam@plt-0x10>

00000000000027c0 <_ZNSt7codecvtIwc11__mbstate_tEC2Em@plt>:
    27c0:	ff 25 da b5 20 00    	jmp    QWORD PTR [rip+0x20b5da]        # 20dda0 <_ZNSt7codecvtIwc11__mbstate_tEC2Em@GLIBCXX_3.4>
    27c6:	68 06 00 00 00       	push   0x6
    27cb:	e9 80 ff ff ff       	jmp    2750 <_Znam@plt-0x10>

00000000000027d0 <_ZNSt7__cxx1112basic_stringIwSt11char_traitsIwESaIwEE7_M_dataEPw@plt>:
    27d0:	ff 25 d2 b5 20 00    	jmp    QWORD PTR [rip+0x20b5d2]        # 20dda8 <_ZNSt7__cxx1112basic_stringIwSt11char_traitsIwESaIwEE7_M_dataEPw@GLIBCXX_3.4.21>
    27d6:	68 07 00 00 00       	push   0x7
    27db:	e9 70 ff ff ff       	jmp    2750 <_Znam@plt-0x10>

00000000000027e0 <_ZNSt7__cxx1119basic_ostringstreamIcSt11char_traitsIcESaIcEED1Ev@plt>:
    27e0:	ff 25 ca b5 20 00    	jmp    QWORD PTR [rip+0x20b5ca]        # 20ddb0 <_ZNSt7__cxx1119basic_ostringstreamIcSt11char_traitsIcESaIcEED1Ev@GLIBCXX_3.4.21>
    27e6:	68 08 00 00 00       	push   0x8
    27eb:	e9 60 ff ff ff       	jmp    2750 <_Znam@plt-0x10>

00000000000027f0 <_ZNSt14basic_ifstreamIcSt11char_traitsIcEED1Ev@plt>:
    27f0:	ff 25 c2 b5 20 00    	jmp    QWORD PTR [rip+0x20b5c2]        # 20ddb8 <_ZNSt14basic_ifstreamIcSt11char_traitsIcEED1Ev@GLIBCXX_3.4>
    27f6:	68 09 00 00 00       	push   0x9
    27fb:	e9 50 ff ff ff       	jmp    2750 <_Znam@plt-0x10>

0000000000002800 <_ZNSt19__codecvt_utf8_baseIwED2Ev@plt>:
    2800:	ff 25 ba b5 20 00    	jmp    QWORD PTR [rip+0x20b5ba]        # 20ddc0 <_ZNSt19__codecvt_utf8_baseIwED2Ev@GLIBCXX_3.4.21>
    2806:	68 0a 00 00 00       	push   0xa
    280b:	e9 40 ff ff ff       	jmp    2750 <_Znam@plt-0x10>

0000000000002810 <_ZNSt7__cxx1112basic_stringIwSt11char_traitsIwESaIwEE4backEv@plt>:
    2810:	ff 25 b2 b5 20 00    	jmp    QWORD PTR [rip+0x20b5b2]        # 20ddc8 <_ZNSt7__cxx1112basic_stringIwSt11char_traitsIwESaIwEE4backEv@GLIBCXX_3.4.21>
    2816:	68 0b 00 00 00       	push   0xb
    281b:	e9 30 ff ff ff       	jmp    2750 <_Znam@plt-0x10>

0000000000002820 <write@plt>:
    2820:	ff 25 aa b5 20 00    	jmp    QWORD PTR [rip+0x20b5aa]        # 20ddd0 <write@GLIBC_2.2.5>
    2826:	68 0c 00 00 00       	push   0xc
    282b:	e9 20 ff ff ff       	jmp    2750 <_Znam@plt-0x10>

0000000000002830 <_ZNSt7__cxx1112basic_stringIwSt11char_traitsIwESaIwEE13_M_local_dataEv@plt>:
    2830:	ff 25 a2 b5 20 00    	jmp    QWORD PTR [rip+0x20b5a2]        # 20ddd8 <_ZNSt7__cxx1112basic_stringIwSt11char_traitsIwESaIwEE13_M_local_dataEv@GLIBCXX_3.4.21>
    2836:	68 0d 00 00 00       	push   0xd
    283b:	e9 10 ff ff ff       	jmp    2750 <_Znam@plt-0x10>

0000000000002840 <_ZSt17__throw_bad_allocv@plt>:
    2840:	ff 25 9a b5 20 00    	jmp    QWORD PTR [rip+0x20b59a]        # 20dde0 <_ZSt17__throw_bad_allocv@GLIBCXX_3.4>
    2846:	68 0e 00 00 00       	push   0xe
    284b:	e9 00 ff ff ff       	jmp    2750 <_Znam@plt-0x10>

0000000000002850 <__cxa_begin_catch@plt>:
    2850:	ff 25 92 b5 20 00    	jmp    QWORD PTR [rip+0x20b592]        # 20dde8 <__cxa_begin_catch@CXXABI_1.3>
    2856:	68 0f 00 00 00       	push   0xf
    285b:	e9 f0 fe ff ff       	jmp    2750 <_Znam@plt-0x10>

0000000000002860 <_ZNSt7__cxx1112basic_stringIwSt11char_traitsIwESaIwEE12_Alloc_hiderC1EPwRKS3_@plt>:
    2860:	ff 25 8a b5 20 00    	jmp    QWORD PTR [rip+0x20b58a]        # 20ddf0 <_ZNSt7__cxx1112basic_stringIwSt11char_traitsIwESaIwEE12_Alloc_hiderC1EPwRKS3_@GLIBCXX_3.4.21>
    2866:	68 10 00 00 00       	push   0x10
    286b:	e9 e0 fe ff ff       	jmp    2750 <_Znam@plt-0x10>

0000000000002870 <strlen@plt>:
    2870:	ff 25 82 b5 20 00    	jmp    QWORD PTR [rip+0x20b582]        # 20ddf8 <strlen@GLIBC_2.2.5>
    2876:	68 11 00 00 00       	push   0x11
    287b:	e9 d0 fe ff ff       	jmp    2750 <_Znam@plt-0x10>

0000000000002880 <_ZNSaIwEC1Ev@plt>:
    2880:	ff 25 7a b5 20 00    	jmp    QWORD PTR [rip+0x20b57a]        # 20de00 <_ZNSaIwEC1Ev@GLIBCXX_3.4>
    2886:	68 12 00 00 00       	push   0x12
    288b:	e9 c0 fe ff ff       	jmp    2750 <_Znam@plt-0x10>

0000000000002890 <_ZNKSt7__cxx1112basic_stringIwSt11char_traitsIwESaIwEE7_M_dataEv@plt>:
    2890:	ff 25 72 b5 20 00    	jmp    QWORD PTR [rip+0x20b572]        # 20de08 <_ZNKSt7__cxx1112basic_stringIwSt11char_traitsIwESaIwEE7_M_dataEv@GLIBCXX_3.4.21>
    2896:	68 13 00 00 00       	push   0x13
    289b:	e9 b0 fe ff ff       	jmp    2750 <_Znam@plt-0x10>

00000000000028a0 <_ZNSt7__cxx1112basic_stringIwSt11char_traitsIwESaIwEEC1Ev@plt>:
    28a0:	ff 25 6a b5 20 00    	jmp    QWORD PTR [rip+0x20b56a]        # 20de10 <_ZNSt7__cxx1112basic_stringIwSt11char_traitsIwESaIwEEC1Ev@GLIBCXX_3.4.21>
    28a6:	68 14 00 00 00       	push   0x14
    28ab:	e9 a0 fe ff ff       	jmp    2750 <_Znam@plt-0x10>

00000000000028b0 <memset@plt>:
    28b0:	ff 25 62 b5 20 00    	jmp    QWORD PTR [rip+0x20b562]        # 20de18 <memset@GLIBC_2.2.5>
    28b6:	68 15 00 00 00       	push   0x15
    28bb:	e9 90 fe ff ff       	jmp    2750 <_Znam@plt-0x10>

00000000000028c0 <_ZNSt7__cxx1112basic_stringIcSt11char_traitsIcESaIcEED1Ev@plt>:
    28c0:	ff 25 5a b5 20 00    	jmp    QWORD PTR [rip+0x20b55a]        # 20de20 <_ZNSt7__cxx1112basic_stringIcSt11char_traitsIcESaIcEED1Ev@GLIBCXX_3.4.21>
    28c6:	68 16 00 00 00       	push   0x16
    28cb:	e9 80 fe ff ff       	jmp    2750 <_Znam@plt-0x10>

00000000000028d0 <_ZNSt13basic_ostreamIwSt11char_traitsIwEElsEm@plt>:
    28d0:	ff 25 52 b5 20 00    	jmp    QWORD PTR [rip+0x20b552]        # 20de28 <_ZNSt13basic_ostreamIwSt11char_traitsIwEElsEm@GLIBCXX_3.4>
    28d6:	68 17 00 00 00       	push   0x17
    28db:	e9 70 fe ff ff       	jmp    2750 <_Znam@plt-0x10>

00000000000028e0 <_ZSt18_Rb_tree_incrementPSt18_Rb_tree_node_base@plt>:
    28e0:	ff 25 4a b5 20 00    	jmp    QWORD PTR [rip+0x20b54a]        # 20de30 <_ZSt18_Rb_tree_incrementPSt18_Rb_tree_node_base@GLIBCXX_3.4>
    28e6:	68 18 00 00 00       	push   0x18
    28eb:	e9 60 fe ff ff       	jmp    2750 <_Znam@plt-0x10>

00000000000028f0 <_ZNKSt7__cxx1112basic_stringIcSt11char_traitsIcESaIcEE4sizeEv@plt>:
    28f0:	ff 25 42 b5 20 00    	jmp    QWORD PTR [rip+0x20b542]        # 20de38 <_ZNKSt7__cxx1112basic_stringIcSt11char_traitsIcESaIcEE4sizeEv@GLIBCXX_3.4.21>
    28f6:	68 19 00 00 00       	push   0x19
    28fb:	e9 50 fe ff ff       	jmp    2750 <_Znam@plt-0x10>

0000000000002900 <_ZSt19__throw_logic_errorPKc@plt>:
    2900:	ff 25 3a b5 20 00    	jmp    QWORD PTR [rip+0x20b53a]        # 20de40 <_ZSt19__throw_logic_errorPKc@GLIBCXX_3.4>
    2906:	68 1a 00 00 00       	push   0x1a
    290b:	e9 40 fe ff ff       	jmp    2750 <_Znam@plt-0x10>

0000000000002910 <_ZNKSt7__cxx1112basic_stringIwSt11char_traitsIwESaIwEE4sizeEv@plt>:
    2910:	ff 25 32 b5 20 00    	jmp    QWORD PTR [rip+0x20b532]        # 20de48 <_ZNKSt7__cxx1112basic_stringIwSt11char_traitsIwESaIwEE4sizeEv@GLIBCXX_3.4.21>
    2916:	68 1b 00 00 00       	push   0x1b
    291b:	e9 30 fe ff ff       	jmp    2750 <_Znam@plt-0x10>

0000000000002920 <_ZSt19__throw_range_errorPKc@plt>:
    2920:	ff 25 2a b5 20 00    	jmp    QWORD PTR [rip+0x20b52a]        # 20de50 <_ZSt19__throw_range_errorPKc@GLIBCXX_3.4>
    2926:	68 1c 00 00 00       	push   0x1c
    292b:	e9 20 fe ff ff       	jmp    2750 <_Znam@plt-0x10>

0000000000002930 <_ZNSt7__cxx1119basic_ostringstreamIcSt11char_traitsIcESaIcEEC1ESt13_Ios_Openmode@plt>:
    2930:	ff 25 22 b5 20 00    	jmp    QWORD PTR [rip+0x20b522]        # 20de58 <_ZNSt7__cxx1119basic_ostringstreamIcSt11char_traitsIcESaIcEEC1ESt13_Ios_Openmode@GLIBCXX_3.4.21>
    2936:	68 1d 00 00 00       	push   0x1d
    293b:	e9 10 fe ff ff       	jmp    2750 <_Znam@plt-0x10>

0000000000002940 <_ZNSt13basic_ostreamIwSt11char_traitsIwEElsEl@plt>:
    2940:	ff 25 1a b5 20 00    	jmp    QWORD PTR [rip+0x20b51a]        # 20de60 <_ZNSt13basic_ostreamIwSt11char_traitsIwEElsEl@GLIBCXX_3.4>
    2946:	68 1e 00 00 00       	push   0x1e
    294b:	e9 00 fe ff ff       	jmp    2750 <_Znam@plt-0x10>

0000000000002950 <_ZNSt7__cxx1112basic_stringIwSt11char_traitsIwESaIwEE10_M_disposeEv@plt>:
    2950:	ff 25 12 b5 20 00    	jmp    QWORD PTR [rip+0x20b512]        # 20de68 <_ZNSt7__cxx1112basic_stringIwSt11char_traitsIwESaIwEE10_M_disposeEv@GLIBCXX_3.4.21>
    2956:	68 1f 00 00 00       	push   0x1f
    295b:	e9 f0 fd ff ff       	jmp    2750 <_Znam@plt-0x10>

0000000000002960 <__cxa_atexit@plt>:
    2960:	ff 25 0a b5 20 00    	jmp    QWORD PTR [rip+0x20b50a]        # 20de70 <__cxa_atexit@GLIBC_2.2.5>
    2966:	68 20 00 00 00       	push   0x20
    296b:	e9 e0 fd ff ff       	jmp    2750 <_Znam@plt-0x10>

0000000000002970 <_ZNSt7__cxx1112basic_stringIwSt11char_traitsIwESaIwEEC1ERKS4_@plt>:
    2970:	ff 25 02 b5 20 00    	jmp    QWORD PTR [rip+0x20b502]        # 20de78 <_ZNSt7__cxx1112basic_stringIwSt11char_traitsIwESaIwEEC1ERKS4_@GLIBCXX_3.4.21>
    2976:	68 21 00 00 00       	push   0x21
    297b:	e9 d0 fd ff ff       	jmp    2750 <_Znam@plt-0x10>

0000000000002980 <setlocale@plt>:
    2980:	ff 25 fa b4 20 00    	jmp    QWORD PTR [rip+0x20b4fa]        # 20de80 <setlocale@GLIBC_2.2.5>
    2986:	68 22 00 00 00       	push   0x22
    298b:	e9 c0 fd ff ff       	jmp    2750 <_Znam@plt-0x10>

0000000000002990 <_ZdlPv@plt>:
    2990:	ff 25 f2 b4 20 00    	jmp    QWORD PTR [rip+0x20b4f2]        # 20de88 <_ZdlPv@GLIBCXX_3.4>
    2996:	68 23 00 00 00       	push   0x23
    299b:	e9 b0 fd ff ff       	jmp    2750 <_Znam@plt-0x10>

00000000000029a0 <_Znwm@plt>:
    29a0:	ff 25 ea b4 20 00    	jmp    QWORD PTR [rip+0x20b4ea]        # 20de90 <_Znwm@GLIBCXX_3.4>
    29a6:	68 24 00 00 00       	push   0x24
    29ab:	e9 a0 fd ff ff       	jmp    2750 <_Znam@plt-0x10>

00000000000029b0 <_ZNSt7__cxx1112basic_stringIwSt11char_traitsIwESaIwEE9_M_createERmm@plt>:
    29b0:	ff 25 e2 b4 20 00    	jmp    QWORD PTR [rip+0x20b4e2]        # 20de98 <_ZNSt7__cxx1112basic_stringIwSt11char_traitsIwESaIwEE9_M_createERmm@GLIBCXX_3.4.21>
    29b6:	68 25 00 00 00       	push   0x25
    29bb:	e9 90 fd ff ff       	jmp    2750 <_Znam@plt-0x10>

00000000000029c0 <_ZNKSt7__cxx1119basic_ostringstreamIcSt11char_traitsIcESaIcEE3strEv@plt>:
    29c0:	ff 25 da b4 20 00    	jmp    QWORD PTR [rip+0x20b4da]        # 20dea0 <_ZNKSt7__cxx1119basic_ostringstreamIcSt11char_traitsIcESaIcEE3strEv@GLIBCXX_3.4.21>
    29c6:	68 26 00 00 00       	push   0x26
    29cb:	e9 80 fd ff ff       	jmp    2750 <_Znam@plt-0x10>

00000000000029d0 <_ZSt18_Rb_tree_decrementPSt18_Rb_tree_node_base@plt>:
    29d0:	ff 25 d2 b4 20 00    	jmp    QWORD PTR [rip+0x20b4d2]        # 20dea8 <_ZSt18_Rb_tree_decrementPSt18_Rb_tree_node_base@GLIBCXX_3.4>
    29d6:	68 27 00 00 00       	push   0x27
    29db:	e9 70 fd ff ff       	jmp    2750 <_Znam@plt-0x10>

00000000000029e0 <_ZStlsIwSt11char_traitsIwEERSt13basic_ostreamIT_T0_ES6_S3_@plt>:
    29e0:	ff 25 ca b4 20 00    	jmp    QWORD PTR [rip+0x20b4ca]        # 20deb0 <_ZStlsIwSt11char_traitsIwEERSt13basic_ostreamIT_T0_ES6_S3_@GLIBCXX_3.4>
    29e6:	68 28 00 00 00       	push   0x28
    29eb:	e9 60 fd ff ff       	jmp    2750 <_Znam@plt-0x10>

00000000000029f0 <_ZNSt7__cxx1112basic_stringIwSt11char_traitsIwESaIwEEC1ERKS3_@plt>:
    29f0:	ff 25 c2 b4 20 00    	jmp    QWORD PTR [rip+0x20b4c2]        # 20deb8 <_ZNSt7__cxx1112basic_stringIwSt11char_traitsIwESaIwEEC1ERKS3_@GLIBCXX_3.4.21>
    29f6:	68 29 00 00 00       	push   0x29
    29fb:	e9 50 fd ff ff       	jmp    2750 <_Znam@plt-0x10>

0000000000002a00 <__stack_chk_fail@plt>:
    2a00:	ff 25 ba b4 20 00    	jmp    QWORD PTR [rip+0x20b4ba]        # 20dec0 <__stack_chk_fail@GLIBC_2.4>
    2a06:	68 2a 00 00 00       	push   0x2a
    2a0b:	e9 40 fd ff ff       	jmp    2750 <_Znam@plt-0x10>

0000000000002a10 <_ZNSt13basic_ostreamIwSt11char_traitsIwEElsEPFRSt8ios_baseS4_E@plt>:
    2a10:	ff 25 b2 b4 20 00    	jmp    QWORD PTR [rip+0x20b4b2]        # 20dec8 <_ZNSt13basic_ostreamIwSt11char_traitsIwEElsEPFRSt8ios_baseS4_E@GLIBCXX_3.4>
    2a16:	68 2b 00 00 00       	push   0x2b
    2a1b:	e9 30 fd ff ff       	jmp    2750 <_Znam@plt-0x10>

0000000000002a20 <_ZNSt7__cxx1112basic_stringIwSt11char_traitsIwESaIwEE5clearEv@plt>:
    2a20:	ff 25 aa b4 20 00    	jmp    QWORD PTR [rip+0x20b4aa]        # 20ded0 <_ZNSt7__cxx1112basic_stringIwSt11char_traitsIwESaIwEE5clearEv@GLIBCXX_3.4.21>
    2a26:	68 2c 00 00 00       	push   0x2c
    2a2b:	e9 20 fd ff ff       	jmp    2750 <_Znam@plt-0x10>

0000000000002a30 <signal@plt>:
    2a30:	ff 25 a2 b4 20 00    	jmp    QWORD PTR [rip+0x20b4a2]        # 20ded8 <signal@GLIBC_2.2.5>
    2a36:	68 2d 00 00 00       	push   0x2d
    2a3b:	e9 10 fd ff ff       	jmp    2750 <_Znam@plt-0x10>

0000000000002a40 <exit@plt>:
    2a40:	ff 25 9a b4 20 00    	jmp    QWORD PTR [rip+0x20b49a]        # 20dee0 <exit@GLIBC_2.2.5>
    2a46:	68 2e 00 00 00       	push   0x2e
    2a4b:	e9 00 fd ff ff       	jmp    2750 <_Znam@plt-0x10>

0000000000002a50 <_ZNSt7__cxx1112basic_stringIwSt11char_traitsIwESaIwEEixEm@plt>:
    2a50:	ff 25 92 b4 20 00    	jmp    QWORD PTR [rip+0x20b492]        # 20dee8 <_ZNSt7__cxx1112basic_stringIwSt11char_traitsIwESaIwEEixEm@GLIBCXX_3.4.21>
    2a56:	68 2f 00 00 00       	push   0x2f
    2a5b:	e9 f0 fc ff ff       	jmp    2750 <_Znam@plt-0x10>

0000000000002a60 <_ZNSt7__cxx1112basic_stringIwSt11char_traitsIwESaIwEEC1EOS4_@plt>:
    2a60:	ff 25 8a b4 20 00    	jmp    QWORD PTR [rip+0x20b48a]        # 20def0 <_ZNSt7__cxx1112basic_stringIwSt11char_traitsIwESaIwEEC1EOS4_@GLIBCXX_3.4.21>
    2a66:	68 30 00 00 00       	push   0x30
    2a6b:	e9 e0 fc ff ff       	jmp    2750 <_Znam@plt-0x10>

0000000000002a70 <_ZdaPv@plt>:
    2a70:	ff 25 82 b4 20 00    	jmp    QWORD PTR [rip+0x20b482]        # 20def8 <_ZdaPv@GLIBCXX_3.4>
    2a76:	68 31 00 00 00       	push   0x31
    2a7b:	e9 d0 fc ff ff       	jmp    2750 <_Znam@plt-0x10>

0000000000002a80 <_ZNKSt7__cxx1112basic_stringIcSt11char_traitsIcESaIcEE4dataEv@plt>:
    2a80:	ff 25 7a b4 20 00    	jmp    QWORD PTR [rip+0x20b47a]        # 20df00 <_ZNKSt7__cxx1112basic_stringIcSt11char_traitsIcESaIcEE4dataEv@GLIBCXX_3.4.21>
    2a86:	68 32 00 00 00       	push   0x32
    2a8b:	e9 c0 fc ff ff       	jmp    2750 <_Znam@plt-0x10>

0000000000002a90 <_ZNSt7__cxx1112basic_stringIcSt11char_traitsIcESaIcEEC1Ev@plt>:
    2a90:	ff 25 72 b4 20 00    	jmp    QWORD PTR [rip+0x20b472]        # 20df08 <_ZNSt7__cxx1112basic_stringIcSt11char_traitsIcESaIcEEC1Ev@GLIBCXX_3.4.21>
    2a96:	68 33 00 00 00       	push   0x33
    2a9b:	e9 b0 fc ff ff       	jmp    2750 <_Znam@plt-0x10>

0000000000002aa0 <read@plt>:
    2aa0:	ff 25 6a b4 20 00    	jmp    QWORD PTR [rip+0x20b46a]        # 20df10 <read@GLIBC_2.2.5>
    2aa6:	68 34 00 00 00       	push   0x34
    2aab:	e9 a0 fc ff ff       	jmp    2750 <_Znam@plt-0x10>

0000000000002ab0 <_ZNSt7__cxx1112basic_stringIwSt11char_traitsIwESaIwEE5beginEv@plt>:
    2ab0:	ff 25 62 b4 20 00    	jmp    QWORD PTR [rip+0x20b462]        # 20df18 <_ZNSt7__cxx1112basic_stringIwSt11char_traitsIwESaIwEE5beginEv@GLIBCXX_3.4.21>
    2ab6:	68 35 00 00 00       	push   0x35
    2abb:	e9 90 fc ff ff       	jmp    2750 <_Znam@plt-0x10>

0000000000002ac0 <__cxa_rethrow@plt>:
    2ac0:	ff 25 5a b4 20 00    	jmp    QWORD PTR [rip+0x20b45a]        # 20df20 <__cxa_rethrow@CXXABI_1.3>
    2ac6:	68 36 00 00 00       	push   0x36
    2acb:	e9 80 fc ff ff       	jmp    2750 <_Znam@plt-0x10>

0000000000002ad0 <_ZNSt7__cxx1112basic_stringIwSt11char_traitsIwESaIwEE3endEv@plt>:
    2ad0:	ff 25 52 b4 20 00    	jmp    QWORD PTR [rip+0x20b452]        # 20df28 <_ZNSt7__cxx1112basic_stringIwSt11char_traitsIwESaIwEE3endEv@GLIBCXX_3.4.21>
    2ad6:	68 37 00 00 00       	push   0x37
    2adb:	e9 70 fc ff ff       	jmp    2750 <_Znam@plt-0x10>

0000000000002ae0 <_ZNSt7__cxx1112basic_stringIwSt11char_traitsIwESaIwEE5frontEv@plt>:
    2ae0:	ff 25 4a b4 20 00    	jmp    QWORD PTR [rip+0x20b44a]        # 20df30 <_ZNSt7__cxx1112basic_stringIwSt11char_traitsIwESaIwEE5frontEv@GLIBCXX_3.4.21>
    2ae6:	68 38 00 00 00       	push   0x38
    2aeb:	e9 60 fc ff ff       	jmp    2750 <_Znam@plt-0x10>

0000000000002af0 <_ZNSt8ios_base4InitC1Ev@plt>:
    2af0:	ff 25 42 b4 20 00    	jmp    QWORD PTR [rip+0x20b442]        # 20df38 <_ZNSt8ios_base4InitC1Ev@GLIBCXX_3.4>
    2af6:	68 39 00 00 00       	push   0x39
    2afb:	e9 50 fc ff ff       	jmp    2750 <_Znam@plt-0x10>

0000000000002b00 <puts@plt>:
    2b00:	ff 25 3a b4 20 00    	jmp    QWORD PTR [rip+0x20b43a]        # 20df40 <puts@GLIBC_2.2.5>
    2b06:	68 3a 00 00 00       	push   0x3a
    2b0b:	e9 40 fc ff ff       	jmp    2750 <_Znam@plt-0x10>

0000000000002b10 <_ZNKSt14basic_ifstreamIcSt11char_traitsIcEE5rdbufEv@plt>:
    2b10:	ff 25 32 b4 20 00    	jmp    QWORD PTR [rip+0x20b432]        # 20df48 <_ZNKSt14basic_ifstreamIcSt11char_traitsIcEE5rdbufEv@GLIBCXX_3.4>
    2b16:	68 3b 00 00 00       	push   0x3b
    2b1b:	e9 30 fc ff ff       	jmp    2750 <_Znam@plt-0x10>

0000000000002b20 <_ZNSt7__cxx1112basic_stringIwSt11char_traitsIwESaIwEE13_M_set_lengthEm@plt>:
    2b20:	ff 25 2a b4 20 00    	jmp    QWORD PTR [rip+0x20b42a]        # 20df50 <_ZNSt7__cxx1112basic_stringIwSt11char_traitsIwESaIwEE13_M_set_lengthEm@GLIBCXX_3.4.21>
    2b26:	68 3c 00 00 00       	push   0x3c
    2b2b:	e9 20 fc ff ff       	jmp    2750 <_Znam@plt-0x10>

0000000000002b30 <__cxa_end_catch@plt>:
    2b30:	ff 25 22 b4 20 00    	jmp    QWORD PTR [rip+0x20b422]        # 20df58 <__cxa_end_catch@CXXABI_1.3>
    2b36:	68 3d 00 00 00       	push   0x3d
    2b3b:	e9 10 fc ff ff       	jmp    2750 <_Znam@plt-0x10>

0000000000002b40 <_ZNSt7__cxx1112basic_stringIwSt11char_traitsIwESaIwEED1Ev@plt>:
    2b40:	ff 25 1a b4 20 00    	jmp    QWORD PTR [rip+0x20b41a]        # 20df60 <_ZNSt7__cxx1112basic_stringIwSt11char_traitsIwESaIwEED1Ev@GLIBCXX_3.4.21>
    2b46:	68 3e 00 00 00       	push   0x3e
    2b4b:	e9 00 fc ff ff       	jmp    2750 <_Znam@plt-0x10>

0000000000002b50 <_ZNKSt7__cxx1112basic_stringIwSt11char_traitsIwESaIwEE6lengthEv@plt>:
    2b50:	ff 25 12 b4 20 00    	jmp    QWORD PTR [rip+0x20b412]        # 20df68 <_ZNKSt7__cxx1112basic_stringIwSt11char_traitsIwESaIwEE6lengthEv@GLIBCXX_3.4.21>
    2b56:	68 3f 00 00 00       	push   0x3f
    2b5b:	e9 f0 fb ff ff       	jmp    2750 <_Znam@plt-0x10>

0000000000002b60 <_ZNSaIwED2Ev@plt>:
    2b60:	ff 25 0a b4 20 00    	jmp    QWORD PTR [rip+0x20b40a]        # 20df70 <_ZNSaIwED2Ev@GLIBCXX_3.4>
    2b66:	68 40 00 00 00       	push   0x40
    2b6b:	e9 e0 fb ff ff       	jmp    2750 <_Znam@plt-0x10>

0000000000002b70 <_ZNSt7__cxx1112basic_stringIwSt11char_traitsIwESaIwEE11_M_capacityEm@plt>:
    2b70:	ff 25 02 b4 20 00    	jmp    QWORD PTR [rip+0x20b402]        # 20df78 <_ZNSt7__cxx1112basic_stringIwSt11char_traitsIwESaIwEE11_M_capacityEm@GLIBCXX_3.4.21>
    2b76:	68 41 00 00 00       	push   0x41
    2b7b:	e9 d0 fb ff ff       	jmp    2750 <_Znam@plt-0x10>

0000000000002b80 <_ZNSt13basic_ostreamIwSt11char_traitsIwEElsEPFRS2_S3_E@plt>:
    2b80:	ff 25 fa b3 20 00    	jmp    QWORD PTR [rip+0x20b3fa]        # 20df80 <_ZNSt13basic_ostreamIwSt11char_traitsIwEElsEPFRS2_S3_E@GLIBCXX_3.4>
    2b86:	68 42 00 00 00       	push   0x42
    2b8b:	e9 c0 fb ff ff       	jmp    2750 <_Znam@plt-0x10>

0000000000002b90 <_Unwind_Resume@plt>:
    2b90:	ff 25 f2 b3 20 00    	jmp    QWORD PTR [rip+0x20b3f2]        # 20df88 <_Unwind_Resume@GCC_3.0>
    2b96:	68 43 00 00 00       	push   0x43
    2b9b:	e9 b0 fb ff ff       	jmp    2750 <_Znam@plt-0x10>

0000000000002ba0 <_ZNSaIwED1Ev@plt>:
    2ba0:	ff 25 ea b3 20 00    	jmp    QWORD PTR [rip+0x20b3ea]        # 20df90 <_ZNSaIwED1Ev@GLIBCXX_3.4>
    2ba6:	68 44 00 00 00       	push   0x44
    2bab:	e9 a0 fb ff ff       	jmp    2750 <_Znam@plt-0x10>

0000000000002bb0 <_ZNSt7__cxx1112basic_stringIwSt11char_traitsIwESaIwEE10_M_replaceEmmPKwm@plt>:
    2bb0:	ff 25 e2 b3 20 00    	jmp    QWORD PTR [rip+0x20b3e2]        # 20df98 <_ZNSt7__cxx1112basic_stringIwSt11char_traitsIwESaIwEE10_M_replaceEmmPKwm@GLIBCXX_3.4.21>
    2bb6:	68 45 00 00 00       	push   0x45
    2bbb:	e9 90 fb ff ff       	jmp    2750 <_Znam@plt-0x10>

0000000000002bc0 <_ZNSt14basic_ifstreamIcSt11char_traitsIcEEC1EPKcSt13_Ios_Openmode@plt>:
    2bc0:	ff 25 da b3 20 00    	jmp    QWORD PTR [rip+0x20b3da]        # 20dfa0 <_ZNSt14basic_ifstreamIcSt11char_traitsIcEEC1EPKcSt13_Ios_Openmode@GLIBCXX_3.4>
    2bc6:	68 46 00 00 00       	push   0x46
    2bcb:	e9 80 fb ff ff       	jmp    2750 <_Znam@plt-0x10>

0000000000002bd0 <_ZStlsIwSt11char_traitsIwEERSt13basic_ostreamIT_T0_ES6_PKS3_@plt>:
    2bd0:	ff 25 d2 b3 20 00    	jmp    QWORD PTR [rip+0x20b3d2]        # 20dfa8 <_ZStlsIwSt11char_traitsIwEERSt13basic_ostreamIT_T0_ES6_PKS3_@GLIBCXX_3.4>
    2bd6:	68 47 00 00 00       	push   0x47
    2bdb:	e9 70 fb ff ff       	jmp    2750 <_Znam@plt-0x10>

0000000000002be0 <_ZNSt7__cxx1112basic_stringIwSt11char_traitsIwESaIwEE6resizeEm@plt>:
    2be0:	ff 25 ca b3 20 00    	jmp    QWORD PTR [rip+0x20b3ca]        # 20dfb0 <_ZNSt7__cxx1112basic_stringIwSt11char_traitsIwESaIwEE6resizeEm@GLIBCXX_3.4.21>
    2be6:	68 48 00 00 00       	push   0x48
    2beb:	e9 60 fb ff ff       	jmp    2750 <_Znam@plt-0x10>

0000000000002bf0 <alarm@plt>:
    2bf0:	ff 25 c2 b3 20 00    	jmp    QWORD PTR [rip+0x20b3c2]        # 20dfb8 <alarm@GLIBC_2.2.5>
    2bf6:	68 49 00 00 00       	push   0x49
    2bfb:	e9 50 fb ff ff       	jmp    2750 <_Znam@plt-0x10>

0000000000002c00 <_ZNSt13basic_ostreamIwSt11char_traitsIwEElsEi@plt>:
    2c00:	ff 25 ba b3 20 00    	jmp    QWORD PTR [rip+0x20b3ba]        # 20dfc0 <_ZNSt13basic_ostreamIwSt11char_traitsIwEElsEi@GLIBCXX_3.4>
    2c06:	68 4a 00 00 00       	push   0x4a
    2c0b:	e9 40 fb ff ff       	jmp    2750 <_Znam@plt-0x10>

Disassembly of section .plt.got:

0000000000002c10 <__cxa_finalize@plt>:
    2c10:	ff 25 b2 b3 20 00    	jmp    QWORD PTR [rip+0x20b3b2]        # 20dfc8 <__cxa_finalize@GLIBC_2.2.5>
    2c16:	66 90                	xchg   ax,ax

Disassembly of section .text:

0000000000002c20 <.text>:
    2c20:	31 ed                	xor    ebp,ebp
    2c22:	49 89 d1             	mov    r9,rdx
    2c25:	5e                   	pop    rsi
    2c26:	48 89 e2             	mov    rdx,rsp
    2c29:	48 83 e4 f0          	and    rsp,0xfffffffffffffff0
    2c2d:	50                   	push   rax
    2c2e:	54                   	push   rsp
    2c2f:	4c 8d 05 2a 69 00 00 	lea    r8,[rip+0x692a]        # 9560 <__cxa_finalize@plt+0x6950>
    2c36:	48 8d 0d b3 68 00 00 	lea    rcx,[rip+0x68b3]        # 94f0 <__cxa_finalize@plt+0x68e0>
    2c3d:	48 8d 3d 66 03 00 00 	lea    rdi,[rip+0x366]        # 2faa <__cxa_finalize@plt+0x39a>
    2c44:	ff 15 96 b3 20 00    	call   QWORD PTR [rip+0x20b396]        # 20dfe0 <__libc_start_main@GLIBC_2.2.5>
    2c4a:	f4                   	hlt    
    2c4b:	0f 1f 44 00 00       	nop    DWORD PTR [rax+rax*1+0x0]
    2c50:	48 8d 3d c1 b3 20 00 	lea    rdi,[rip+0x20b3c1]        # 20e018 <_ZTVSt19__codecvt_utf8_baseIwE@@GLIBCXX_3.4.21+0x598>
    2c57:	55                   	push   rbp
    2c58:	48 8d 05 b9 b3 20 00 	lea    rax,[rip+0x20b3b9]        # 20e018 <_ZTVSt19__codecvt_utf8_baseIwE@@GLIBCXX_3.4.21+0x598>
    2c5f:	48 39 f8             	cmp    rax,rdi
    2c62:	48 89 e5             	mov    rbp,rsp
    2c65:	74 19                	je     2c80 <__cxa_finalize@plt+0x70>
    2c67:	48 8b 05 6a b3 20 00 	mov    rax,QWORD PTR [rip+0x20b36a]        # 20dfd8 <_ITM_deregisterTMCloneTable>
    2c6e:	48 85 c0             	test   rax,rax
    2c71:	74 0d                	je     2c80 <__cxa_finalize@plt+0x70>
    2c73:	5d                   	pop    rbp
    2c74:	ff e0                	jmp    rax
    2c76:	66 2e 0f 1f 84 00 00 	nop    WORD PTR cs:[rax+rax*1+0x0]
    2c7d:	00 00 00 
    2c80:	5d                   	pop    rbp
    2c81:	c3                   	ret    
    2c82:	0f 1f 40 00          	nop    DWORD PTR [rax+0x0]
    2c86:	66 2e 0f 1f 84 00 00 	nop    WORD PTR cs:[rax+rax*1+0x0]
    2c8d:	00 00 00 
    2c90:	48 8d 3d 81 b3 20 00 	lea    rdi,[rip+0x20b381]        # 20e018 <_ZTVSt19__codecvt_utf8_baseIwE@@GLIBCXX_3.4.21+0x598>
    2c97:	48 8d 35 7a b3 20 00 	lea    rsi,[rip+0x20b37a]        # 20e018 <_ZTVSt19__codecvt_utf8_baseIwE@@GLIBCXX_3.4.21+0x598>
    2c9e:	55                   	push   rbp
    2c9f:	48 29 fe             	sub    rsi,rdi
    2ca2:	48 89 e5             	mov    rbp,rsp
    2ca5:	48 c1 fe 03          	sar    rsi,0x3
    2ca9:	48 89 f0             	mov    rax,rsi
    2cac:	48 c1 e8 3f          	shr    rax,0x3f
    2cb0:	48 01 c6             	add    rsi,rax
    2cb3:	48 d1 fe             	sar    rsi,1
    2cb6:	74 18                	je     2cd0 <__cxa_finalize@plt+0xc0>
    2cb8:	48 8b 05 31 b3 20 00 	mov    rax,QWORD PTR [rip+0x20b331]        # 20dff0 <_ITM_registerTMCloneTable>
    2cbf:	48 85 c0             	test   rax,rax
    2cc2:	74 0c                	je     2cd0 <__cxa_finalize@plt+0xc0>
    2cc4:	5d                   	pop    rbp
    2cc5:	ff e0                	jmp    rax
    2cc7:	66 0f 1f 84 00 00 00 	nop    WORD PTR [rax+rax*1+0x0]
    2cce:	00 00 
    2cd0:	5d                   	pop    rbp
    2cd1:	c3                   	ret    
    2cd2:	0f 1f 40 00          	nop    DWORD PTR [rax+0x0]
    2cd6:	66 2e 0f 1f 84 00 00 	nop    WORD PTR cs:[rax+rax*1+0x0]
    2cdd:	00 00 00 
    2ce0:	80 3d 89 b4 20 00 00 	cmp    BYTE PTR [rip+0x20b489],0x0        # 20e170 <_ZSt5wcout@@GLIBCXX_3.4+0x110>
    2ce7:	75 2f                	jne    2d18 <__cxa_finalize@plt+0x108>
    2ce9:	48 83 3d d7 b2 20 00 	cmp    QWORD PTR [rip+0x20b2d7],0x0        # 20dfc8 <__cxa_finalize@GLIBC_2.2.5>
    2cf0:	00 
    2cf1:	55                   	push   rbp
    2cf2:	48 89 e5             	mov    rbp,rsp
    2cf5:	74 0c                	je     2d03 <__cxa_finalize@plt+0xf3>
    2cf7:	48 8b 3d 0a b3 20 00 	mov    rdi,QWORD PTR [rip+0x20b30a]        # 20e008 <_ZTVSt19__codecvt_utf8_baseIwE@@GLIBCXX_3.4.21+0x588>
    2cfe:	e8 0d ff ff ff       	call   2c10 <__cxa_finalize@plt>
    2d03:	e8 48 ff ff ff       	call   2c50 <__cxa_finalize@plt+0x40>
    2d08:	c6 05 61 b4 20 00 01 	mov    BYTE PTR [rip+0x20b461],0x1        # 20e170 <_ZSt5wcout@@GLIBCXX_3.4+0x110>
    2d0f:	5d                   	pop    rbp
    2d10:	c3                   	ret    
    2d11:	0f 1f 80 00 00 00 00 	nop    DWORD PTR [rax+0x0]
    2d18:	f3 c3                	repz ret 
    2d1a:	66 0f 1f 44 00 00    	nop    WORD PTR [rax+rax*1+0x0]
    2d20:	55                   	push   rbp
    2d21:	48 89 e5             	mov    rbp,rsp
    2d24:	5d                   	pop    rbp
    2d25:	e9 66 ff ff ff       	jmp    2c90 <__cxa_finalize@plt+0x80>
    2d2a:	55                   	push   rbp
    2d2b:	48 89 e5             	mov    rbp,rsp
    2d2e:	41 54                	push   r12
    2d30:	53                   	push   rbx
    2d31:	48 81 ec 20 04 00 00 	sub    rsp,0x420
    2d38:	48 89 bd d8 fb ff ff 	mov    QWORD PTR [rbp-0x428],rdi
    2d3f:	48 89 b5 d0 fb ff ff 	mov    QWORD PTR [rbp-0x430],rsi
    2d46:	64 48 8b 04 25 28 00 	mov    rax,QWORD PTR fs:0x28
    2d4d:	00 00 
    2d4f:	48 89 45 e8          	mov    QWORD PTR [rbp-0x18],rax
    2d53:	31 c0                	xor    eax,eax
    2d55:	48 8d 85 60 fc ff ff 	lea    rax,[rbp-0x3a0]
    2d5c:	be 10 00 00 00       	mov    esi,0x10
    2d61:	48 89 c7             	mov    rdi,rax
    2d64:	e8 c7 fb ff ff       	call   2930 <_ZNSt7__cxx1119basic_ostringstreamIcSt11char_traitsIcESaIcEEC1ESt13_Ios_Openmode@plt>
    2d69:	48 8b 8d d0 fb ff ff 	mov    rcx,QWORD PTR [rbp-0x430]
    2d70:	48 8d 85 e0 fd ff ff 	lea    rax,[rbp-0x220]
    2d77:	ba 08 00 00 00       	mov    edx,0x8
    2d7c:	48 89 ce             	mov    rsi,rcx
    2d7f:	48 89 c7             	mov    rdi,rax
    2d82:	e8 39 fe ff ff       	call   2bc0 <_ZNSt14basic_ifstreamIcSt11char_traitsIcEEC1EPKcSt13_Ios_Openmode@plt>
    2d87:	48 8d 85 e0 fd ff ff 	lea    rax,[rbp-0x220]
    2d8e:	48 89 c7             	mov    rdi,rax
    2d91:	e8 7a fd ff ff       	call   2b10 <_ZNKSt14basic_ifstreamIcSt11char_traitsIcEE5rdbufEv@plt>
    2d96:	48 89 c2             	mov    rdx,rax
    2d99:	48 8d 85 60 fc ff ff 	lea    rax,[rbp-0x3a0]
    2da0:	48 89 d6             	mov    rsi,rdx
    2da3:	48 89 c7             	mov    rdi,rax
    2da6:	e8 05 fa ff ff       	call   27b0 <_ZNSolsEPSt15basic_streambufIcSt11char_traitsIcEE@plt>
    2dab:	bf 28 00 00 00       	mov    edi,0x28
    2db0:	e8 eb fb ff ff       	call   29a0 <_Znwm@plt>
    2db5:	48 89 c3             	mov    rbx,rax
    2db8:	be 00 00 00 00       	mov    esi,0x0
    2dbd:	48 89 df             	mov    rdi,rbx
    2dc0:	e8 e9 03 00 00       	call   31ae <__cxa_finalize@plt+0x59e>
    2dc5:	48 8d 85 00 fc ff ff 	lea    rax,[rbp-0x400]
    2dcc:	48 89 de             	mov    rsi,rbx
    2dcf:	48 89 c7             	mov    rdi,rax
    2dd2:	e8 63 04 00 00       	call   323a <__cxa_finalize@plt+0x62a>
    2dd7:	48 8d 85 e0 fb ff ff 	lea    rax,[rbp-0x420]
    2dde:	48 8d 95 60 fc ff ff 	lea    rdx,[rbp-0x3a0]
    2de5:	48 89 d6             	mov    rsi,rdx
    2de8:	48 89 c7             	mov    rdi,rax
    2deb:	e8 d0 fb ff ff       	call   29c0 <_ZNKSt7__cxx1119basic_ostringstreamIcSt11char_traitsIcESaIcEE3strEv@plt>
    2df0:	48 8b 85 d8 fb ff ff 	mov    rax,QWORD PTR [rbp-0x428]
    2df7:	48 8d 95 e0 fb ff ff 	lea    rdx,[rbp-0x420]
    2dfe:	48 8d 8d 00 fc ff ff 	lea    rcx,[rbp-0x400]
    2e05:	48 89 ce             	mov    rsi,rcx
    2e08:	48 89 c7             	mov    rdi,rax
    2e0b:	e8 5a 05 00 00       	call   336a <__cxa_finalize@plt+0x75a>
    2e10:	90                   	nop
    2e11:	48 8d 85 e0 fb ff ff 	lea    rax,[rbp-0x420]
    2e18:	48 89 c7             	mov    rdi,rax
    2e1b:	e8 a0 fa ff ff       	call   28c0 <_ZNSt7__cxx1112basic_stringIcSt11char_traitsIcESaIcEED1Ev@plt>
    2e20:	48 8d 85 00 fc ff ff 	lea    rax,[rbp-0x400]
    2e27:	48 89 c7             	mov    rdi,rax
    2e2a:	e8 fd 02 00 00       	call   312c <__cxa_finalize@plt+0x51c>
    2e2f:	48 8d 85 e0 fd ff ff 	lea    rax,[rbp-0x220]
    2e36:	48 89 c7             	mov    rdi,rax
    2e39:	e8 b2 f9 ff ff       	call   27f0 <_ZNSt14basic_ifstreamIcSt11char_traitsIcEED1Ev@plt>
    2e3e:	48 8d 85 60 fc ff ff 	lea    rax,[rbp-0x3a0]
    2e45:	48 89 c7             	mov    rdi,rax
    2e48:	e8 93 f9 ff ff       	call   27e0 <_ZNSt7__cxx1119basic_ostringstreamIcSt11char_traitsIcESaIcEED1Ev@plt>
    2e4d:	90                   	nop
    2e4e:	48 8b 85 d8 fb ff ff 	mov    rax,QWORD PTR [rbp-0x428]
    2e55:	48 8b 4d e8          	mov    rcx,QWORD PTR [rbp-0x18]
    2e59:	64 48 33 0c 25 28 00 	xor    rcx,QWORD PTR fs:0x28
    2e60:	00 00 
    2e62:	74 70                	je     2ed4 <__cxa_finalize@plt+0x2c4>
    2e64:	eb 69                	jmp    2ecf <__cxa_finalize@plt+0x2bf>
    2e66:	49 89 c4             	mov    r12,rax
    2e69:	48 89 df             	mov    rdi,rbx
    2e6c:	e8 1f fb ff ff       	call   2990 <_ZdlPv@plt>
    2e71:	4c 89 e3             	mov    rbx,r12
    2e74:	eb 2b                	jmp    2ea1 <__cxa_finalize@plt+0x291>
    2e76:	48 89 c3             	mov    rbx,rax
    2e79:	48 8d 85 e0 fb ff ff 	lea    rax,[rbp-0x420]
    2e80:	48 89 c7             	mov    rdi,rax
    2e83:	e8 38 fa ff ff       	call   28c0 <_ZNSt7__cxx1112basic_stringIcSt11char_traitsIcESaIcEED1Ev@plt>
    2e88:	eb 03                	jmp    2e8d <__cxa_finalize@plt+0x27d>
    2e8a:	48 89 c3             	mov    rbx,rax
    2e8d:	48 8d 85 00 fc ff ff 	lea    rax,[rbp-0x400]
    2e94:	48 89 c7             	mov    rdi,rax
    2e97:	e8 90 02 00 00       	call   312c <__cxa_finalize@plt+0x51c>
    2e9c:	eb 03                	jmp    2ea1 <__cxa_finalize@plt+0x291>
    2e9e:	48 89 c3             	mov    rbx,rax
    2ea1:	48 8d 85 e0 fd ff ff 	lea    rax,[rbp-0x220]
    2ea8:	48 89 c7             	mov    rdi,rax
    2eab:	e8 40 f9 ff ff       	call   27f0 <_ZNSt14basic_ifstreamIcSt11char_traitsIcEED1Ev@plt>
    2eb0:	eb 03                	jmp    2eb5 <__cxa_finalize@plt+0x2a5>
    2eb2:	48 89 c3             	mov    rbx,rax
    2eb5:	48 8d 85 60 fc ff ff 	lea    rax,[rbp-0x3a0]
    2ebc:	48 89 c7             	mov    rdi,rax
    2ebf:	e8 1c f9 ff ff       	call   27e0 <_ZNSt7__cxx1119basic_ostringstreamIcSt11char_traitsIcESaIcEED1Ev@plt>
    2ec4:	48 89 d8             	mov    rax,rbx
    2ec7:	48 89 c7             	mov    rdi,rax
    2eca:	e8 c1 fc ff ff       	call   2b90 <_Unwind_Resume@plt>
    2ecf:	e8 2c fb ff ff       	call   2a00 <__stack_chk_fail@plt>
    2ed4:	48 81 c4 20 04 00 00 	add    rsp,0x420
    2edb:	5b                   	pop    rbx
    2edc:	41 5c                	pop    r12
    2ede:	5d                   	pop    rbp
    2edf:	c3                   	ret    
    2ee0:	55                   	push   rbp
    2ee1:	48 89 e5             	mov    rbp,rsp
    2ee4:	48 83 ec 10          	sub    rsp,0x10
    2ee8:	89 7d fc             	mov    DWORD PTR [rbp-0x4],edi
    2eeb:	48 8d 35 3e 67 00 00 	lea    rsi,[rip+0x673e]        # 9630 <__cxa_finalize@plt+0x6a20>
    2ef2:	48 8d 3d 67 b1 20 00 	lea    rdi,[rip+0x20b167]        # 20e060 <_ZSt5wcout@@GLIBCXX_3.4>
    2ef9:	e8 a2 f8 ff ff       	call   27a0 <_ZStlsIwSt11char_traitsIwEERSt13basic_ostreamIT_T0_ES6_PKc@plt>
    2efe:	48 89 c2             	mov    rdx,rax
    2f01:	48 8b 05 c8 b0 20 00 	mov    rax,QWORD PTR [rip+0x20b0c8]        # 20dfd0 <_ZSt4endlIwSt11char_traitsIwEERSt13basic_ostreamIT_T0_ES6_@GLIBCXX_3.4>
    2f08:	48 89 c6             	mov    rsi,rax
    2f0b:	48 89 d7             	mov    rdi,rdx
    2f0e:	e8 6d fc ff ff       	call   2b80 <_ZNSt13basic_ostreamIwSt11char_traitsIwEElsEPFRS2_S3_E@plt>
    2f13:	bf 01 00 00 00       	mov    edi,0x1
    2f18:	e8 23 fb ff ff       	call   2a40 <exit@plt>
    2f1d:	55                   	push   rbp
    2f1e:	48 89 e5             	mov    rbp,rsp
    2f21:	48 8d 35 12 67 00 00 	lea    rsi,[rip+0x6712]        # 963a <__cxa_finalize@plt+0x6a2a>
    2f28:	bf 06 00 00 00       	mov    edi,0x6
    2f2d:	e8 4e fa ff ff       	call   2980 <setlocale@plt>
    2f32:	48 8b 05 f7 b0 20 00 	mov    rax,QWORD PTR [rip+0x20b0f7]        # 20e030 <stdin@@GLIBC_2.2.5>
    2f39:	b9 00 00 00 00       	mov    ecx,0x0
    2f3e:	ba 02 00 00 00       	mov    edx,0x2
    2f43:	be 00 00 00 00       	mov    esi,0x0
    2f48:	48 89 c7             	mov    rdi,rax
    2f4b:	e8 20 f8 ff ff       	call   2770 <setvbuf@plt>
    2f50:	48 8b 05 c9 b0 20 00 	mov    rax,QWORD PTR [rip+0x20b0c9]        # 20e020 <stdout@@GLIBC_2.2.5>
    2f57:	b9 00 00 00 00       	mov    ecx,0x0
    2f5c:	ba 02 00 00 00       	mov    edx,0x2
    2f61:	be 00 00 00 00       	mov    esi,0x0
    2f66:	48 89 c7             	mov    rdi,rax
    2f69:	e8 02 f8 ff ff       	call   2770 <setvbuf@plt>
    2f6e:	48 8b 05 cb b0 20 00 	mov    rax,QWORD PTR [rip+0x20b0cb]        # 20e040 <stderr@@GLIBC_2.2.5>
    2f75:	b9 00 00 00 00       	mov    ecx,0x0
    2f7a:	ba 02 00 00 00       	mov    edx,0x2
    2f7f:	be 00 00 00 00       	mov    esi,0x0
    2f84:	48 89 c7             	mov    rdi,rax
    2f87:	e8 e4 f7 ff ff       	call   2770 <setvbuf@plt>
    2f8c:	48 8d 35 4d ff ff ff 	lea    rsi,[rip+0xffffffffffffff4d]        # 2ee0 <__cxa_finalize@plt+0x2d0>
    2f93:	bf 0e 00 00 00       	mov    edi,0xe
    2f98:	e8 93 fa ff ff       	call   2a30 <signal@plt>
    2f9d:	bf 3c 00 00 00       	mov    edi,0x3c
    2fa2:	e8 49 fc ff ff       	call   2bf0 <alarm@plt>
    2fa7:	90                   	nop
    2fa8:	5d                   	pop    rbp
    2fa9:	c3                   	ret    
    2faa:	55                   	push   rbp
    2fab:	48 89 e5             	mov    rbp,rsp
    2fae:	53                   	push   rbx
    2faf:	48 83 ec 58          	sub    rsp,0x58
    2fb3:	89 7d ac             	mov    DWORD PTR [rbp-0x54],edi
    2fb6:	48 89 75 a0          	mov    QWORD PTR [rbp-0x60],rsi
    2fba:	64 48 8b 04 25 28 00 	mov    rax,QWORD PTR fs:0x28
    2fc1:	00 00 
    2fc3:	48 89 45 e8          	mov    QWORD PTR [rbp-0x18],rax
    2fc7:	31 c0                	xor    eax,eax
    2fc9:	83 7d ac 02          	cmp    DWORD PTR [rbp-0x54],0x2
    2fcd:	74 16                	je     2fe5 <__cxa_finalize@plt+0x3d5>
    2fcf:	48 8d 3d 72 66 00 00 	lea    rdi,[rip+0x6672]        # 9648 <__cxa_finalize@plt+0x6a38>
    2fd6:	e8 25 fb ff ff       	call   2b00 <puts@plt>
    2fdb:	bf 01 00 00 00       	mov    edi,0x1
    2fe0:	e8 5b fa ff ff       	call   2a40 <exit@plt>
    2fe5:	e8 33 ff ff ff       	call   2f1d <__cxa_finalize@plt+0x30d>
    2fea:	e8 32 12 00 00       	call   4221 <__cxa_finalize@plt+0x1611>
    2fef:	48 8b 45 a0          	mov    rax,QWORD PTR [rbp-0x60]
    2ff3:	48 83 c0 08          	add    rax,0x8
    2ff7:	48 8b 10             	mov    rdx,QWORD PTR [rax]
    2ffa:	48 8d 45 c0          	lea    rax,[rbp-0x40]
    2ffe:	48 89 d6             	mov    rsi,rdx
    3001:	48 89 c7             	mov    rdi,rax
    3004:	e8 21 fd ff ff       	call   2d2a <__cxa_finalize@plt+0x11a>
    3009:	48 8d 45 c0          	lea    rax,[rbp-0x40]
    300d:	48 89 c7             	mov    rdi,rax
    3010:	e8 a3 1d 00 00       	call   4db8 <__cxa_finalize@plt+0x21a8>
    3015:	89 45 bc             	mov    DWORD PTR [rbp-0x44],eax
    3018:	8b 5d bc             	mov    ebx,DWORD PTR [rbp-0x44]
    301b:	48 8d 45 c0          	lea    rax,[rbp-0x40]
    301f:	48 89 c7             	mov    rdi,rax
    3022:	e8 19 fb ff ff       	call   2b40 <_ZNSt7__cxx1112basic_stringIwSt11char_traitsIwESaIwEED1Ev@plt>
    3027:	89 d8                	mov    eax,ebx
    3029:	48 8b 4d e8          	mov    rcx,QWORD PTR [rbp-0x18]
    302d:	64 48 33 0c 25 28 00 	xor    rcx,QWORD PTR fs:0x28
    3034:	00 00 
    3036:	74 21                	je     3059 <__cxa_finalize@plt+0x449>
    3038:	eb 1a                	jmp    3054 <__cxa_finalize@plt+0x444>
    303a:	48 89 c3             	mov    rbx,rax
    303d:	48 8d 45 c0          	lea    rax,[rbp-0x40]
    3041:	48 89 c7             	mov    rdi,rax
    3044:	e8 f7 fa ff ff       	call   2b40 <_ZNSt7__cxx1112basic_stringIwSt11char_traitsIwESaIwEED1Ev@plt>
    3049:	48 89 d8             	mov    rax,rbx
    304c:	48 89 c7             	mov    rdi,rax
    304f:	e8 3c fb ff ff       	call   2b90 <_Unwind_Resume@plt>
    3054:	e8 a7 f9 ff ff       	call   2a00 <__stack_chk_fail@plt>
    3059:	48 83 c4 58          	add    rsp,0x58
    305d:	5b                   	pop    rbx
    305e:	5d                   	pop    rbp
    305f:	c3                   	ret    
    3060:	55                   	push   rbp
    3061:	48 89 e5             	mov    rbp,rsp
    3064:	48 83 ec 10          	sub    rsp,0x10
    3068:	89 7d fc             	mov    DWORD PTR [rbp-0x4],edi
    306b:	89 75 f8             	mov    DWORD PTR [rbp-0x8],esi
    306e:	83 7d fc 01          	cmp    DWORD PTR [rbp-0x4],0x1
    3072:	75 32                	jne    30a6 <__cxa_finalize@plt+0x496>
    3074:	81 7d f8 ff ff 00 00 	cmp    DWORD PTR [rbp-0x8],0xffff
    307b:	75 29                	jne    30a6 <__cxa_finalize@plt+0x496>
    307d:	48 8d 3d ed b0 20 00 	lea    rdi,[rip+0x20b0ed]        # 20e171 <_ZSt5wcout@@GLIBCXX_3.4+0x111>
    3084:	e8 67 fa ff ff       	call   2af0 <_ZNSt8ios_base4InitC1Ev@plt>
    3089:	48 8d 15 78 af 20 00 	lea    rdx,[rip+0x20af78]        # 20e008 <_ZTVSt19__codecvt_utf8_baseIwE@@GLIBCXX_3.4.21+0x588>
    3090:	48 8d 35 da b0 20 00 	lea    rsi,[rip+0x20b0da]        # 20e171 <_ZSt5wcout@@GLIBCXX_3.4+0x111>
    3097:	48 8b 05 5a af 20 00 	mov    rax,QWORD PTR [rip+0x20af5a]        # 20dff8 <_ZNSt8ios_base4InitD1Ev@GLIBCXX_3.4>
    309e:	48 89 c7             	mov    rdi,rax
    30a1:	e8 ba f8 ff ff       	call   2960 <__cxa_atexit@plt>
    30a6:	90                   	nop
    30a7:	c9                   	leave  
    30a8:	c3                   	ret    
    30a9:	55                   	push   rbp
    30aa:	48 89 e5             	mov    rbp,rsp
    30ad:	be ff ff 00 00       	mov    esi,0xffff
    30b2:	bf 01 00 00 00       	mov    edi,0x1
    30b7:	e8 a4 ff ff ff       	call   3060 <__cxa_finalize@plt+0x450>
    30bc:	5d                   	pop    rbp
    30bd:	c3                   	ret    
    30be:	55                   	push   rbp
    30bf:	48 89 e5             	mov    rbp,rsp
    30c2:	48 89 7d f8          	mov    QWORD PTR [rbp-0x8],rdi
    30c6:	48 89 75 f0          	mov    QWORD PTR [rbp-0x10],rsi
    30ca:	48 8b 45 f0          	mov    rax,QWORD PTR [rbp-0x10]
    30ce:	8b 10                	mov    edx,DWORD PTR [rax]
    30d0:	48 8b 45 f8          	mov    rax,QWORD PTR [rbp-0x8]
    30d4:	89 10                	mov    DWORD PTR [rax],edx
    30d6:	90                   	nop
    30d7:	5d                   	pop    rbp
    30d8:	c3                   	ret    
    30d9:	90                   	nop
    30da:	55                   	push   rbp
    30db:	48 89 e5             	mov    rbp,rsp
    30de:	48 83 ec 20          	sub    rsp,0x20
    30e2:	48 89 7d f8          	mov    QWORD PTR [rbp-0x8],rdi
    30e6:	48 89 75 f0          	mov    QWORD PTR [rbp-0x10],rsi
    30ea:	89 55 ec             	mov    DWORD PTR [rbp-0x14],edx
    30ed:	48 89 4d e0          	mov    QWORD PTR [rbp-0x20],rcx
    30f1:	48 8b 45 f8          	mov    rax,QWORD PTR [rbp-0x8]
    30f5:	48 8b 55 e0          	mov    rdx,QWORD PTR [rbp-0x20]
    30f9:	48 89 d6             	mov    rsi,rdx
    30fc:	48 89 c7             	mov    rdi,rax
    30ff:	e8 bc f6 ff ff       	call   27c0 <_ZNSt7codecvtIwc11__mbstate_tEC2Em@plt>
    3104:	48 8d 15 85 a9 20 00 	lea    rdx,[rip+0x20a985]        # 20da90 <_ZTVSt19__codecvt_utf8_baseIwE@@GLIBCXX_3.4.21+0x10>
    310b:	48 8b 45 f8          	mov    rax,QWORD PTR [rbp-0x8]
    310f:	48 89 10             	mov    QWORD PTR [rax],rdx
    3112:	48 8b 45 f8          	mov    rax,QWORD PTR [rbp-0x8]
    3116:	48 8b 55 f0          	mov    rdx,QWORD PTR [rbp-0x10]
    311a:	48 89 50 18          	mov    QWORD PTR [rax+0x18],rdx
    311e:	48 8b 45 f8          	mov    rax,QWORD PTR [rbp-0x8]
    3122:	8b 55 ec             	mov    edx,DWORD PTR [rbp-0x14]
    3125:	89 50 20             	mov    DWORD PTR [rax+0x20],edx
    3128:	90                   	nop
    3129:	c9                   	leave  
    312a:	c3                   	ret    
    312b:	90                   	nop
    312c:	55                   	push   rbp
    312d:	48 89 e5             	mov    rbp,rsp
    3130:	48 83 ec 10          	sub    rsp,0x10
    3134:	48 89 7d f8          	mov    QWORD PTR [rbp-0x8],rdi
    3138:	48 8b 45 f8          	mov    rax,QWORD PTR [rbp-0x8]
    313c:	48 83 c0 28          	add    rax,0x28
    3140:	48 89 c7             	mov    rdi,rax
    3143:	e8 f8 f9 ff ff       	call   2b40 <_ZNSt7__cxx1112basic_stringIwSt11char_traitsIwESaIwEED1Ev@plt>
    3148:	48 8b 45 f8          	mov    rax,QWORD PTR [rbp-0x8]
    314c:	48 83 c0 08          	add    rax,0x8
    3150:	48 89 c7             	mov    rdi,rax
    3153:	e8 68 f7 ff ff       	call   28c0 <_ZNSt7__cxx1112basic_stringIcSt11char_traitsIcESaIcEED1Ev@plt>
    3158:	48 8b 45 f8          	mov    rax,QWORD PTR [rbp-0x8]
    315c:	48 89 c7             	mov    rdi,rax
    315f:	e8 ae 01 00 00       	call   3312 <__cxa_finalize@plt+0x702>
    3164:	90                   	nop
    3165:	c9                   	leave  
    3166:	c3                   	ret    
    3167:	90                   	nop
    3168:	55                   	push   rbp
    3169:	48 89 e5             	mov    rbp,rsp
    316c:	48 83 ec 10          	sub    rsp,0x10
    3170:	48 89 7d f8          	mov    QWORD PTR [rbp-0x8],rdi
    3174:	48 8b 45 f8          	mov    rax,QWORD PTR [rbp-0x8]
    3178:	48 89 c7             	mov    rdi,rax
    317b:	e8 e0 f9 ff ff       	call   2b60 <_ZNSaIwED2Ev@plt>
    3180:	90                   	nop
    3181:	c9                   	leave  
    3182:	c3                   	ret    
    3183:	55                   	push   rbp
    3184:	48 89 e5             	mov    rbp,rsp
    3187:	48 89 7d f8          	mov    QWORD PTR [rbp-0x8],rdi
    318b:	48 89 75 f0          	mov    QWORD PTR [rbp-0x10],rsi
    318f:	48 8b 45 f0          	mov    rax,QWORD PTR [rbp-0x10]
    3193:	48 8b 10             	mov    rdx,QWORD PTR [rax]
    3196:	48 8b 45 f8          	mov    rax,QWORD PTR [rbp-0x8]
    319a:	48 8b 00             	mov    rax,QWORD PTR [rax]
    319d:	48 39 c2             	cmp    rdx,rax
    31a0:	73 06                	jae    31a8 <__cxa_finalize@plt+0x598>
    31a2:	48 8b 45 f0          	mov    rax,QWORD PTR [rbp-0x10]
    31a6:	eb 04                	jmp    31ac <__cxa_finalize@plt+0x59c>
    31a8:	48 8b 45 f8          	mov    rax,QWORD PTR [rbp-0x8]
    31ac:	5d                   	pop    rbp
    31ad:	c3                   	ret    
    31ae:	55                   	push   rbp
    31af:	48 89 e5             	mov    rbp,rsp
    31b2:	53                   	push   rbx
    31b3:	48 83 ec 38          	sub    rsp,0x38
    31b7:	48 89 7d c8          	mov    QWORD PTR [rbp-0x38],rdi
    31bb:	48 89 75 c0          	mov    QWORD PTR [rbp-0x40],rsi
    31bf:	64 48 8b 04 25 28 00 	mov    rax,QWORD PTR fs:0x28
    31c6:	00 00 
    31c8:	48 89 45 e8          	mov    QWORD PTR [rbp-0x18],rax
    31cc:	31 c0                	xor    eax,eax
    31ce:	48 8b 5d c8          	mov    rbx,QWORD PTR [rbp-0x38]
    31d2:	48 c7 45 e0 ff ff 10 	mov    QWORD PTR [rbp-0x20],0x10ffff
    31d9:	00 
    31da:	48 c7 45 d8 ff ff 10 	mov    QWORD PTR [rbp-0x28],0x10ffff
    31e1:	00 
    31e2:	48 8d 55 e0          	lea    rdx,[rbp-0x20]
    31e6:	48 8d 45 d8          	lea    rax,[rbp-0x28]
    31ea:	48 89 d6             	mov    rsi,rdx
    31ed:	48 89 c7             	mov    rdi,rax
    31f0:	e8 8e ff ff ff       	call   3183 <__cxa_finalize@plt+0x573>
    31f5:	48 8b 00             	mov    rax,QWORD PTR [rax]
    31f8:	48 8b 55 c0          	mov    rdx,QWORD PTR [rbp-0x40]
    31fc:	48 89 d1             	mov    rcx,rdx
    31ff:	ba 00 00 00 00       	mov    edx,0x0
    3204:	48 89 c6             	mov    rsi,rax
    3207:	48 89 df             	mov    rdi,rbx
    320a:	e8 cb fe ff ff       	call   30da <__cxa_finalize@plt+0x4ca>
    320f:	48 8d 15 d2 a8 20 00 	lea    rdx,[rip+0x20a8d2]        # 20dae8 <_ZTVSt19__codecvt_utf8_baseIwE@@GLIBCXX_3.4.21+0x68>
    3216:	48 8b 45 c8          	mov    rax,QWORD PTR [rbp-0x38]
    321a:	48 89 10             	mov    QWORD PTR [rax],rdx
    321d:	90                   	nop
    321e:	48 8b 45 e8          	mov    rax,QWORD PTR [rbp-0x18]
    3222:	64 48 33 04 25 28 00 	xor    rax,QWORD PTR fs:0x28
    3229:	00 00 
    322b:	74 05                	je     3232 <__cxa_finalize@plt+0x622>
    322d:	e8 ce f7 ff ff       	call   2a00 <__stack_chk_fail@plt>
    3232:	48 83 c4 38          	add    rsp,0x38
    3236:	5b                   	pop    rbx
    3237:	5d                   	pop    rbp
    3238:	c3                   	ret    
    3239:	90                   	nop
    323a:	55                   	push   rbp
    323b:	48 89 e5             	mov    rbp,rsp
    323e:	53                   	push   rbx
    323f:	48 83 ec 18          	sub    rsp,0x18
    3243:	48 89 7d e8          	mov    QWORD PTR [rbp-0x18],rdi
    3247:	48 89 75 e0          	mov    QWORD PTR [rbp-0x20],rsi
    324b:	48 8b 45 e8          	mov    rax,QWORD PTR [rbp-0x18]
    324f:	48 8b 55 e0          	mov    rdx,QWORD PTR [rbp-0x20]
    3253:	48 89 d6             	mov    rsi,rdx
    3256:	48 89 c7             	mov    rdi,rax
    3259:	e8 84 01 00 00       	call   33e2 <__cxa_finalize@plt+0x7d2>
    325e:	48 8b 45 e8          	mov    rax,QWORD PTR [rbp-0x18]
    3262:	48 83 c0 08          	add    rax,0x8
    3266:	48 89 c7             	mov    rdi,rax
    3269:	e8 22 f8 ff ff       	call   2a90 <_ZNSt7__cxx1112basic_stringIcSt11char_traitsIcESaIcEEC1Ev@plt>
    326e:	48 8b 45 e8          	mov    rax,QWORD PTR [rbp-0x18]
    3272:	48 83 c0 28          	add    rax,0x28
    3276:	48 89 c7             	mov    rdi,rax
    3279:	e8 22 f6 ff ff       	call   28a0 <_ZNSt7__cxx1112basic_stringIwSt11char_traitsIwESaIwEEC1Ev@plt>
    327e:	48 8b 45 e8          	mov    rax,QWORD PTR [rbp-0x18]
    3282:	c7 40 48 00 00 00 00 	mov    DWORD PTR [rax+0x48],0x0
    3289:	48 8b 45 e8          	mov    rax,QWORD PTR [rbp-0x18]
    328d:	c7 40 4c 00 00 00 00 	mov    DWORD PTR [rax+0x4c],0x0
    3294:	48 8b 45 e8          	mov    rax,QWORD PTR [rbp-0x18]
    3298:	48 c7 40 50 00 00 00 	mov    QWORD PTR [rax+0x50],0x0
    329f:	00 
    32a0:	48 8b 45 e8          	mov    rax,QWORD PTR [rbp-0x18]
    32a4:	c6 40 58 00          	mov    BYTE PTR [rax+0x58],0x0
    32a8:	48 8b 45 e8          	mov    rax,QWORD PTR [rbp-0x18]
    32ac:	c6 40 59 00          	mov    BYTE PTR [rax+0x59],0x0
    32b0:	48 8b 45 e8          	mov    rax,QWORD PTR [rbp-0x18]
    32b4:	48 89 c7             	mov    rdi,rax
    32b7:	e8 4c 01 00 00       	call   3408 <__cxa_finalize@plt+0x7f8>
    32bc:	83 f0 01             	xor    eax,0x1
    32bf:	84 c0                	test   al,al
    32c1:	74 46                	je     3309 <__cxa_finalize@plt+0x6f9>
    32c3:	48 8d 3d 9d 63 00 00 	lea    rdi,[rip+0x639d]        # 9667 <__cxa_finalize@plt+0x6a57>
    32ca:	e8 31 f6 ff ff       	call   2900 <_ZSt19__throw_logic_errorPKc@plt>
    32cf:	48 89 c3             	mov    rbx,rax
    32d2:	48 8b 45 e8          	mov    rax,QWORD PTR [rbp-0x18]
    32d6:	48 83 c0 28          	add    rax,0x28
    32da:	48 89 c7             	mov    rdi,rax
    32dd:	e8 5e f8 ff ff       	call   2b40 <_ZNSt7__cxx1112basic_stringIwSt11char_traitsIwESaIwEED1Ev@plt>
    32e2:	48 8b 45 e8          	mov    rax,QWORD PTR [rbp-0x18]
    32e6:	48 83 c0 08          	add    rax,0x8
    32ea:	48 89 c7             	mov    rdi,rax
    32ed:	e8 ce f5 ff ff       	call   28c0 <_ZNSt7__cxx1112basic_stringIcSt11char_traitsIcESaIcEED1Ev@plt>
    32f2:	48 8b 45 e8          	mov    rax,QWORD PTR [rbp-0x18]
    32f6:	48 89 c7             	mov    rdi,rax
    32f9:	e8 14 00 00 00       	call   3312 <__cxa_finalize@plt+0x702>
    32fe:	48 89 d8             	mov    rax,rbx
    3301:	48 89 c7             	mov    rdi,rax
    3304:	e8 87 f8 ff ff       	call   2b90 <_Unwind_Resume@plt>
    3309:	90                   	nop
    330a:	48 83 c4 18          	add    rsp,0x18
    330e:	5b                   	pop    rbx
    330f:	5d                   	pop    rbp
    3310:	c3                   	ret    
    3311:	90                   	nop
    3312:	55                   	push   rbp
    3313:	48 89 e5             	mov    rbp,rsp
    3316:	48 83 ec 20          	sub    rsp,0x20
    331a:	48 89 7d e8          	mov    QWORD PTR [rbp-0x18],rdi
    331e:	48 8b 45 e8          	mov    rax,QWORD PTR [rbp-0x18]
    3322:	48 89 c7             	mov    rdi,rax
    3325:	e8 fe 00 00 00       	call   3428 <__cxa_finalize@plt+0x818>
    332a:	48 89 45 f8          	mov    QWORD PTR [rbp-0x8],rax
    332e:	48 8b 45 f8          	mov    rax,QWORD PTR [rbp-0x8]
    3332:	48 8b 00             	mov    rax,QWORD PTR [rax]
    3335:	48 85 c0             	test   rax,rax
    3338:	74 21                	je     335b <__cxa_finalize@plt+0x74b>
    333a:	48 8b 45 e8          	mov    rax,QWORD PTR [rbp-0x18]
    333e:	48 89 c7             	mov    rdi,rax
    3341:	e8 fc 00 00 00       	call   3442 <__cxa_finalize@plt+0x832>
    3346:	48 89 c2             	mov    rdx,rax
    3349:	48 8b 45 f8          	mov    rax,QWORD PTR [rbp-0x8]
    334d:	48 8b 00             	mov    rax,QWORD PTR [rax]
    3350:	48 89 c6             	mov    rsi,rax
    3353:	48 89 d7             	mov    rdi,rdx
    3356:	e8 51 01 00 00       	call   34ac <__cxa_finalize@plt+0x89c>
    335b:	48 8b 45 f8          	mov    rax,QWORD PTR [rbp-0x8]
    335f:	48 c7 00 00 00 00 00 	mov    QWORD PTR [rax],0x0
    3366:	90                   	nop
    3367:	c9                   	leave  
    3368:	c3                   	ret    
    3369:	90                   	nop
    336a:	55                   	push   rbp
    336b:	48 89 e5             	mov    rbp,rsp
    336e:	48 83 ec 30          	sub    rsp,0x30
    3372:	48 89 7d e8          	mov    QWORD PTR [rbp-0x18],rdi
    3376:	48 89 75 e0          	mov    QWORD PTR [rbp-0x20],rsi
    337a:	48 89 55 d8          	mov    QWORD PTR [rbp-0x28],rdx
    337e:	64 48 8b 04 25 28 00 	mov    rax,QWORD PTR fs:0x28
    3385:	00 00 
    3387:	48 89 45 f8          	mov    QWORD PTR [rbp-0x8],rax
    338b:	31 c0                	xor    eax,eax
    338d:	48 8b 45 d8          	mov    rax,QWORD PTR [rbp-0x28]
    3391:	48 89 c7             	mov    rdi,rax
    3394:	e8 e7 f6 ff ff       	call   2a80 <_ZNKSt7__cxx1112basic_stringIcSt11char_traitsIcESaIcEE4dataEv@plt>
    3399:	48 89 45 f0          	mov    QWORD PTR [rbp-0x10],rax
    339d:	48 8b 45 d8          	mov    rax,QWORD PTR [rbp-0x28]
    33a1:	48 89 c7             	mov    rdi,rax
    33a4:	e8 47 f5 ff ff       	call   28f0 <_ZNKSt7__cxx1112basic_stringIcSt11char_traitsIcESaIcEE4sizeEv@plt>
    33a9:	48 89 c2             	mov    rdx,rax
    33ac:	48 8b 45 f0          	mov    rax,QWORD PTR [rbp-0x10]
    33b0:	48 8d 0c 02          	lea    rcx,[rdx+rax*1]
    33b4:	48 8b 45 e8          	mov    rax,QWORD PTR [rbp-0x18]
    33b8:	48 8b 55 f0          	mov    rdx,QWORD PTR [rbp-0x10]
    33bc:	48 8b 75 e0          	mov    rsi,QWORD PTR [rbp-0x20]
    33c0:	48 89 c7             	mov    rdi,rax
    33c3:	e8 16 01 00 00       	call   34de <__cxa_finalize@plt+0x8ce>
    33c8:	48 8b 45 e8          	mov    rax,QWORD PTR [rbp-0x18]
    33cc:	48 8b 4d f8          	mov    rcx,QWORD PTR [rbp-0x8]
    33d0:	64 48 33 0c 25 28 00 	xor    rcx,QWORD PTR fs:0x28
    33d7:	00 00 
    33d9:	74 05                	je     33e0 <__cxa_finalize@plt+0x7d0>
    33db:	e8 20 f6 ff ff       	call   2a00 <__stack_chk_fail@plt>
    33e0:	c9                   	leave  
    33e1:	c3                   	ret    
    33e2:	55                   	push   rbp
    33e3:	48 89 e5             	mov    rbp,rsp
    33e6:	48 83 ec 10          	sub    rsp,0x10
    33ea:	48 89 7d f8          	mov    QWORD PTR [rbp-0x8],rdi
    33ee:	48 89 75 f0          	mov    QWORD PTR [rbp-0x10],rsi
    33f2:	48 8b 45 f8          	mov    rax,QWORD PTR [rbp-0x8]
    33f6:	48 8b 55 f0          	mov    rdx,QWORD PTR [rbp-0x10]
    33fa:	48 89 d6             	mov    rsi,rdx
    33fd:	48 89 c7             	mov    rdi,rax
    3400:	e8 2b 02 00 00       	call   3630 <__cxa_finalize@plt+0xa20>
    3405:	90                   	nop
    3406:	c9                   	leave  
    3407:	c3                   	ret    
    3408:	55                   	push   rbp
    3409:	48 89 e5             	mov    rbp,rsp
    340c:	48 83 ec 10          	sub    rsp,0x10
    3410:	48 89 7d f8          	mov    QWORD PTR [rbp-0x8],rdi
    3414:	48 8b 45 f8          	mov    rax,QWORD PTR [rbp-0x8]
    3418:	48 89 c7             	mov    rdi,rax
    341b:	e8 46 02 00 00       	call   3666 <__cxa_finalize@plt+0xa56>
    3420:	48 85 c0             	test   rax,rax
    3423:	0f 95 c0             	setne  al
    3426:	c9                   	leave  
    3427:	c3                   	ret    
    3428:	55                   	push   rbp
    3429:	48 89 e5             	mov    rbp,rsp
    342c:	48 83 ec 10          	sub    rsp,0x10
    3430:	48 89 7d f8          	mov    QWORD PTR [rbp-0x8],rdi
    3434:	48 8b 45 f8          	mov    rax,QWORD PTR [rbp-0x8]
    3438:	48 89 c7             	mov    rdi,rax
    343b:	e8 40 02 00 00       	call   3680 <__cxa_finalize@plt+0xa70>
    3440:	c9                   	leave  
    3441:	c3                   	ret    
    3442:	55                   	push   rbp
    3443:	48 89 e5             	mov    rbp,rsp
    3446:	48 83 ec 10          	sub    rsp,0x10
    344a:	48 89 7d f8          	mov    QWORD PTR [rbp-0x8],rdi
    344e:	48 8b 45 f8          	mov    rax,QWORD PTR [rbp-0x8]
    3452:	48 89 c7             	mov    rdi,rax
    3455:	e8 40 02 00 00       	call   369a <__cxa_finalize@plt+0xa8a>
    345a:	c9                   	leave  
    345b:	c3                   	ret    
    345c:	55                   	push   rbp
    345d:	48 89 e5             	mov    rbp,rsp
    3460:	48 83 ec 10          	sub    rsp,0x10
    3464:	48 89 7d f8          	mov    QWORD PTR [rbp-0x8],rdi
    3468:	48 8d 15 79 a6 20 00 	lea    rdx,[rip+0x20a679]        # 20dae8 <_ZTVSt19__codecvt_utf8_baseIwE@@GLIBCXX_3.4.21+0x68>
    346f:	48 8b 45 f8          	mov    rax,QWORD PTR [rbp-0x8]
    3473:	48 89 10             	mov    QWORD PTR [rax],rdx
    3476:	48 8b 45 f8          	mov    rax,QWORD PTR [rbp-0x8]
    347a:	48 89 c7             	mov    rdi,rax
    347d:	e8 7e f3 ff ff       	call   2800 <_ZNSt19__codecvt_utf8_baseIwED2Ev@plt>
    3482:	90                   	nop
    3483:	c9                   	leave  
    3484:	c3                   	ret    
    3485:	90                   	nop
    3486:	55                   	push   rbp
    3487:	48 89 e5             	mov    rbp,rsp
    348a:	48 83 ec 10          	sub    rsp,0x10
    348e:	48 89 7d f8          	mov    QWORD PTR [rbp-0x8],rdi
    3492:	48 8b 45 f8          	mov    rax,QWORD PTR [rbp-0x8]
    3496:	48 89 c7             	mov    rdi,rax
    3499:	e8 be ff ff ff       	call   345c <__cxa_finalize@plt+0x84c>
    349e:	48 8b 45 f8          	mov    rax,QWORD PTR [rbp-0x8]
    34a2:	48 89 c7             	mov    rdi,rax
    34a5:	e8 e6 f4 ff ff       	call   2990 <_ZdlPv@plt>
    34aa:	c9                   	leave  
    34ab:	c3                   	ret    
    34ac:	55                   	push   rbp
    34ad:	48 89 e5             	mov    rbp,rsp
    34b0:	48 83 ec 10          	sub    rsp,0x10
    34b4:	48 89 7d f8          	mov    QWORD PTR [rbp-0x8],rdi
    34b8:	48 89 75 f0          	mov    QWORD PTR [rbp-0x10],rsi
    34bc:	48 83 7d f0 00       	cmp    QWORD PTR [rbp-0x10],0x0
    34c1:	74 17                	je     34da <__cxa_finalize@plt+0x8ca>
    34c3:	48 8b 45 f0          	mov    rax,QWORD PTR [rbp-0x10]
    34c7:	48 8b 00             	mov    rax,QWORD PTR [rax]
    34ca:	48 83 c0 08          	add    rax,0x8
    34ce:	48 8b 00             	mov    rax,QWORD PTR [rax]
    34d1:	48 8b 55 f0          	mov    rdx,QWORD PTR [rbp-0x10]
    34d5:	48 89 d7             	mov    rdi,rdx
    34d8:	ff d0                	call   rax
    34da:	90                   	nop
    34db:	c9                   	leave  
    34dc:	c3                   	ret    
    34dd:	90                   	nop
    34de:	55                   	push   rbp
    34df:	48 89 e5             	mov    rbp,rsp
    34e2:	41 54                	push   r12
    34e4:	53                   	push   rbx
    34e5:	48 83 ec 60          	sub    rsp,0x60
    34e9:	48 89 7d a8          	mov    QWORD PTR [rbp-0x58],rdi
    34ed:	48 89 75 a0          	mov    QWORD PTR [rbp-0x60],rsi
    34f1:	48 89 55 98          	mov    QWORD PTR [rbp-0x68],rdx
    34f5:	48 89 4d 90          	mov    QWORD PTR [rbp-0x70],rcx
    34f9:	64 48 8b 04 25 28 00 	mov    rax,QWORD PTR fs:0x28
    3500:	00 00 
    3502:	48 89 45 e8          	mov    QWORD PTR [rbp-0x18],rax
    3506:	31 c0                	xor    eax,eax
    3508:	48 8b 45 a0          	mov    rax,QWORD PTR [rbp-0x60]
    350c:	0f b6 40 58          	movzx  eax,BYTE PTR [rax+0x58]
    3510:	83 f0 01             	xor    eax,0x1
    3513:	84 c0                	test   al,al
    3515:	74 16                	je     352d <__cxa_finalize@plt+0x91d>
    3517:	48 8b 45 a0          	mov    rax,QWORD PTR [rbp-0x60]
    351b:	c7 40 48 00 00 00 00 	mov    DWORD PTR [rax+0x48],0x0
    3522:	48 8b 45 a0          	mov    rax,QWORD PTR [rbp-0x60]
    3526:	c7 40 4c 00 00 00 00 	mov    DWORD PTR [rax+0x4c],0x0
    352d:	48 8b 45 a0          	mov    rax,QWORD PTR [rbp-0x60]
    3531:	48 8d 50 28          	lea    rdx,[rax+0x28]
    3535:	48 8d 45 bf          	lea    rax,[rbp-0x41]
    3539:	48 89 d6             	mov    rsi,rdx
    353c:	48 89 c7             	mov    rdi,rax
    353f:	e8 3c f2 ff ff       	call   2780 <_ZNKSt7__cxx1112basic_stringIwSt11char_traitsIwESaIwEE13get_allocatorEv@plt>
    3544:	48 8d 55 bf          	lea    rdx,[rbp-0x41]
    3548:	48 8d 45 c0          	lea    rax,[rbp-0x40]
    354c:	48 89 d6             	mov    rsi,rdx
    354f:	48 89 c7             	mov    rdi,rax
    3552:	e8 99 f4 ff ff       	call   29f0 <_ZNSt7__cxx1112basic_stringIwSt11char_traitsIwESaIwEEC1ERKS3_@plt>
    3557:	48 8d 45 bf          	lea    rax,[rbp-0x41]
    355b:	48 89 c7             	mov    rdi,rax
    355e:	e8 3d f6 ff ff       	call   2ba0 <_ZNSaIwED1Ev@plt>
    3563:	48 8b 45 a0          	mov    rax,QWORD PTR [rbp-0x60]
    3567:	4c 8d 60 50          	lea    r12,[rax+0x50]
    356b:	48 8b 45 a0          	mov    rax,QWORD PTR [rbp-0x60]
    356f:	48 8d 58 48          	lea    rbx,[rax+0x48]
    3573:	48 8b 45 a0          	mov    rax,QWORD PTR [rbp-0x60]
    3577:	48 89 c7             	mov    rdi,rax
    357a:	e8 35 01 00 00       	call   36b4 <__cxa_finalize@plt+0xaa4>
    357f:	48 89 c1             	mov    rcx,rax
    3582:	48 8d 55 c0          	lea    rdx,[rbp-0x40]
    3586:	48 8b 75 90          	mov    rsi,QWORD PTR [rbp-0x70]
    358a:	48 8b 45 98          	mov    rax,QWORD PTR [rbp-0x68]
    358e:	4d 89 e1             	mov    r9,r12
    3591:	49 89 d8             	mov    r8,rbx
    3594:	48 89 c7             	mov    rdi,rax
    3597:	e8 32 01 00 00       	call   36ce <__cxa_finalize@plt+0xabe>
    359c:	84 c0                	test   al,al
    359e:	74 15                	je     35b5 <__cxa_finalize@plt+0x9a5>
    35a0:	48 8d 55 c0          	lea    rdx,[rbp-0x40]
    35a4:	48 8b 45 a8          	mov    rax,QWORD PTR [rbp-0x58]
    35a8:	48 89 d6             	mov    rsi,rdx
    35ab:	48 89 c7             	mov    rdi,rax
    35ae:	e8 ad f4 ff ff       	call   2a60 <_ZNSt7__cxx1112basic_stringIwSt11char_traitsIwESaIwEEC1EOS4_@plt>
    35b3:	eb 31                	jmp    35e6 <__cxa_finalize@plt+0x9d6>
    35b5:	48 8b 45 a0          	mov    rax,QWORD PTR [rbp-0x60]
    35b9:	0f b6 40 59          	movzx  eax,BYTE PTR [rax+0x59]
    35bd:	84 c0                	test   al,al
    35bf:	74 19                	je     35da <__cxa_finalize@plt+0x9ca>
    35c1:	48 8b 45 a0          	mov    rax,QWORD PTR [rbp-0x60]
    35c5:	48 8d 50 28          	lea    rdx,[rax+0x28]
    35c9:	48 8b 45 a8          	mov    rax,QWORD PTR [rbp-0x58]
    35cd:	48 89 d6             	mov    rsi,rdx
    35d0:	48 89 c7             	mov    rdi,rax
    35d3:	e8 98 f3 ff ff       	call   2970 <_ZNSt7__cxx1112basic_stringIwSt11char_traitsIwESaIwEEC1ERKS4_@plt>
    35d8:	eb 0c                	jmp    35e6 <__cxa_finalize@plt+0x9d6>
    35da:	48 8d 3d 96 60 00 00 	lea    rdi,[rip+0x6096]        # 9677 <__cxa_finalize@plt+0x6a67>
    35e1:	e8 3a f3 ff ff       	call   2920 <_ZSt19__throw_range_errorPKc@plt>
    35e6:	48 8d 45 c0          	lea    rax,[rbp-0x40]
    35ea:	48 89 c7             	mov    rdi,rax
    35ed:	e8 4e f5 ff ff       	call   2b40 <_ZNSt7__cxx1112basic_stringIwSt11char_traitsIwESaIwEED1Ev@plt>
    35f2:	48 8b 45 a8          	mov    rax,QWORD PTR [rbp-0x58]
    35f6:	48 8b 4d e8          	mov    rcx,QWORD PTR [rbp-0x18]
    35fa:	64 48 33 0c 25 28 00 	xor    rcx,QWORD PTR fs:0x28
    3601:	00 00 
    3603:	74 21                	je     3626 <__cxa_finalize@plt+0xa16>
    3605:	eb 1a                	jmp    3621 <__cxa_finalize@plt+0xa11>
    3607:	48 89 c3             	mov    rbx,rax
    360a:	48 8d 45 c0          	lea    rax,[rbp-0x40]
    360e:	48 89 c7             	mov    rdi,rax
    3611:	e8 2a f5 ff ff       	call   2b40 <_ZNSt7__cxx1112basic_stringIwSt11char_traitsIwESaIwEED1Ev@plt>
    3616:	48 89 d8             	mov    rax,rbx
    3619:	48 89 c7             	mov    rdi,rax
    361c:	e8 6f f5 ff ff       	call   2b90 <_Unwind_Resume@plt>
    3621:	e8 da f3 ff ff       	call   2a00 <__stack_chk_fail@plt>
    3626:	48 83 c4 60          	add    rsp,0x60
    362a:	5b                   	pop    rbx
    362b:	41 5c                	pop    r12
    362d:	5d                   	pop    rbp
    362e:	c3                   	ret    
    362f:	90                   	nop
    3630:	55                   	push   rbp
    3631:	48 89 e5             	mov    rbp,rsp
    3634:	48 83 ec 10          	sub    rsp,0x10
    3638:	48 89 7d f8          	mov    QWORD PTR [rbp-0x8],rdi
    363c:	48 89 75 f0          	mov    QWORD PTR [rbp-0x10],rsi
    3640:	48 8b 45 f8          	mov    rax,QWORD PTR [rbp-0x8]
    3644:	48 89 c7             	mov    rdi,rax
    3647:	e8 e8 00 00 00       	call   3734 <__cxa_finalize@plt+0xb24>
    364c:	48 8b 45 f8          	mov    rax,QWORD PTR [rbp-0x8]
    3650:	48 89 c7             	mov    rdi,rax
    3653:	e8 d0 fd ff ff       	call   3428 <__cxa_finalize@plt+0x818>
    3658:	48 89 c2             	mov    rdx,rax
    365b:	48 8b 45 f0          	mov    rax,QWORD PTR [rbp-0x10]
    365f:	48 89 02             	mov    QWORD PTR [rdx],rax
    3662:	90                   	nop
    3663:	c9                   	leave  
    3664:	c3                   	ret    
    3665:	90                   	nop
    3666:	55                   	push   rbp
    3667:	48 89 e5             	mov    rbp,rsp
    366a:	48 83 ec 10          	sub    rsp,0x10
    366e:	48 89 7d f8          	mov    QWORD PTR [rbp-0x8],rdi
    3672:	48 8b 45 f8          	mov    rax,QWORD PTR [rbp-0x8]
    3676:	48 89 c7             	mov    rdi,rax
    3679:	e8 d2 00 00 00       	call   3750 <__cxa_finalize@plt+0xb40>
    367e:	c9                   	leave  
    367f:	c3                   	ret    
    3680:	55                   	push   rbp
    3681:	48 89 e5             	mov    rbp,rsp
    3684:	48 83 ec 10          	sub    rsp,0x10
    3688:	48 89 7d f8          	mov    QWORD PTR [rbp-0x8],rdi
    368c:	48 8b 45 f8          	mov    rax,QWORD PTR [rbp-0x8]
    3690:	48 89 c7             	mov    rdi,rax
    3693:	e8 d5 00 00 00       	call   376d <__cxa_finalize@plt+0xb5d>
    3698:	c9                   	leave  
    3699:	c3                   	ret    
    369a:	55                   	push   rbp
    369b:	48 89 e5             	mov    rbp,rsp
    369e:	48 83 ec 10          	sub    rsp,0x10
    36a2:	48 89 7d f8          	mov    QWORD PTR [rbp-0x8],rdi
    36a6:	48 8b 45 f8          	mov    rax,QWORD PTR [rbp-0x8]
    36aa:	48 89 c7             	mov    rdi,rax
    36ad:	e8 d5 00 00 00       	call   3787 <__cxa_finalize@plt+0xb77>
    36b2:	c9                   	leave  
    36b3:	c3                   	ret    
    36b4:	55                   	push   rbp
    36b5:	48 89 e5             	mov    rbp,rsp
    36b8:	48 83 ec 10          	sub    rsp,0x10
    36bc:	48 89 7d f8          	mov    QWORD PTR [rbp-0x8],rdi
    36c0:	48 8b 45 f8          	mov    rax,QWORD PTR [rbp-0x8]
    36c4:	48 89 c7             	mov    rdi,rax
    36c7:	e8 9a ff ff ff       	call   3666 <__cxa_finalize@plt+0xa56>
    36cc:	c9                   	leave  
    36cd:	c3                   	ret    
    36ce:	55                   	push   rbp
    36cf:	48 89 e5             	mov    rbp,rsp
    36d2:	48 83 ec 40          	sub    rsp,0x40
    36d6:	48 89 7d e8          	mov    QWORD PTR [rbp-0x18],rdi
    36da:	48 89 75 e0          	mov    QWORD PTR [rbp-0x20],rsi
    36de:	48 89 55 d8          	mov    QWORD PTR [rbp-0x28],rdx
    36e2:	48 89 4d d0          	mov    QWORD PTR [rbp-0x30],rcx
    36e6:	4c 89 45 c8          	mov    QWORD PTR [rbp-0x38],r8
    36ea:	4c 89 4d c0          	mov    QWORD PTR [rbp-0x40],r9
    36ee:	48 8d 05 ad 00 00 00 	lea    rax,[rip+0xad]        # 37a2 <__cxa_finalize@plt+0xb92>
    36f5:	48 89 45 f0          	mov    QWORD PTR [rbp-0x10],rax
    36f9:	48 c7 45 f8 00 00 00 	mov    QWORD PTR [rbp-0x8],0x0
    3700:	00 
    3701:	4c 8b 45 c0          	mov    r8,QWORD PTR [rbp-0x40]
    3705:	48 8b 7d c8          	mov    rdi,QWORD PTR [rbp-0x38]
    3709:	48 8b 4d d0          	mov    rcx,QWORD PTR [rbp-0x30]
    370d:	48 8b 55 d8          	mov    rdx,QWORD PTR [rbp-0x28]
    3711:	48 8b 75 e0          	mov    rsi,QWORD PTR [rbp-0x20]
    3715:	48 8b 45 e8          	mov    rax,QWORD PTR [rbp-0x18]
    3719:	ff 75 f8             	push   QWORD PTR [rbp-0x8]
    371c:	ff 75 f0             	push   QWORD PTR [rbp-0x10]
    371f:	4d 89 c1             	mov    r9,r8
    3722:	49 89 f8             	mov    r8,rdi
    3725:	48 89 c7             	mov    rdi,rax
    3728:	e8 c9 00 00 00       	call   37f6 <__cxa_finalize@plt+0xbe6>
    372d:	48 83 c4 10          	add    rsp,0x10
    3731:	c9                   	leave  
    3732:	c3                   	ret    
    3733:	90                   	nop
    3734:	55                   	push   rbp
    3735:	48 89 e5             	mov    rbp,rsp
    3738:	48 83 ec 10          	sub    rsp,0x10
    373c:	48 89 7d f8          	mov    QWORD PTR [rbp-0x8],rdi
    3740:	48 8b 45 f8          	mov    rax,QWORD PTR [rbp-0x8]
    3744:	48 89 c7             	mov    rdi,rax
    3747:	e8 0a 03 00 00       	call   3a56 <__cxa_finalize@plt+0xe46>
    374c:	90                   	nop
    374d:	c9                   	leave  
    374e:	c3                   	ret    
    374f:	90                   	nop
    3750:	55                   	push   rbp
    3751:	48 89 e5             	mov    rbp,rsp
    3754:	48 83 ec 10          	sub    rsp,0x10
    3758:	48 89 7d f8          	mov    QWORD PTR [rbp-0x8],rdi
    375c:	48 8b 45 f8          	mov    rax,QWORD PTR [rbp-0x8]
    3760:	48 89 c7             	mov    rdi,rax
    3763:	e8 15 03 00 00       	call   3a7d <__cxa_finalize@plt+0xe6d>
    3768:	48 8b 00             	mov    rax,QWORD PTR [rax]
    376b:	c9                   	leave  
    376c:	c3                   	ret    
    376d:	55                   	push   rbp
    376e:	48 89 e5             	mov    rbp,rsp
    3771:	48 83 ec 10          	sub    rsp,0x10
    3775:	48 89 7d f8          	mov    QWORD PTR [rbp-0x8],rdi
    3779:	48 8b 45 f8          	mov    rax,QWORD PTR [rbp-0x8]
    377d:	48 89 c7             	mov    rdi,rax
    3780:	e8 12 03 00 00       	call   3a97 <__cxa_finalize@plt+0xe87>
    3785:	c9                   	leave  
    3786:	c3                   	ret    
    3787:	55                   	push   rbp
    3788:	48 89 e5             	mov    rbp,rsp
    378b:	48 83 ec 10          	sub    rsp,0x10
    378f:	48 89 7d f8          	mov    QWORD PTR [rbp-0x8],rdi
    3793:	48 8b 45 f8          	mov    rax,QWORD PTR [rbp-0x8]
    3797:	48 89 c7             	mov    rdi,rax
    379a:	e8 12 03 00 00       	call   3ab1 <__cxa_finalize@plt+0xea1>
    379f:	c9                   	leave  
    37a0:	c3                   	ret    
    37a1:	90                   	nop
    37a2:	55                   	push   rbp
    37a3:	48 89 e5             	mov    rbp,rsp
    37a6:	48 83 ec 30          	sub    rsp,0x30
    37aa:	48 89 7d f8          	mov    QWORD PTR [rbp-0x8],rdi
    37ae:	48 89 75 f0          	mov    QWORD PTR [rbp-0x10],rsi
    37b2:	48 89 55 e8          	mov    QWORD PTR [rbp-0x18],rdx
    37b6:	48 89 4d e0          	mov    QWORD PTR [rbp-0x20],rcx
    37ba:	4c 89 45 d8          	mov    QWORD PTR [rbp-0x28],r8
    37be:	4c 89 4d d0          	mov    QWORD PTR [rbp-0x30],r9
    37c2:	48 8b 45 f8          	mov    rax,QWORD PTR [rbp-0x8]
    37c6:	48 8b 00             	mov    rax,QWORD PTR [rax]
    37c9:	48 83 c0 20          	add    rax,0x20
    37cd:	48 8b 00             	mov    rax,QWORD PTR [rax]
    37d0:	4c 8b 4d d0          	mov    r9,QWORD PTR [rbp-0x30]
    37d4:	4c 8b 45 d8          	mov    r8,QWORD PTR [rbp-0x28]
    37d8:	48 8b 4d e0          	mov    rcx,QWORD PTR [rbp-0x20]
    37dc:	48 8b 55 e8          	mov    rdx,QWORD PTR [rbp-0x18]
    37e0:	48 8b 75 f0          	mov    rsi,QWORD PTR [rbp-0x10]
    37e4:	48 8b 7d f8          	mov    rdi,QWORD PTR [rbp-0x8]
    37e8:	ff 75 18             	push   QWORD PTR [rbp+0x18]
    37eb:	ff 75 10             	push   QWORD PTR [rbp+0x10]
    37ee:	ff d0                	call   rax
    37f0:	48 83 c4 10          	add    rsp,0x10
    37f4:	c9                   	leave  
    37f5:	c3                   	ret    
    37f6:	55                   	push   rbp
    37f7:	48 89 e5             	mov    rbp,rsp
    37fa:	53                   	push   rbx
    37fb:	48 83 ec 68          	sub    rsp,0x68
    37ff:	48 89 7d b8          	mov    QWORD PTR [rbp-0x48],rdi
    3803:	48 89 75 b0          	mov    QWORD PTR [rbp-0x50],rsi
    3807:	48 89 55 a8          	mov    QWORD PTR [rbp-0x58],rdx
    380b:	48 89 4d a0          	mov    QWORD PTR [rbp-0x60],rcx
    380f:	4c 89 45 98          	mov    QWORD PTR [rbp-0x68],r8
    3813:	4c 89 4d 90          	mov    QWORD PTR [rbp-0x70],r9
    3817:	64 48 8b 04 25 28 00 	mov    rax,QWORD PTR fs:0x28
    381e:	00 00 
    3820:	48 89 45 e8          	mov    QWORD PTR [rbp-0x18],rax
    3824:	31 c0                	xor    eax,eax
    3826:	48 8b 45 b8          	mov    rax,QWORD PTR [rbp-0x48]
    382a:	48 3b 45 b0          	cmp    rax,QWORD PTR [rbp-0x50]
    382e:	75 21                	jne    3851 <__cxa_finalize@plt+0xc41>
    3830:	48 8b 45 a8          	mov    rax,QWORD PTR [rbp-0x58]
    3834:	48 89 c7             	mov    rdi,rax
    3837:	e8 e4 f1 ff ff       	call   2a20 <_ZNSt7__cxx1112basic_stringIwSt11char_traitsIwESaIwEE5clearEv@plt>
    383c:	48 8b 45 90          	mov    rax,QWORD PTR [rbp-0x70]
    3840:	48 c7 00 00 00 00 00 	mov    QWORD PTR [rax],0x0
    3847:	b8 01 00 00 00       	mov    eax,0x1
    384c:	e9 ea 01 00 00       	jmp    3a3b <__cxa_finalize@plt+0xe2b>
    3851:	48 c7 45 d8 00 00 00 	mov    QWORD PTR [rbp-0x28],0x0
    3858:	00 
    3859:	48 8b 45 b8          	mov    rax,QWORD PTR [rbp-0x48]
    385d:	48 89 45 c8          	mov    QWORD PTR [rbp-0x38],rax
    3861:	48 8b 45 a0          	mov    rax,QWORD PTR [rbp-0x60]
    3865:	48 89 c7             	mov    rdi,rax
    3868:	e8 5f 02 00 00       	call   3acc <__cxa_finalize@plt+0xebc>
    386d:	83 c0 01             	add    eax,0x1
    3870:	89 45 c0             	mov    DWORD PTR [rbp-0x40],eax
    3873:	48 8b 45 a8          	mov    rax,QWORD PTR [rbp-0x58]
    3877:	48 89 c7             	mov    rdi,rax
    387a:	e8 91 f0 ff ff       	call   2910 <_ZNKSt7__cxx1112basic_stringIwSt11char_traitsIwESaIwEE4sizeEv@plt>
    387f:	48 89 c1             	mov    rcx,rax
    3882:	48 8b 45 b0          	mov    rax,QWORD PTR [rbp-0x50]
    3886:	48 8b 55 c8          	mov    rdx,QWORD PTR [rbp-0x38]
    388a:	48 29 d0             	sub    rax,rdx
    388d:	48 89 c2             	mov    rdx,rax
    3890:	8b 45 c0             	mov    eax,DWORD PTR [rbp-0x40]
    3893:	48 98                	cdqe   
    3895:	48 0f af c2          	imul   rax,rdx
    3899:	48 8d 14 01          	lea    rdx,[rcx+rax*1]
    389d:	48 8b 45 a8          	mov    rax,QWORD PTR [rbp-0x58]
    38a1:	48 89 d6             	mov    rsi,rdx
    38a4:	48 89 c7             	mov    rdi,rax
    38a7:	e8 34 f3 ff ff       	call   2be0 <_ZNSt7__cxx1112basic_stringIwSt11char_traitsIwESaIwEE6resizeEm@plt>
    38ac:	48 8b 45 a8          	mov    rax,QWORD PTR [rbp-0x58]
    38b0:	48 89 c7             	mov    rdi,rax
    38b3:	e8 28 f2 ff ff       	call   2ae0 <_ZNSt7__cxx1112basic_stringIwSt11char_traitsIwESaIwEE5frontEv@plt>
    38b8:	48 89 c2             	mov    rdx,rax
    38bb:	48 8b 45 d8          	mov    rax,QWORD PTR [rbp-0x28]
    38bf:	48 c1 e0 02          	shl    rax,0x2
    38c3:	48 01 d0             	add    rax,rdx
    38c6:	48 89 45 d0          	mov    QWORD PTR [rbp-0x30],rax
    38ca:	48 8b 45 a8          	mov    rax,QWORD PTR [rbp-0x58]
    38ce:	48 89 c7             	mov    rdi,rax
    38d1:	e8 3a ef ff ff       	call   2810 <_ZNSt7__cxx1112basic_stringIwSt11char_traitsIwESaIwEE4backEv@plt>
    38d6:	48 83 c0 04          	add    rax,0x4
    38da:	48 89 45 e0          	mov    QWORD PTR [rbp-0x20],rax
    38de:	48 8b 45 18          	mov    rax,QWORD PTR [rbp+0x18]
    38e2:	48 89 c2             	mov    rdx,rax
    38e5:	48 8b 45 a0          	mov    rax,QWORD PTR [rbp-0x60]
    38e9:	4c 8d 14 02          	lea    r10,[rdx+rax*1]
    38ed:	48 8b 45 10          	mov    rax,QWORD PTR [rbp+0x10]
    38f1:	83 e0 01             	and    eax,0x1
    38f4:	48 85 c0             	test   rax,rax
    38f7:	74 21                	je     391a <__cxa_finalize@plt+0xd0a>
    38f9:	48 8b 45 18          	mov    rax,QWORD PTR [rbp+0x18]
    38fd:	48 89 c2             	mov    rdx,rax
    3900:	48 8b 45 a0          	mov    rax,QWORD PTR [rbp-0x60]
    3904:	48 01 d0             	add    rax,rdx
    3907:	48 8b 00             	mov    rax,QWORD PTR [rax]
    390a:	48 8b 55 10          	mov    rdx,QWORD PTR [rbp+0x10]
    390e:	48 83 ea 01          	sub    rdx,0x1
    3912:	48 01 d0             	add    rax,rdx
    3915:	48 8b 00             	mov    rax,QWORD PTR [rax]
    3918:	eb 04                	jmp    391e <__cxa_finalize@plt+0xd0e>
    391a:	48 8b 45 10          	mov    rax,QWORD PTR [rbp+0x10]
    391e:	4c 8b 4d d0          	mov    r9,QWORD PTR [rbp-0x30]
    3922:	48 8b 55 c8          	mov    rdx,QWORD PTR [rbp-0x38]
    3926:	4c 8d 45 c8          	lea    r8,[rbp-0x38]
    392a:	48 8b 4d b0          	mov    rcx,QWORD PTR [rbp-0x50]
    392e:	48 8b 75 98          	mov    rsi,QWORD PTR [rbp-0x68]
    3932:	48 8d 7d d0          	lea    rdi,[rbp-0x30]
    3936:	57                   	push   rdi
    3937:	ff 75 e0             	push   QWORD PTR [rbp-0x20]
    393a:	4c 89 d7             	mov    rdi,r10
    393d:	ff d0                	call   rax
    393f:	48 83 c4 10          	add    rsp,0x10
    3943:	89 45 c4             	mov    DWORD PTR [rbp-0x3c],eax
    3946:	48 8b 45 d0          	mov    rax,QWORD PTR [rbp-0x30]
    394a:	48 89 c3             	mov    rbx,rax
    394d:	48 8b 45 a8          	mov    rax,QWORD PTR [rbp-0x58]
    3951:	48 89 c7             	mov    rdi,rax
    3954:	e8 87 f1 ff ff       	call   2ae0 <_ZNSt7__cxx1112basic_stringIwSt11char_traitsIwESaIwEE5frontEv@plt>
    3959:	48 29 c3             	sub    rbx,rax
    395c:	48 89 d8             	mov    rax,rbx
    395f:	48 c1 f8 02          	sar    rax,0x2
    3963:	48 89 45 d8          	mov    QWORD PTR [rbp-0x28],rax
    3967:	83 7d c4 01          	cmp    DWORD PTR [rbp-0x3c],0x1
    396b:	75 2e                	jne    399b <__cxa_finalize@plt+0xd8b>
    396d:	48 8b 45 c8          	mov    rax,QWORD PTR [rbp-0x38]
    3971:	48 39 45 b0          	cmp    QWORD PTR [rbp-0x50],rax
    3975:	74 24                	je     399b <__cxa_finalize@plt+0xd8b>
    3977:	48 8b 45 a8          	mov    rax,QWORD PTR [rbp-0x58]
    397b:	48 89 c7             	mov    rdi,rax
    397e:	e8 8d ef ff ff       	call   2910 <_ZNKSt7__cxx1112basic_stringIwSt11char_traitsIwESaIwEE4sizeEv@plt>
    3983:	48 2b 45 d8          	sub    rax,QWORD PTR [rbp-0x28]
    3987:	48 89 c2             	mov    rdx,rax
    398a:	8b 45 c0             	mov    eax,DWORD PTR [rbp-0x40]
    398d:	48 98                	cdqe   
    398f:	48 39 c2             	cmp    rdx,rax
    3992:	73 07                	jae    399b <__cxa_finalize@plt+0xd8b>
    3994:	b8 01 00 00 00       	mov    eax,0x1
    3999:	eb 05                	jmp    39a0 <__cxa_finalize@plt+0xd90>
    399b:	b8 00 00 00 00       	mov    eax,0x0
    39a0:	84 c0                	test   al,al
    39a2:	74 05                	je     39a9 <__cxa_finalize@plt+0xd99>
    39a4:	e9 ca fe ff ff       	jmp    3873 <__cxa_finalize@plt+0xc63>
    39a9:	83 7d c4 02          	cmp    DWORD PTR [rbp-0x3c],0x2
    39ad:	75 22                	jne    39d1 <__cxa_finalize@plt+0xdc1>
    39af:	48 8b 45 c8          	mov    rax,QWORD PTR [rbp-0x38]
    39b3:	48 89 c2             	mov    rdx,rax
    39b6:	48 8b 45 b8          	mov    rax,QWORD PTR [rbp-0x48]
    39ba:	48 29 c2             	sub    rdx,rax
    39bd:	48 89 d0             	mov    rax,rdx
    39c0:	48 89 c2             	mov    rdx,rax
    39c3:	48 8b 45 90          	mov    rax,QWORD PTR [rbp-0x70]
    39c7:	48 89 10             	mov    QWORD PTR [rax],rdx
    39ca:	b8 00 00 00 00       	mov    eax,0x0
    39cf:	eb 6a                	jmp    3a3b <__cxa_finalize@plt+0xe2b>
    39d1:	83 7d c4 03          	cmp    DWORD PTR [rbp-0x3c],0x3
    39d5:	75 31                	jne    3a08 <__cxa_finalize@plt+0xdf8>
    39d7:	48 8b 55 b0          	mov    rdx,QWORD PTR [rbp-0x50]
    39db:	48 8b 4d b8          	mov    rcx,QWORD PTR [rbp-0x48]
    39df:	48 8b 45 a8          	mov    rax,QWORD PTR [rbp-0x58]
    39e3:	48 89 ce             	mov    rsi,rcx
    39e6:	48 89 c7             	mov    rdi,rax
    39e9:	e8 04 01 00 00       	call   3af2 <__cxa_finalize@plt+0xee2>
    39ee:	48 8b 55 b0          	mov    rdx,QWORD PTR [rbp-0x50]
    39f2:	48 8b 45 b8          	mov    rax,QWORD PTR [rbp-0x48]
    39f6:	48 29 c2             	sub    rdx,rax
    39f9:	48 89 d0             	mov    rax,rdx
    39fc:	48 89 c2             	mov    rdx,rax
    39ff:	48 8b 45 90          	mov    rax,QWORD PTR [rbp-0x70]
    3a03:	48 89 10             	mov    QWORD PTR [rax],rdx
    3a06:	eb 2e                	jmp    3a36 <__cxa_finalize@plt+0xe26>
    3a08:	48 8b 55 d8          	mov    rdx,QWORD PTR [rbp-0x28]
    3a0c:	48 8b 45 a8          	mov    rax,QWORD PTR [rbp-0x58]
    3a10:	48 89 d6             	mov    rsi,rdx
    3a13:	48 89 c7             	mov    rdi,rax
    3a16:	e8 c5 f1 ff ff       	call   2be0 <_ZNSt7__cxx1112basic_stringIwSt11char_traitsIwESaIwEE6resizeEm@plt>
    3a1b:	48 8b 45 c8          	mov    rax,QWORD PTR [rbp-0x38]
    3a1f:	48 89 c2             	mov    rdx,rax
    3a22:	48 8b 45 b8          	mov    rax,QWORD PTR [rbp-0x48]
    3a26:	48 29 c2             	sub    rdx,rax
    3a29:	48 89 d0             	mov    rax,rdx
    3a2c:	48 89 c2             	mov    rdx,rax
    3a2f:	48 8b 45 90          	mov    rax,QWORD PTR [rbp-0x70]
    3a33:	48 89 10             	mov    QWORD PTR [rax],rdx
    3a36:	b8 01 00 00 00       	mov    eax,0x1
    3a3b:	48 8b 5d e8          	mov    rbx,QWORD PTR [rbp-0x18]
    3a3f:	64 48 33 1c 25 28 00 	xor    rbx,QWORD PTR fs:0x28
    3a46:	00 00 
    3a48:	74 05                	je     3a4f <__cxa_finalize@plt+0xe3f>
    3a4a:	e8 b1 ef ff ff       	call   2a00 <__stack_chk_fail@plt>
    3a4f:	48 8b 5d f8          	mov    rbx,QWORD PTR [rbp-0x8]
    3a53:	c9                   	leave  
    3a54:	c3                   	ret    
    3a55:	90                   	nop
    3a56:	55                   	push   rbp
    3a57:	48 89 e5             	mov    rbp,rsp
    3a5a:	48 83 ec 10          	sub    rsp,0x10
    3a5e:	48 89 7d f8          	mov    QWORD PTR [rbp-0x8],rdi
    3a62:	48 8b 45 f8          	mov    rax,QWORD PTR [rbp-0x8]
    3a66:	48 89 c7             	mov    rdi,rax
    3a69:	e8 22 01 00 00       	call   3b90 <__cxa_finalize@plt+0xf80>
    3a6e:	48 8b 45 f8          	mov    rax,QWORD PTR [rbp-0x8]
    3a72:	48 89 c7             	mov    rdi,rax
    3a75:	e8 32 01 00 00       	call   3bac <__cxa_finalize@plt+0xf9c>
    3a7a:	90                   	nop
    3a7b:	c9                   	leave  
    3a7c:	c3                   	ret    
    3a7d:	55                   	push   rbp
    3a7e:	48 89 e5             	mov    rbp,rsp
    3a81:	48 83 ec 10          	sub    rsp,0x10
    3a85:	48 89 7d f8          	mov    QWORD PTR [rbp-0x8],rdi
    3a89:	48 8b 45 f8          	mov    rax,QWORD PTR [rbp-0x8]
    3a8d:	48 89 c7             	mov    rdi,rax
    3a90:	e8 2d 01 00 00       	call   3bc2 <__cxa_finalize@plt+0xfb2>
    3a95:	c9                   	leave  
    3a96:	c3                   	ret    
    3a97:	55                   	push   rbp
    3a98:	48 89 e5             	mov    rbp,rsp
    3a9b:	48 83 ec 10          	sub    rsp,0x10
    3a9f:	48 89 7d f8          	mov    QWORD PTR [rbp-0x8],rdi
    3aa3:	48 8b 45 f8          	mov    rax,QWORD PTR [rbp-0x8]
    3aa7:	48 89 c7             	mov    rdi,rax
    3aaa:	e8 2d 01 00 00       	call   3bdc <__cxa_finalize@plt+0xfcc>
    3aaf:	c9                   	leave  
    3ab0:	c3                   	ret    
    3ab1:	55                   	push   rbp
    3ab2:	48 89 e5             	mov    rbp,rsp
    3ab5:	48 83 ec 10          	sub    rsp,0x10
    3ab9:	48 89 7d f8          	mov    QWORD PTR [rbp-0x8],rdi
    3abd:	48 8b 45 f8          	mov    rax,QWORD PTR [rbp-0x8]
    3ac1:	48 89 c7             	mov    rdi,rax
    3ac4:	e8 21 01 00 00       	call   3bea <__cxa_finalize@plt+0xfda>
    3ac9:	c9                   	leave  
    3aca:	c3                   	ret    
    3acb:	90                   	nop
    3acc:	55                   	push   rbp
    3acd:	48 89 e5             	mov    rbp,rsp
    3ad0:	48 83 ec 10          	sub    rsp,0x10
    3ad4:	48 89 7d f8          	mov    QWORD PTR [rbp-0x8],rdi
    3ad8:	48 8b 45 f8          	mov    rax,QWORD PTR [rbp-0x8]
    3adc:	48 8b 00             	mov    rax,QWORD PTR [rax]
    3adf:	48 83 c0 40          	add    rax,0x40
    3ae3:	48 8b 00             	mov    rax,QWORD PTR [rax]
    3ae6:	48 8b 55 f8          	mov    rdx,QWORD PTR [rbp-0x8]
    3aea:	48 89 d7             	mov    rdi,rdx
    3aed:	ff d0                	call   rax
    3aef:	c9                   	leave  
    3af0:	c3                   	ret    
    3af1:	90                   	nop
    3af2:	55                   	push   rbp
    3af3:	48 89 e5             	mov    rbp,rsp
    3af6:	48 83 ec 50          	sub    rsp,0x50
    3afa:	48 89 7d c8          	mov    QWORD PTR [rbp-0x38],rdi
    3afe:	48 89 75 c0          	mov    QWORD PTR [rbp-0x40],rsi
    3b02:	48 89 55 b8          	mov    QWORD PTR [rbp-0x48],rdx
    3b06:	64 48 8b 04 25 28 00 	mov    rax,QWORD PTR fs:0x28
    3b0d:	00 00 
    3b0f:	48 89 45 f8          	mov    QWORD PTR [rbp-0x8],rax
    3b13:	31 c0                	xor    eax,eax
    3b15:	48 8b 45 c8          	mov    rax,QWORD PTR [rbp-0x38]
    3b19:	48 89 c7             	mov    rdi,rax
    3b1c:	e8 af ef ff ff       	call   2ad0 <_ZNSt7__cxx1112basic_stringIwSt11char_traitsIwESaIwEE3endEv@plt>
    3b21:	48 89 45 e0          	mov    QWORD PTR [rbp-0x20],rax
    3b25:	48 8d 55 e0          	lea    rdx,[rbp-0x20]
    3b29:	48 8d 45 f0          	lea    rax,[rbp-0x10]
    3b2d:	48 89 d6             	mov    rsi,rdx
    3b30:	48 89 c7             	mov    rdi,rax
    3b33:	e8 cc 00 00 00       	call   3c04 <__cxa_finalize@plt+0xff4>
    3b38:	48 8b 45 c8          	mov    rax,QWORD PTR [rbp-0x38]
    3b3c:	48 89 c7             	mov    rdi,rax
    3b3f:	e8 6c ef ff ff       	call   2ab0 <_ZNSt7__cxx1112basic_stringIwSt11char_traitsIwESaIwEE5beginEv@plt>
    3b44:	48 89 45 d8          	mov    QWORD PTR [rbp-0x28],rax
    3b48:	48 8d 55 d8          	lea    rdx,[rbp-0x28]
    3b4c:	48 8d 45 e8          	lea    rax,[rbp-0x18]
    3b50:	48 89 d6             	mov    rsi,rdx
    3b53:	48 89 c7             	mov    rdi,rax
    3b56:	e8 a9 00 00 00       	call   3c04 <__cxa_finalize@plt+0xff4>
    3b5b:	48 8b 7d b8          	mov    rdi,QWORD PTR [rbp-0x48]
    3b5f:	48 8b 4d c0          	mov    rcx,QWORD PTR [rbp-0x40]
    3b63:	48 8b 55 f0          	mov    rdx,QWORD PTR [rbp-0x10]
    3b67:	48 8b 75 e8          	mov    rsi,QWORD PTR [rbp-0x18]
    3b6b:	48 8b 45 c8          	mov    rax,QWORD PTR [rbp-0x38]
    3b6f:	49 89 f8             	mov    r8,rdi
    3b72:	48 89 c7             	mov    rdi,rax
    3b75:	e8 b4 00 00 00       	call   3c2e <__cxa_finalize@plt+0x101e>
    3b7a:	48 8b 4d f8          	mov    rcx,QWORD PTR [rbp-0x8]
    3b7e:	64 48 33 0c 25 28 00 	xor    rcx,QWORD PTR fs:0x28
    3b85:	00 00 
    3b87:	74 05                	je     3b8e <__cxa_finalize@plt+0xf7e>
    3b89:	e8 72 ee ff ff       	call   2a00 <__stack_chk_fail@plt>
    3b8e:	c9                   	leave  
    3b8f:	c3                   	ret    
    3b90:	55                   	push   rbp
    3b91:	48 89 e5             	mov    rbp,rsp
    3b94:	48 83 ec 10          	sub    rsp,0x10
    3b98:	48 89 7d f8          	mov    QWORD PTR [rbp-0x8],rdi
    3b9c:	48 8b 45 f8          	mov    rax,QWORD PTR [rbp-0x8]
    3ba0:	48 89 c7             	mov    rdi,rax
    3ba3:	e8 f0 00 00 00       	call   3c98 <__cxa_finalize@plt+0x1088>
    3ba8:	90                   	nop
    3ba9:	c9                   	leave  
    3baa:	c3                   	ret    
    3bab:	90                   	nop
    3bac:	55                   	push   rbp
    3bad:	48 89 e5             	mov    rbp,rsp
    3bb0:	48 89 7d f8          	mov    QWORD PTR [rbp-0x8],rdi
    3bb4:	48 8b 45 f8          	mov    rax,QWORD PTR [rbp-0x8]
    3bb8:	48 c7 00 00 00 00 00 	mov    QWORD PTR [rax],0x0
    3bbf:	90                   	nop
    3bc0:	5d                   	pop    rbp
    3bc1:	c3                   	ret    
    3bc2:	55                   	push   rbp
    3bc3:	48 89 e5             	mov    rbp,rsp
    3bc6:	48 83 ec 10          	sub    rsp,0x10
    3bca:	48 89 7d f8          	mov    QWORD PTR [rbp-0x8],rdi
    3bce:	48 8b 45 f8          	mov    rax,QWORD PTR [rbp-0x8]
    3bd2:	48 89 c7             	mov    rdi,rax
    3bd5:	e8 c9 00 00 00       	call   3ca3 <__cxa_finalize@plt+0x1093>
    3bda:	c9                   	leave  
    3bdb:	c3                   	ret    
    3bdc:	55                   	push   rbp
    3bdd:	48 89 e5             	mov    rbp,rsp
    3be0:	48 89 7d f8          	mov    QWORD PTR [rbp-0x8],rdi
    3be4:	48 8b 45 f8          	mov    rax,QWORD PTR [rbp-0x8]
    3be8:	5d                   	pop    rbp
    3be9:	c3                   	ret    
    3bea:	55                   	push   rbp
    3beb:	48 89 e5             	mov    rbp,rsp
    3bee:	48 83 ec 10          	sub    rsp,0x10
    3bf2:	48 89 7d f8          	mov    QWORD PTR [rbp-0x8],rdi
    3bf6:	48 8b 45 f8          	mov    rax,QWORD PTR [rbp-0x8]
    3bfa:	48 89 c7             	mov    rdi,rax
    3bfd:	e8 bb 00 00 00       	call   3cbd <__cxa_finalize@plt+0x10ad>
    3c02:	c9                   	leave  
    3c03:	c3                   	ret    
    3c04:	55                   	push   rbp
    3c05:	48 89 e5             	mov    rbp,rsp
    3c08:	48 83 ec 10          	sub    rsp,0x10
    3c0c:	48 89 7d f8          	mov    QWORD PTR [rbp-0x8],rdi
    3c10:	48 89 75 f0          	mov    QWORD PTR [rbp-0x10],rsi
    3c14:	48 8b 45 f0          	mov    rax,QWORD PTR [rbp-0x10]
    3c18:	48 89 c7             	mov    rdi,rax
    3c1b:	e8 ac 00 00 00       	call   3ccc <__cxa_finalize@plt+0x10bc>
    3c20:	48 8b 10             	mov    rdx,QWORD PTR [rax]
    3c23:	48 8b 45 f8          	mov    rax,QWORD PTR [rbp-0x8]
    3c27:	48 89 10             	mov    QWORD PTR [rax],rdx
    3c2a:	90                   	nop
    3c2b:	c9                   	leave  
    3c2c:	c3                   	ret    
    3c2d:	90                   	nop
    3c2e:	55                   	push   rbp
    3c2f:	48 89 e5             	mov    rbp,rsp
    3c32:	48 83 ec 40          	sub    rsp,0x40
    3c36:	48 89 7d e8          	mov    QWORD PTR [rbp-0x18],rdi
    3c3a:	48 89 75 e0          	mov    QWORD PTR [rbp-0x20],rsi
    3c3e:	48 89 55 d8          	mov    QWORD PTR [rbp-0x28],rdx
    3c42:	48 89 4d d0          	mov    QWORD PTR [rbp-0x30],rcx
    3c46:	4c 89 45 c8          	mov    QWORD PTR [rbp-0x38],r8
    3c4a:	64 48 8b 04 25 28 00 	mov    rax,QWORD PTR fs:0x28
    3c51:	00 00 
    3c53:	48 89 45 f8          	mov    QWORD PTR [rbp-0x8],rax
    3c57:	31 c0                	xor    eax,eax
    3c59:	48 8b 7d c8          	mov    rdi,QWORD PTR [rbp-0x38]
    3c5d:	48 8b 4d d0          	mov    rcx,QWORD PTR [rbp-0x30]
    3c61:	48 8b 55 d8          	mov    rdx,QWORD PTR [rbp-0x28]
    3c65:	48 8b 75 e0          	mov    rsi,QWORD PTR [rbp-0x20]
    3c69:	48 8b 45 e8          	mov    rax,QWORD PTR [rbp-0x18]
    3c6d:	48 83 ec 08          	sub    rsp,0x8
    3c71:	41 51                	push   r9
    3c73:	49 89 f8             	mov    r8,rdi
    3c76:	48 89 c7             	mov    rdi,rax
    3c79:	e8 5c 00 00 00       	call   3cda <__cxa_finalize@plt+0x10ca>
    3c7e:	48 83 c4 10          	add    rsp,0x10
    3c82:	48 8b 55 f8          	mov    rdx,QWORD PTR [rbp-0x8]
    3c86:	64 48 33 14 25 28 00 	xor    rdx,QWORD PTR fs:0x28
    3c8d:	00 00 
    3c8f:	74 05                	je     3c96 <__cxa_finalize@plt+0x1086>
    3c91:	e8 6a ed ff ff       	call   2a00 <__stack_chk_fail@plt>
    3c96:	c9                   	leave  
    3c97:	c3                   	ret    
    3c98:	55                   	push   rbp
    3c99:	48 89 e5             	mov    rbp,rsp
    3c9c:	48 89 7d f8          	mov    QWORD PTR [rbp-0x8],rdi
    3ca0:	90                   	nop
    3ca1:	5d                   	pop    rbp
    3ca2:	c3                   	ret    
    3ca3:	55                   	push   rbp
    3ca4:	48 89 e5             	mov    rbp,rsp
    3ca7:	48 83 ec 10          	sub    rsp,0x10
    3cab:	48 89 7d f8          	mov    QWORD PTR [rbp-0x8],rdi
    3caf:	48 8b 45 f8          	mov    rax,QWORD PTR [rbp-0x8]
    3cb3:	48 89 c7             	mov    rdi,rax
    3cb6:	e8 53 01 00 00       	call   3e0e <__cxa_finalize@plt+0x11fe>
    3cbb:	c9                   	leave  
    3cbc:	c3                   	ret    
    3cbd:	55                   	push   rbp
    3cbe:	48 89 e5             	mov    rbp,rsp
    3cc1:	48 89 7d f8          	mov    QWORD PTR [rbp-0x8],rdi
    3cc5:	48 8b 45 f8          	mov    rax,QWORD PTR [rbp-0x8]
    3cc9:	5d                   	pop    rbp
    3cca:	c3                   	ret    
    3ccb:	90                   	nop
    3ccc:	55                   	push   rbp
    3ccd:	48 89 e5             	mov    rbp,rsp
    3cd0:	48 89 7d f8          	mov    QWORD PTR [rbp-0x8],rdi
    3cd4:	48 8b 45 f8          	mov    rax,QWORD PTR [rbp-0x8]
    3cd8:	5d                   	pop    rbp
    3cd9:	c3                   	ret    
    3cda:	55                   	push   rbp
    3cdb:	48 89 e5             	mov    rbp,rsp
    3cde:	41 54                	push   r12
    3ce0:	53                   	push   rbx
    3ce1:	48 83 ec 70          	sub    rsp,0x70
    3ce5:	48 89 7d a8          	mov    QWORD PTR [rbp-0x58],rdi
    3ce9:	48 89 75 a0          	mov    QWORD PTR [rbp-0x60],rsi
    3ced:	48 89 55 98          	mov    QWORD PTR [rbp-0x68],rdx
    3cf1:	48 89 4d 90          	mov    QWORD PTR [rbp-0x70],rcx
    3cf5:	4c 89 45 88          	mov    QWORD PTR [rbp-0x78],r8
    3cf9:	64 48 8b 04 25 28 00 	mov    rax,QWORD PTR fs:0x28
    3d00:	00 00 
    3d02:	48 89 45 e8          	mov    QWORD PTR [rbp-0x18],rax
    3d06:	31 c0                	xor    eax,eax
    3d08:	48 8d 45 b0          	lea    rax,[rbp-0x50]
    3d0c:	48 89 c7             	mov    rdi,rax
    3d0f:	e8 6c eb ff ff       	call   2880 <_ZNSaIwEC1Ev@plt>
    3d14:	48 8d 4d b0          	lea    rcx,[rbp-0x50]
    3d18:	48 8b 55 88          	mov    rdx,QWORD PTR [rbp-0x78]
    3d1c:	48 8b 75 90          	mov    rsi,QWORD PTR [rbp-0x70]
    3d20:	48 8d 45 c0          	lea    rax,[rbp-0x40]
    3d24:	48 89 c7             	mov    rdi,rax
    3d27:	e8 f0 00 00 00       	call   3e1c <__cxa_finalize@plt+0x120c>
    3d2c:	48 8d 45 b0          	lea    rax,[rbp-0x50]
    3d30:	48 89 c7             	mov    rdi,rax
    3d33:	e8 68 ee ff ff       	call   2ba0 <_ZNSaIwED1Ev@plt>
    3d38:	48 8d 55 a0          	lea    rdx,[rbp-0x60]
    3d3c:	48 8d 45 98          	lea    rax,[rbp-0x68]
    3d40:	48 89 d6             	mov    rsi,rdx
    3d43:	48 89 c7             	mov    rdi,rax
    3d46:	e8 49 01 00 00       	call   3e94 <__cxa_finalize@plt+0x1284>
    3d4b:	48 89 45 b8          	mov    QWORD PTR [rbp-0x48],rax
    3d4f:	48 8d 45 c0          	lea    rax,[rbp-0x40]
    3d53:	48 89 c7             	mov    rdi,rax
    3d56:	e8 b5 eb ff ff       	call   2910 <_ZNKSt7__cxx1112basic_stringIwSt11char_traitsIwESaIwEE4sizeEv@plt>
    3d5b:	49 89 c4             	mov    r12,rax
    3d5e:	48 8d 45 c0          	lea    rax,[rbp-0x40]
    3d62:	48 89 c7             	mov    rdi,rax
    3d65:	e8 26 eb ff ff       	call   2890 <_ZNKSt7__cxx1112basic_stringIwSt11char_traitsIwESaIwEE7_M_dataEv@plt>
    3d6a:	48 89 c3             	mov    rbx,rax
    3d6d:	48 8b 45 a8          	mov    rax,QWORD PTR [rbp-0x58]
    3d71:	48 89 c7             	mov    rdi,rax
    3d74:	e8 37 ed ff ff       	call   2ab0 <_ZNSt7__cxx1112basic_stringIwSt11char_traitsIwESaIwEE5beginEv@plt>
    3d79:	48 89 45 b0          	mov    QWORD PTR [rbp-0x50],rax
    3d7d:	48 8d 55 b0          	lea    rdx,[rbp-0x50]
    3d81:	48 8d 45 a0          	lea    rax,[rbp-0x60]
    3d85:	48 89 d6             	mov    rsi,rdx
    3d88:	48 89 c7             	mov    rdi,rax
    3d8b:	e8 47 01 00 00       	call   3ed7 <__cxa_finalize@plt+0x12c7>
    3d90:	48 89 c6             	mov    rsi,rax
    3d93:	48 8b 55 b8          	mov    rdx,QWORD PTR [rbp-0x48]
    3d97:	48 8b 45 a8          	mov    rax,QWORD PTR [rbp-0x58]
    3d9b:	4d 89 e0             	mov    r8,r12
    3d9e:	48 89 d9             	mov    rcx,rbx
    3da1:	48 89 c7             	mov    rdi,rax
    3da4:	e8 07 ee ff ff       	call   2bb0 <_ZNSt7__cxx1112basic_stringIwSt11char_traitsIwESaIwEE10_M_replaceEmmPKwm@plt>
    3da9:	48 89 c3             	mov    rbx,rax
    3dac:	48 8d 45 c0          	lea    rax,[rbp-0x40]
    3db0:	48 89 c7             	mov    rdi,rax
    3db3:	e8 88 ed ff ff       	call   2b40 <_ZNSt7__cxx1112basic_stringIwSt11char_traitsIwESaIwEED1Ev@plt>
    3db8:	48 89 d8             	mov    rax,rbx
    3dbb:	48 8b 4d e8          	mov    rcx,QWORD PTR [rbp-0x18]
    3dbf:	64 48 33 0c 25 28 00 	xor    rcx,QWORD PTR fs:0x28
    3dc6:	00 00 
    3dc8:	74 3b                	je     3e05 <__cxa_finalize@plt+0x11f5>
    3dca:	eb 34                	jmp    3e00 <__cxa_finalize@plt+0x11f0>
    3dcc:	48 89 c3             	mov    rbx,rax
    3dcf:	48 8d 45 b0          	lea    rax,[rbp-0x50]
    3dd3:	48 89 c7             	mov    rdi,rax
    3dd6:	e8 c5 ed ff ff       	call   2ba0 <_ZNSaIwED1Ev@plt>
    3ddb:	48 89 d8             	mov    rax,rbx
    3dde:	48 89 c7             	mov    rdi,rax
    3de1:	e8 aa ed ff ff       	call   2b90 <_Unwind_Resume@plt>
    3de6:	48 89 c3             	mov    rbx,rax
    3de9:	48 8d 45 c0          	lea    rax,[rbp-0x40]
    3ded:	48 89 c7             	mov    rdi,rax
    3df0:	e8 4b ed ff ff       	call   2b40 <_ZNSt7__cxx1112basic_stringIwSt11char_traitsIwESaIwEED1Ev@plt>
    3df5:	48 89 d8             	mov    rax,rbx
    3df8:	48 89 c7             	mov    rdi,rax
    3dfb:	e8 90 ed ff ff       	call   2b90 <_Unwind_Resume@plt>
    3e00:	e8 fb eb ff ff       	call   2a00 <__stack_chk_fail@plt>
    3e05:	48 83 c4 70          	add    rsp,0x70
    3e09:	5b                   	pop    rbx
    3e0a:	41 5c                	pop    r12
    3e0c:	5d                   	pop    rbp
    3e0d:	c3                   	ret    
    3e0e:	55                   	push   rbp
    3e0f:	48 89 e5             	mov    rbp,rsp
    3e12:	48 89 7d f8          	mov    QWORD PTR [rbp-0x8],rdi
    3e16:	48 8b 45 f8          	mov    rax,QWORD PTR [rbp-0x8]
    3e1a:	5d                   	pop    rbp
    3e1b:	c3                   	ret    
    3e1c:	55                   	push   rbp
    3e1d:	48 89 e5             	mov    rbp,rsp
    3e20:	53                   	push   rbx
    3e21:	48 83 ec 28          	sub    rsp,0x28
    3e25:	48 89 7d e8          	mov    QWORD PTR [rbp-0x18],rdi
    3e29:	48 89 75 e0          	mov    QWORD PTR [rbp-0x20],rsi
    3e2d:	48 89 55 d8          	mov    QWORD PTR [rbp-0x28],rdx
    3e31:	48 89 4d d0          	mov    QWORD PTR [rbp-0x30],rcx
    3e35:	48 8b 5d e8          	mov    rbx,QWORD PTR [rbp-0x18]
    3e39:	48 8b 45 e8          	mov    rax,QWORD PTR [rbp-0x18]
    3e3d:	48 89 c7             	mov    rdi,rax
    3e40:	e8 eb e9 ff ff       	call   2830 <_ZNSt7__cxx1112basic_stringIwSt11char_traitsIwESaIwEE13_M_local_dataEv@plt>
    3e45:	48 89 c1             	mov    rcx,rax
    3e48:	48 8b 45 d0          	mov    rax,QWORD PTR [rbp-0x30]
    3e4c:	48 89 c2             	mov    rdx,rax
    3e4f:	48 89 ce             	mov    rsi,rcx
    3e52:	48 89 df             	mov    rdi,rbx
    3e55:	e8 06 ea ff ff       	call   2860 <_ZNSt7__cxx1112basic_stringIwSt11char_traitsIwESaIwEE12_Alloc_hiderC1EPwRKS3_@plt>
    3e5a:	48 8b 55 d8          	mov    rdx,QWORD PTR [rbp-0x28]
    3e5e:	48 8b 4d e0          	mov    rcx,QWORD PTR [rbp-0x20]
    3e62:	48 8b 45 e8          	mov    rax,QWORD PTR [rbp-0x18]
    3e66:	48 89 ce             	mov    rsi,rcx
    3e69:	48 89 c7             	mov    rdi,rax
    3e6c:	e8 a9 00 00 00       	call   3f1a <__cxa_finalize@plt+0x130a>
    3e71:	eb 1a                	jmp    3e8d <__cxa_finalize@plt+0x127d>
    3e73:	48 89 c3             	mov    rbx,rax
    3e76:	48 8b 45 e8          	mov    rax,QWORD PTR [rbp-0x18]
    3e7a:	48 89 c7             	mov    rdi,rax
    3e7d:	e8 e6 f2 ff ff       	call   3168 <__cxa_finalize@plt+0x558>
    3e82:	48 89 d8             	mov    rax,rbx
    3e85:	48 89 c7             	mov    rdi,rax
    3e88:	e8 03 ed ff ff       	call   2b90 <_Unwind_Resume@plt>
    3e8d:	48 83 c4 28          	add    rsp,0x28
    3e91:	5b                   	pop    rbx
    3e92:	5d                   	pop    rbp
    3e93:	c3                   	ret    
    3e94:	55                   	push   rbp
    3e95:	48 89 e5             	mov    rbp,rsp
    3e98:	53                   	push   rbx
    3e99:	48 83 ec 18          	sub    rsp,0x18
    3e9d:	48 89 7d e8          	mov    QWORD PTR [rbp-0x18],rdi
    3ea1:	48 89 75 e0          	mov    QWORD PTR [rbp-0x20],rsi
    3ea5:	48 8b 45 e8          	mov    rax,QWORD PTR [rbp-0x18]
    3ea9:	48 89 c7             	mov    rdi,rax
    3eac:	e8 c5 00 00 00       	call   3f76 <__cxa_finalize@plt+0x1366>
    3eb1:	48 8b 00             	mov    rax,QWORD PTR [rax]
    3eb4:	48 89 c3             	mov    rbx,rax
    3eb7:	48 8b 45 e0          	mov    rax,QWORD PTR [rbp-0x20]
    3ebb:	48 89 c7             	mov    rdi,rax
    3ebe:	e8 b3 00 00 00       	call   3f76 <__cxa_finalize@plt+0x1366>
    3ec3:	48 8b 00             	mov    rax,QWORD PTR [rax]
    3ec6:	48 29 c3             	sub    rbx,rax
    3ec9:	48 89 d8             	mov    rax,rbx
    3ecc:	48 c1 f8 02          	sar    rax,0x2
    3ed0:	48 83 c4 18          	add    rsp,0x18
    3ed4:	5b                   	pop    rbx
    3ed5:	5d                   	pop    rbp
    3ed6:	c3                   	ret    
    3ed7:	55                   	push   rbp
    3ed8:	48 89 e5             	mov    rbp,rsp
    3edb:	53                   	push   rbx
    3edc:	48 83 ec 18          	sub    rsp,0x18
    3ee0:	48 89 7d e8          	mov    QWORD PTR [rbp-0x18],rdi
    3ee4:	48 89 75 e0          	mov    QWORD PTR [rbp-0x20],rsi
    3ee8:	48 8b 45 e8          	mov    rax,QWORD PTR [rbp-0x18]
    3eec:	48 89 c7             	mov    rdi,rax
    3eef:	e8 82 00 00 00       	call   3f76 <__cxa_finalize@plt+0x1366>
    3ef4:	48 8b 00             	mov    rax,QWORD PTR [rax]
    3ef7:	48 89 c3             	mov    rbx,rax
    3efa:	48 8b 45 e0          	mov    rax,QWORD PTR [rbp-0x20]
    3efe:	48 89 c7             	mov    rdi,rax
    3f01:	e8 c6 fd ff ff       	call   3ccc <__cxa_finalize@plt+0x10bc>
    3f06:	48 8b 00             	mov    rax,QWORD PTR [rax]
    3f09:	48 29 c3             	sub    rbx,rax
    3f0c:	48 89 d8             	mov    rax,rbx
    3f0f:	48 c1 f8 02          	sar    rax,0x2
    3f13:	48 83 c4 18          	add    rsp,0x18
    3f17:	5b                   	pop    rbx
    3f18:	5d                   	pop    rbp
    3f19:	c3                   	ret    
    3f1a:	55                   	push   rbp
    3f1b:	48 89 e5             	mov    rbp,rsp
    3f1e:	48 83 ec 30          	sub    rsp,0x30
    3f22:	48 89 7d e8          	mov    QWORD PTR [rbp-0x18],rdi
    3f26:	48 89 75 e0          	mov    QWORD PTR [rbp-0x20],rsi
    3f2a:	48 89 55 d8          	mov    QWORD PTR [rbp-0x28],rdx
    3f2e:	64 48 8b 04 25 28 00 	mov    rax,QWORD PTR fs:0x28
    3f35:	00 00 
    3f37:	48 89 45 f8          	mov    QWORD PTR [rbp-0x8],rax
    3f3b:	31 c0                	xor    eax,eax
    3f3d:	48 8b 55 d8          	mov    rdx,QWORD PTR [rbp-0x28]
    3f41:	48 8b 4d e0          	mov    rcx,QWORD PTR [rbp-0x20]
    3f45:	48 8b 45 e8          	mov    rax,QWORD PTR [rbp-0x18]
    3f49:	48 83 ec 08          	sub    rsp,0x8
    3f4d:	41 50                	push   r8
    3f4f:	48 89 ce             	mov    rsi,rcx
    3f52:	48 89 c7             	mov    rdi,rax
    3f55:	e8 2a 00 00 00       	call   3f84 <__cxa_finalize@plt+0x1374>
    3f5a:	48 83 c4 10          	add    rsp,0x10
    3f5e:	90                   	nop
    3f5f:	48 8b 45 f8          	mov    rax,QWORD PTR [rbp-0x8]
    3f63:	64 48 33 04 25 28 00 	xor    rax,QWORD PTR fs:0x28
    3f6a:	00 00 
    3f6c:	74 05                	je     3f73 <__cxa_finalize@plt+0x1363>
    3f6e:	e8 8d ea ff ff       	call   2a00 <__stack_chk_fail@plt>
    3f73:	c9                   	leave  
    3f74:	c3                   	ret    
    3f75:	90                   	nop
    3f76:	55                   	push   rbp
    3f77:	48 89 e5             	mov    rbp,rsp
    3f7a:	48 89 7d f8          	mov    QWORD PTR [rbp-0x8],rdi
    3f7e:	48 8b 45 f8          	mov    rax,QWORD PTR [rbp-0x8]
    3f82:	5d                   	pop    rbp
    3f83:	c3                   	ret    
    3f84:	55                   	push   rbp
    3f85:	48 89 e5             	mov    rbp,rsp
    3f88:	48 83 ec 30          	sub    rsp,0x30
    3f8c:	48 89 7d e8          	mov    QWORD PTR [rbp-0x18],rdi
    3f90:	48 89 75 e0          	mov    QWORD PTR [rbp-0x20],rsi
    3f94:	48 89 55 d8          	mov    QWORD PTR [rbp-0x28],rdx
    3f98:	64 48 8b 04 25 28 00 	mov    rax,QWORD PTR fs:0x28
    3f9f:	00 00 
    3fa1:	48 89 45 f8          	mov    QWORD PTR [rbp-0x8],rax
    3fa5:	31 c0                	xor    eax,eax
    3fa7:	48 8b 55 d8          	mov    rdx,QWORD PTR [rbp-0x28]
    3fab:	48 8b 4d e0          	mov    rcx,QWORD PTR [rbp-0x20]
    3faf:	48 8b 45 e8          	mov    rax,QWORD PTR [rbp-0x18]
    3fb3:	48 83 ec 08          	sub    rsp,0x8
    3fb7:	41 50                	push   r8
    3fb9:	48 89 ce             	mov    rsi,rcx
    3fbc:	48 89 c7             	mov    rdi,rax
    3fbf:	e8 1c 00 00 00       	call   3fe0 <__cxa_finalize@plt+0x13d0>
    3fc4:	48 83 c4 10          	add    rsp,0x10
    3fc8:	90                   	nop
    3fc9:	48 8b 45 f8          	mov    rax,QWORD PTR [rbp-0x8]
    3fcd:	64 48 33 04 25 28 00 	xor    rax,QWORD PTR fs:0x28
    3fd4:	00 00 
    3fd6:	74 05                	je     3fdd <__cxa_finalize@plt+0x13cd>
    3fd8:	e8 23 ea ff ff       	call   2a00 <__stack_chk_fail@plt>
    3fdd:	c9                   	leave  
    3fde:	c3                   	ret    
    3fdf:	90                   	nop
    3fe0:	55                   	push   rbp
    3fe1:	48 89 e5             	mov    rbp,rsp
    3fe4:	53                   	push   rbx
    3fe5:	48 83 ec 38          	sub    rsp,0x38
    3fe9:	48 89 7d d8          	mov    QWORD PTR [rbp-0x28],rdi
    3fed:	48 89 75 d0          	mov    QWORD PTR [rbp-0x30],rsi
    3ff1:	48 89 55 c8          	mov    QWORD PTR [rbp-0x38],rdx
    3ff5:	64 48 8b 04 25 28 00 	mov    rax,QWORD PTR fs:0x28
    3ffc:	00 00 
    3ffe:	48 89 45 e8          	mov    QWORD PTR [rbp-0x18],rax
    4002:	31 c0                	xor    eax,eax
    4004:	48 8b 45 d0          	mov    rax,QWORD PTR [rbp-0x30]
    4008:	48 89 c7             	mov    rdi,rax
    400b:	e8 07 01 00 00       	call   4117 <__cxa_finalize@plt+0x1507>
    4010:	84 c0                	test   al,al
    4012:	74 11                	je     4025 <__cxa_finalize@plt+0x1415>
    4014:	48 8b 45 d0          	mov    rax,QWORD PTR [rbp-0x30]
    4018:	48 3b 45 c8          	cmp    rax,QWORD PTR [rbp-0x38]
    401c:	74 07                	je     4025 <__cxa_finalize@plt+0x1415>
    401e:	b8 01 00 00 00       	mov    eax,0x1
    4023:	eb 05                	jmp    402a <__cxa_finalize@plt+0x141a>
    4025:	b8 00 00 00 00       	mov    eax,0x0
    402a:	84 c0                	test   al,al
    402c:	74 0c                	je     403a <__cxa_finalize@plt+0x142a>
    402e:	48 8d 3d 63 56 00 00 	lea    rdi,[rip+0x5663]        # 9698 <__cxa_finalize@plt+0x6a88>
    4035:	e8 c6 e8 ff ff       	call   2900 <_ZSt19__throw_logic_errorPKc@plt>
    403a:	48 8b 55 c8          	mov    rdx,QWORD PTR [rbp-0x38]
    403e:	48 8b 45 d0          	mov    rax,QWORD PTR [rbp-0x30]
    4042:	48 89 d6             	mov    rsi,rdx
    4045:	48 89 c7             	mov    rdi,rax
    4048:	e8 e6 00 00 00       	call   4133 <__cxa_finalize@plt+0x1523>
    404d:	48 89 45 e0          	mov    QWORD PTR [rbp-0x20],rax
    4051:	48 8b 45 e0          	mov    rax,QWORD PTR [rbp-0x20]
    4055:	48 83 f8 03          	cmp    rax,0x3
    4059:	76 3d                	jbe    4098 <__cxa_finalize@plt+0x1488>
    405b:	48 8d 4d e0          	lea    rcx,[rbp-0x20]
    405f:	48 8b 45 d8          	mov    rax,QWORD PTR [rbp-0x28]
    4063:	ba 00 00 00 00       	mov    edx,0x0
    4068:	48 89 ce             	mov    rsi,rcx
    406b:	48 89 c7             	mov    rdi,rax
    406e:	e8 3d e9 ff ff       	call   29b0 <_ZNSt7__cxx1112basic_stringIwSt11char_traitsIwESaIwEE9_M_createERmm@plt>
    4073:	48 89 c2             	mov    rdx,rax
    4076:	48 8b 45 d8          	mov    rax,QWORD PTR [rbp-0x28]
    407a:	48 89 d6             	mov    rsi,rdx
    407d:	48 89 c7             	mov    rdi,rax
    4080:	e8 4b e7 ff ff       	call   27d0 <_ZNSt7__cxx1112basic_stringIwSt11char_traitsIwESaIwEE7_M_dataEPw@plt>
    4085:	48 8b 55 e0          	mov    rdx,QWORD PTR [rbp-0x20]
    4089:	48 8b 45 d8          	mov    rax,QWORD PTR [rbp-0x28]
    408d:	48 89 d6             	mov    rsi,rdx
    4090:	48 89 c7             	mov    rdi,rax
    4093:	e8 d8 ea ff ff       	call   2b70 <_ZNSt7__cxx1112basic_stringIwSt11char_traitsIwESaIwEE11_M_capacityEm@plt>
    4098:	48 8b 45 d8          	mov    rax,QWORD PTR [rbp-0x28]
    409c:	48 89 c7             	mov    rdi,rax
    409f:	e8 ec e7 ff ff       	call   2890 <_ZNKSt7__cxx1112basic_stringIwSt11char_traitsIwESaIwEE7_M_dataEv@plt>
    40a4:	48 89 c1             	mov    rcx,rax
    40a7:	48 8b 55 c8          	mov    rdx,QWORD PTR [rbp-0x38]
    40ab:	48 8b 45 d0          	mov    rax,QWORD PTR [rbp-0x30]
    40af:	48 89 c6             	mov    rsi,rax
    40b2:	48 89 cf             	mov    rdi,rcx
    40b5:	e8 db 00 00 00       	call   4195 <__cxa_finalize@plt+0x1585>
    40ba:	48 8b 55 e0          	mov    rdx,QWORD PTR [rbp-0x20]
    40be:	48 8b 45 d8          	mov    rax,QWORD PTR [rbp-0x28]
    40c2:	48 89 d6             	mov    rsi,rdx
    40c5:	48 89 c7             	mov    rdi,rax
    40c8:	e8 53 ea ff ff       	call   2b20 <_ZNSt7__cxx1112basic_stringIwSt11char_traitsIwESaIwEE13_M_set_lengthEm@plt>
    40cd:	90                   	nop
    40ce:	48 8b 45 e8          	mov    rax,QWORD PTR [rbp-0x18]
    40d2:	64 48 33 04 25 28 00 	xor    rax,QWORD PTR fs:0x28
    40d9:	00 00 
    40db:	74 33                	je     4110 <__cxa_finalize@plt+0x1500>
    40dd:	eb 2c                	jmp    410b <__cxa_finalize@plt+0x14fb>
    40df:	48 89 c7             	mov    rdi,rax
    40e2:	e8 69 e7 ff ff       	call   2850 <__cxa_begin_catch@plt>
    40e7:	48 8b 45 d8          	mov    rax,QWORD PTR [rbp-0x28]
    40eb:	48 89 c7             	mov    rdi,rax
    40ee:	e8 5d e8 ff ff       	call   2950 <_ZNSt7__cxx1112basic_stringIwSt11char_traitsIwESaIwEE10_M_disposeEv@plt>
    40f3:	e8 c8 e9 ff ff       	call   2ac0 <__cxa_rethrow@plt>
    40f8:	48 89 c3             	mov    rbx,rax
    40fb:	e8 30 ea ff ff       	call   2b30 <__cxa_end_catch@plt>
    4100:	48 89 d8             	mov    rax,rbx
    4103:	48 89 c7             	mov    rdi,rax
    4106:	e8 85 ea ff ff       	call   2b90 <_Unwind_Resume@plt>
    410b:	e8 f0 e8 ff ff       	call   2a00 <__stack_chk_fail@plt>
    4110:	48 83 c4 38          	add    rsp,0x38
    4114:	5b                   	pop    rbx
    4115:	5d                   	pop    rbp
    4116:	c3                   	ret    
    4117:	55                   	push   rbp
    4118:	48 89 e5             	mov    rbp,rsp
    411b:	48 89 7d f8          	mov    QWORD PTR [rbp-0x8],rdi
    411f:	48 83 7d f8 00       	cmp    QWORD PTR [rbp-0x8],0x0
    4124:	0f 94 c0             	sete   al
    4127:	5d                   	pop    rbp
    4128:	c3                   	ret    
    4129:	55                   	push   rbp
    412a:	48 89 e5             	mov    rbp,rsp
    412d:	48 89 7d f8          	mov    QWORD PTR [rbp-0x8],rdi
    4131:	5d                   	pop    rbp
    4132:	c3                   	ret    
    4133:	55                   	push   rbp
    4134:	48 89 e5             	mov    rbp,rsp
    4137:	53                   	push   rbx
    4138:	48 83 ec 28          	sub    rsp,0x28
    413c:	48 89 7d d8          	mov    QWORD PTR [rbp-0x28],rdi
    4140:	48 89 75 d0          	mov    QWORD PTR [rbp-0x30],rsi
    4144:	64 48 8b 04 25 28 00 	mov    rax,QWORD PTR fs:0x28
    414b:	00 00 
    414d:	48 89 45 e8          	mov    QWORD PTR [rbp-0x18],rax
    4151:	31 c0                	xor    eax,eax
    4153:	48 8d 45 d8          	lea    rax,[rbp-0x28]
    4157:	48 89 c7             	mov    rdi,rax
    415a:	e8 ca ff ff ff       	call   4129 <__cxa_finalize@plt+0x1519>
    415f:	48 8b 45 d8          	mov    rax,QWORD PTR [rbp-0x28]
    4163:	48 8b 55 d0          	mov    rdx,QWORD PTR [rbp-0x30]
    4167:	48 83 ec 08          	sub    rsp,0x8
    416b:	53                   	push   rbx
    416c:	48 89 d6             	mov    rsi,rdx
    416f:	48 89 c7             	mov    rdi,rax
    4172:	e8 8e 00 00 00       	call   4205 <__cxa_finalize@plt+0x15f5>
    4177:	48 83 c4 10          	add    rsp,0x10
    417b:	48 8b 4d e8          	mov    rcx,QWORD PTR [rbp-0x18]
    417f:	64 48 33 0c 25 28 00 	xor    rcx,QWORD PTR fs:0x28
    4186:	00 00 
    4188:	74 05                	je     418f <__cxa_finalize@plt+0x157f>
    418a:	e8 71 e8 ff ff       	call   2a00 <__stack_chk_fail@plt>
    418f:	48 8b 5d f8          	mov    rbx,QWORD PTR [rbp-0x8]
    4193:	c9                   	leave  
    4194:	c3                   	ret    
    4195:	55                   	push   rbp
    4196:	48 89 e5             	mov    rbp,rsp
    4199:	48 83 ec 30          	sub    rsp,0x30
    419d:	48 89 7d e8          	mov    QWORD PTR [rbp-0x18],rdi
    41a1:	48 89 75 e0          	mov    QWORD PTR [rbp-0x20],rsi
    41a5:	48 89 55 d8          	mov    QWORD PTR [rbp-0x28],rdx
    41a9:	64 48 8b 04 25 28 00 	mov    rax,QWORD PTR fs:0x28
    41b0:	00 00 
    41b2:	48 89 45 f8          	mov    QWORD PTR [rbp-0x8],rax
    41b6:	31 c0                	xor    eax,eax
    41b8:	48 8b 45 e0          	mov    rax,QWORD PTR [rbp-0x20]
    41bc:	48 3b 45 d8          	cmp    rax,QWORD PTR [rbp-0x28]
    41c0:	74 2c                	je     41ee <__cxa_finalize@plt+0x15de>
    41c2:	48 8b 45 e0          	mov    rax,QWORD PTR [rbp-0x20]
    41c6:	0f b6 00             	movzx  eax,BYTE PTR [rax]
    41c9:	0f be c0             	movsx  eax,al
    41cc:	89 45 f4             	mov    DWORD PTR [rbp-0xc],eax
    41cf:	48 8d 55 f4          	lea    rdx,[rbp-0xc]
    41d3:	48 8b 45 e8          	mov    rax,QWORD PTR [rbp-0x18]
    41d7:	48 89 d6             	mov    rsi,rdx
    41da:	48 89 c7             	mov    rdi,rax
    41dd:	e8 dc ee ff ff       	call   30be <__cxa_finalize@plt+0x4ae>
    41e2:	48 83 45 e0 01       	add    QWORD PTR [rbp-0x20],0x1
    41e7:	48 83 45 e8 04       	add    QWORD PTR [rbp-0x18],0x4
    41ec:	eb ca                	jmp    41b8 <__cxa_finalize@plt+0x15a8>
    41ee:	90                   	nop
    41ef:	48 8b 45 f8          	mov    rax,QWORD PTR [rbp-0x8]
    41f3:	64 48 33 04 25 28 00 	xor    rax,QWORD PTR fs:0x28
    41fa:	00 00 
    41fc:	74 05                	je     4203 <__cxa_finalize@plt+0x15f3>
    41fe:	e8 fd e7 ff ff       	call   2a00 <__stack_chk_fail@plt>
    4203:	c9                   	leave  
    4204:	c3                   	ret    
    4205:	55                   	push   rbp
    4206:	48 89 e5             	mov    rbp,rsp
    4209:	48 89 7d f8          	mov    QWORD PTR [rbp-0x8],rdi
    420d:	48 89 75 f0          	mov    QWORD PTR [rbp-0x10],rsi
    4211:	48 8b 55 f0          	mov    rdx,QWORD PTR [rbp-0x10]
    4215:	48 8b 45 f8          	mov    rax,QWORD PTR [rbp-0x8]
    4219:	48 29 c2             	sub    rdx,rax
    421c:	48 89 d0             	mov    rax,rdx
    421f:	5d                   	pop    rbp
    4220:	c3                   	ret    
    4221:	55                   	push   rbp
    4222:	48 89 e5             	mov    rbp,rsp
    4225:	48 83 ec 10          	sub    rsp,0x10
    4229:	64 48 8b 04 25 28 00 	mov    rax,QWORD PTR fs:0x28
    4230:	00 00 
    4232:	48 89 45 f8          	mov    QWORD PTR [rbp-0x8],rax
    4236:	31 c0                	xor    eax,eax
    4238:	c7 45 f4 33 f2 01 00 	mov    DWORD PTR [rbp-0xc],0x1f233
    423f:	48 8d 45 f4          	lea    rax,[rbp-0xc]
    4243:	48 89 c6             	mov    rsi,rax
    4246:	48 8d 3d 33 9f 20 00 	lea    rdi,[rip+0x209f33]        # 20e180 <_ZSt5wcout@@GLIBCXX_3.4+0x120>
    424d:	e8 62 1a 00 00       	call   5cb4 <__cxa_finalize@plt+0x30a4>
    4252:	c7 00 01 00 00 00    	mov    DWORD PTR [rax],0x1
    4258:	c7 45 f4 95 27 00 00 	mov    DWORD PTR [rbp-0xc],0x2795
    425f:	48 8d 45 f4          	lea    rax,[rbp-0xc]
    4263:	48 89 c6             	mov    rsi,rax
    4266:	48 8d 3d 13 9f 20 00 	lea    rdi,[rip+0x209f13]        # 20e180 <_ZSt5wcout@@GLIBCXX_3.4+0x120>
    426d:	e8 42 1a 00 00       	call   5cb4 <__cxa_finalize@plt+0x30a4>
    4272:	c7 00 02 00 00 00    	mov    DWORD PTR [rax],0x2
    4278:	c7 45 f4 96 27 00 00 	mov    DWORD PTR [rbp-0xc],0x2796
    427f:	48 8d 45 f4          	lea    rax,[rbp-0xc]
    4283:	48 89 c6             	mov    rsi,rax
    4286:	48 8d 3d f3 9e 20 00 	lea    rdi,[rip+0x209ef3]        # 20e180 <_ZSt5wcout@@GLIBCXX_3.4+0x120>
    428d:	e8 22 1a 00 00       	call   5cb4 <__cxa_finalize@plt+0x30a4>
    4292:	c7 00 03 00 00 00    	mov    DWORD PTR [rax],0x3
    4298:	c7 45 f4 4c 27 00 00 	mov    DWORD PTR [rbp-0xc],0x274c
    429f:	48 8d 45 f4          	lea    rax,[rbp-0xc]
    42a3:	48 89 c6             	mov    rsi,rax
    42a6:	48 8d 3d d3 9e 20 00 	lea    rdi,[rip+0x209ed3]        # 20e180 <_ZSt5wcout@@GLIBCXX_3.4+0x120>
    42ad:	e8 02 1a 00 00       	call   5cb4 <__cxa_finalize@plt+0x30a4>
    42b2:	c7 00 04 00 00 00    	mov    DWORD PTR [rax],0x4
    42b8:	c7 45 f4 53 27 00 00 	mov    DWORD PTR [rbp-0xc],0x2753
    42bf:	48 8d 45 f4          	lea    rax,[rbp-0xc]
    42c3:	48 89 c6             	mov    rsi,rax
    42c6:	48 8d 3d b3 9e 20 00 	lea    rdi,[rip+0x209eb3]        # 20e180 <_ZSt5wcout@@GLIBCXX_3.4+0x120>
    42cd:	e8 e2 19 00 00       	call   5cb4 <__cxa_finalize@plt+0x30a4>
    42d2:	c7 00 05 00 00 00    	mov    DWORD PTR [rax],0x5
    42d8:	c7 45 f4 4e 27 00 00 	mov    DWORD PTR [rbp-0xc],0x274e
    42df:	48 8d 45 f4          	lea    rax,[rbp-0xc]
    42e3:	48 89 c6             	mov    rsi,rax
    42e6:	48 8d 3d 93 9e 20 00 	lea    rdi,[rip+0x209e93]        # 20e180 <_ZSt5wcout@@GLIBCXX_3.4+0x120>
    42ed:	e8 c2 19 00 00       	call   5cb4 <__cxa_finalize@plt+0x30a4>
    42f2:	c7 00 06 00 00 00    	mov    DWORD PTR [rax],0x6
    42f8:	c7 45 f4 6b f4 01 00 	mov    DWORD PTR [rbp-0xc],0x1f46b
    42ff:	48 8d 45 f4          	lea    rax,[rbp-0xc]
    4303:	48 89 c6             	mov    rsi,rax
    4306:	48 8d 3d 73 9e 20 00 	lea    rdi,[rip+0x209e73]        # 20e180 <_ZSt5wcout@@GLIBCXX_3.4+0x120>
    430d:	e8 a2 19 00 00       	call   5cb4 <__cxa_finalize@plt+0x30a4>
    4312:	c7 00 07 00 00 00    	mov    DWORD PTR [rax],0x7
    4318:	c7 45 f4 80 f4 01 00 	mov    DWORD PTR [rbp-0xc],0x1f480
    431f:	48 8d 45 f4          	lea    rax,[rbp-0xc]
    4323:	48 89 c6             	mov    rsi,rax
    4326:	48 8d 3d 53 9e 20 00 	lea    rdi,[rip+0x209e53]        # 20e180 <_ZSt5wcout@@GLIBCXX_3.4+0x120>
    432d:	e8 82 19 00 00       	call   5cb4 <__cxa_finalize@plt+0x30a4>
    4332:	c7 00 08 00 00 00    	mov    DWORD PTR [rax],0x8
    4338:	c7 45 f4 af f4 01 00 	mov    DWORD PTR [rbp-0xc],0x1f4af
    433f:	48 8d 45 f4          	lea    rax,[rbp-0xc]
    4343:	48 89 c6             	mov    rsi,rax
    4346:	48 8d 3d 33 9e 20 00 	lea    rdi,[rip+0x209e33]        # 20e180 <_ZSt5wcout@@GLIBCXX_3.4+0x120>
    434d:	e8 62 19 00 00       	call   5cb4 <__cxa_finalize@plt+0x30a4>
    4352:	c7 00 09 00 00 00    	mov    DWORD PTR [rax],0x9
    4358:	c7 45 f4 80 f6 01 00 	mov    DWORD PTR [rbp-0xc],0x1f680
    435f:	48 8d 45 f4          	lea    rax,[rbp-0xc]
    4363:	48 89 c6             	mov    rsi,rax
    4366:	48 8d 3d 13 9e 20 00 	lea    rdi,[rip+0x209e13]        # 20e180 <_ZSt5wcout@@GLIBCXX_3.4+0x120>
    436d:	e8 42 19 00 00       	call   5cb4 <__cxa_finalize@plt+0x30a4>
    4372:	c7 00 0a 00 00 00    	mov    DWORD PTR [rax],0xa
    4378:	c7 45 f4 36 f2 01 00 	mov    DWORD PTR [rbp-0xc],0x1f236
    437f:	48 8d 45 f4          	lea    rax,[rbp-0xc]
    4383:	48 89 c6             	mov    rsi,rax
    4386:	48 8d 3d f3 9d 20 00 	lea    rdi,[rip+0x209df3]        # 20e180 <_ZSt5wcout@@GLIBCXX_3.4+0x120>
    438d:	e8 22 19 00 00       	call   5cb4 <__cxa_finalize@plt+0x30a4>
    4392:	c7 00 0b 00 00 00    	mov    DWORD PTR [rax],0xb
    4398:	c7 45 f4 1a f2 01 00 	mov    DWORD PTR [rbp-0xc],0x1f21a
    439f:	48 8d 45 f4          	lea    rax,[rbp-0xc]
    43a3:	48 89 c6             	mov    rsi,rax
    43a6:	48 8d 3d d3 9d 20 00 	lea    rdi,[rip+0x209dd3]        # 20e180 <_ZSt5wcout@@GLIBCXX_3.4+0x120>
    43ad:	e8 02 19 00 00       	call   5cb4 <__cxa_finalize@plt+0x30a4>
    43b2:	c7 00 0c 00 00 00    	mov    DWORD PTR [rax],0xc
    43b8:	c7 45 f4 ec 23 00 00 	mov    DWORD PTR [rbp-0xc],0x23ec
    43bf:	48 8d 45 f4          	lea    rax,[rbp-0xc]
    43c3:	48 89 c6             	mov    rsi,rax
    43c6:	48 8d 3d b3 9d 20 00 	lea    rdi,[rip+0x209db3]        # 20e180 <_ZSt5wcout@@GLIBCXX_3.4+0x120>
    43cd:	e8 e2 18 00 00       	call   5cb4 <__cxa_finalize@plt+0x30a4>
    43d2:	c7 00 0d 00 00 00    	mov    DWORD PTR [rax],0xd
    43d8:	c7 45 f4 1d f5 01 00 	mov    DWORD PTR [rbp-0xc],0x1f51d
    43df:	48 8d 45 f4          	lea    rax,[rbp-0xc]
    43e3:	48 89 c6             	mov    rsi,rax
    43e6:	48 8d 3d 93 9d 20 00 	lea    rdi,[rip+0x209d93]        # 20e180 <_ZSt5wcout@@GLIBCXX_3.4+0x120>
    43ed:	e8 c2 18 00 00       	call   5cb4 <__cxa_finalize@plt+0x30a4>
    43f2:	c7 00 0e 00 00 00    	mov    DWORD PTR [rax],0xe
    43f8:	c7 45 f4 e4 f4 01 00 	mov    DWORD PTR [rbp-0xc],0x1f4e4
    43ff:	48 8d 45 f4          	lea    rax,[rbp-0xc]
    4403:	48 89 c6             	mov    rsi,rax
    4406:	48 8d 3d 73 9d 20 00 	lea    rdi,[rip+0x209d73]        # 20e180 <_ZSt5wcout@@GLIBCXX_3.4+0x120>
    440d:	e8 a2 18 00 00       	call   5cb4 <__cxa_finalize@plt+0x30a4>
    4412:	c7 00 0f 00 00 00    	mov    DWORD PTR [rax],0xf
    4418:	c7 45 f4 e5 f4 01 00 	mov    DWORD PTR [rbp-0xc],0x1f4e5
    441f:	48 8d 45 f4          	lea    rax,[rbp-0xc]
    4423:	48 89 c6             	mov    rsi,rax
    4426:	48 8d 3d 53 9d 20 00 	lea    rdi,[rip+0x209d53]        # 20e180 <_ZSt5wcout@@GLIBCXX_3.4+0x120>
    442d:	e8 82 18 00 00       	call   5cb4 <__cxa_finalize@plt+0x30a4>
    4432:	c7 00 10 00 00 00    	mov    DWORD PTR [rax],0x10
    4438:	c7 45 f4 95 f1 01 00 	mov    DWORD PTR [rbp-0xc],0x1f195
    443f:	48 8d 45 f4          	lea    rax,[rbp-0xc]
    4443:	48 89 c6             	mov    rsi,rax
    4446:	48 8d 3d 33 9d 20 00 	lea    rdi,[rip+0x209d33]        # 20e180 <_ZSt5wcout@@GLIBCXX_3.4+0x120>
    444d:	e8 62 18 00 00       	call   5cb4 <__cxa_finalize@plt+0x30a4>
    4452:	c7 00 11 00 00 00    	mov    DWORD PTR [rax],0x11
    4458:	c7 45 f4 93 f1 01 00 	mov    DWORD PTR [rbp-0xc],0x1f193
    445f:	48 8d 45 f4          	lea    rax,[rbp-0xc]
    4463:	48 89 c6             	mov    rsi,rax
    4466:	48 8d 3d 13 9d 20 00 	lea    rdi,[rip+0x209d13]        # 20e180 <_ZSt5wcout@@GLIBCXX_3.4+0x120>
    446d:	e8 42 18 00 00       	call   5cb4 <__cxa_finalize@plt+0x30a4>
    4472:	c7 00 12 00 00 00    	mov    DWORD PTR [rax],0x12
    4478:	c7 45 f4 c4 f4 01 00 	mov    DWORD PTR [rbp-0xc],0x1f4c4
    447f:	48 8d 45 f4          	lea    rax,[rbp-0xc]
    4483:	48 89 c6             	mov    rsi,rax
    4486:	48 8d 3d f3 9c 20 00 	lea    rdi,[rip+0x209cf3]        # 20e180 <_ZSt5wcout@@GLIBCXX_3.4+0x120>
    448d:	e8 22 18 00 00       	call   5cb4 <__cxa_finalize@plt+0x30a4>
    4492:	c7 00 13 00 00 00    	mov    DWORD PTR [rax],0x13
    4498:	c7 45 f4 dd f4 01 00 	mov    DWORD PTR [rbp-0xc],0x1f4dd
    449f:	48 8d 45 f4          	lea    rax,[rbp-0xc]
    44a3:	48 89 c6             	mov    rsi,rax
    44a6:	48 8d 3d d3 9c 20 00 	lea    rdi,[rip+0x209cd3]        # 20e180 <_ZSt5wcout@@GLIBCXX_3.4+0x120>
    44ad:	e8 02 18 00 00       	call   5cb4 <__cxa_finalize@plt+0x30a4>
    44b2:	c7 00 14 00 00 00    	mov    DWORD PTR [rax],0x14
    44b8:	c7 45 f4 21 f5 01 00 	mov    DWORD PTR [rbp-0xc],0x1f521
    44bf:	48 8d 45 f4          	lea    rax,[rbp-0xc]
    44c3:	48 89 c6             	mov    rsi,rax
    44c6:	48 8d 3d b3 9c 20 00 	lea    rdi,[rip+0x209cb3]        # 20e180 <_ZSt5wcout@@GLIBCXX_3.4+0x120>
    44cd:	e8 e2 17 00 00       	call   5cb4 <__cxa_finalize@plt+0x30a4>
    44d2:	c7 00 15 00 00 00    	mov    DWORD PTR [rax],0x15
    44d8:	c7 45 f4 22 f5 01 00 	mov    DWORD PTR [rbp-0xc],0x1f522
    44df:	48 8d 45 f4          	lea    rax,[rbp-0xc]
    44e3:	48 89 c6             	mov    rsi,rax
    44e6:	48 8d 3d 93 9c 20 00 	lea    rdi,[rip+0x209c93]        # 20e180 <_ZSt5wcout@@GLIBCXX_3.4+0x120>
    44ed:	e8 c2 17 00 00       	call   5cb4 <__cxa_finalize@plt+0x30a4>
    44f2:	c7 00 16 00 00 00    	mov    DWORD PTR [rax],0x16
    44f8:	c7 45 f4 d1 f6 01 00 	mov    DWORD PTR [rbp-0xc],0x1f6d1
    44ff:	48 8d 45 f4          	lea    rax,[rbp-0xc]
    4503:	48 89 c6             	mov    rsi,rax
    4506:	48 8d 3d 73 9c 20 00 	lea    rdi,[rip+0x209c73]        # 20e180 <_ZSt5wcout@@GLIBCXX_3.4+0x120>
    450d:	e8 a2 17 00 00       	call   5cb4 <__cxa_finalize@plt+0x30a4>
    4512:	c7 00 17 00 00 00    	mov    DWORD PTR [rax],0x17
    4518:	c7 45 f4 00 f6 01 00 	mov    DWORD PTR [rbp-0xc],0x1f600
    451f:	48 8d 45 f4          	lea    rax,[rbp-0xc]
    4523:	48 89 c6             	mov    rsi,rax
    4526:	48 8d 3d 93 9c 20 00 	lea    rdi,[rip+0x209c93]        # 20e1c0 <_ZSt5wcout@@GLIBCXX_3.4+0x160>
    452d:	e8 aa 18 00 00       	call   5ddc <__cxa_finalize@plt+0x31cc>
    4532:	c7 00 00 00 00 00    	mov    DWORD PTR [rax],0x0
    4538:	c7 45 f4 01 f6 01 00 	mov    DWORD PTR [rbp-0xc],0x1f601
    453f:	48 8d 45 f4          	lea    rax,[rbp-0xc]
    4543:	48 89 c6             	mov    rsi,rax
    4546:	48 8d 3d 73 9c 20 00 	lea    rdi,[rip+0x209c73]        # 20e1c0 <_ZSt5wcout@@GLIBCXX_3.4+0x160>
    454d:	e8 8a 18 00 00       	call   5ddc <__cxa_finalize@plt+0x31cc>
    4552:	c7 00 01 00 00 00    	mov    DWORD PTR [rax],0x1
    4558:	c7 45 f4 02 f6 01 00 	mov    DWORD PTR [rbp-0xc],0x1f602
    455f:	48 8d 45 f4          	lea    rax,[rbp-0xc]
    4563:	48 89 c6             	mov    rsi,rax
    4566:	48 8d 3d 53 9c 20 00 	lea    rdi,[rip+0x209c53]        # 20e1c0 <_ZSt5wcout@@GLIBCXX_3.4+0x160>
    456d:	e8 6a 18 00 00       	call   5ddc <__cxa_finalize@plt+0x31cc>
    4572:	c7 00 02 00 00 00    	mov    DWORD PTR [rax],0x2
    4578:	c7 45 f4 23 f9 01 00 	mov    DWORD PTR [rbp-0xc],0x1f923
    457f:	48 8d 45 f4          	lea    rax,[rbp-0xc]
    4583:	48 89 c6             	mov    rsi,rax
    4586:	48 8d 3d 33 9c 20 00 	lea    rdi,[rip+0x209c33]        # 20e1c0 <_ZSt5wcout@@GLIBCXX_3.4+0x160>
    458d:	e8 4a 18 00 00       	call   5ddc <__cxa_finalize@plt+0x31cc>
    4592:	c7 00 03 00 00 00    	mov    DWORD PTR [rax],0x3
    4598:	c7 45 f4 1c f6 01 00 	mov    DWORD PTR [rbp-0xc],0x1f61c
    459f:	48 8d 45 f4          	lea    rax,[rbp-0xc]
    45a3:	48 89 c6             	mov    rsi,rax
    45a6:	48 8d 3d 13 9c 20 00 	lea    rdi,[rip+0x209c13]        # 20e1c0 <_ZSt5wcout@@GLIBCXX_3.4+0x160>
    45ad:	e8 2a 18 00 00       	call   5ddc <__cxa_finalize@plt+0x31cc>
    45b2:	c7 00 04 00 00 00    	mov    DWORD PTR [rax],0x4
    45b8:	c7 45 f4 04 f6 01 00 	mov    DWORD PTR [rbp-0xc],0x1f604
    45bf:	48 8d 45 f4          	lea    rax,[rbp-0xc]
    45c3:	48 89 c6             	mov    rsi,rax
    45c6:	48 8d 3d f3 9b 20 00 	lea    rdi,[rip+0x209bf3]        # 20e1c0 <_ZSt5wcout@@GLIBCXX_3.4+0x160>
    45cd:	e8 0a 18 00 00       	call   5ddc <__cxa_finalize@plt+0x31cc>
    45d2:	c7 00 05 00 00 00    	mov    DWORD PTR [rax],0x5
    45d8:	c7 45 f4 05 f6 01 00 	mov    DWORD PTR [rbp-0xc],0x1f605
    45df:	48 8d 45 f4          	lea    rax,[rbp-0xc]
    45e3:	48 89 c6             	mov    rsi,rax
    45e6:	48 8d 3d d3 9b 20 00 	lea    rdi,[rip+0x209bd3]        # 20e1c0 <_ZSt5wcout@@GLIBCXX_3.4+0x160>
    45ed:	e8 ea 17 00 00       	call   5ddc <__cxa_finalize@plt+0x31cc>
    45f2:	c7 00 06 00 00 00    	mov    DWORD PTR [rax],0x6
    45f8:	c7 45 f4 06 f6 01 00 	mov    DWORD PTR [rbp-0xc],0x1f606
    45ff:	48 8d 45 f4          	lea    rax,[rbp-0xc]
    4603:	48 89 c6             	mov    rsi,rax
    4606:	48 8d 3d b3 9b 20 00 	lea    rdi,[rip+0x209bb3]        # 20e1c0 <_ZSt5wcout@@GLIBCXX_3.4+0x160>
    460d:	e8 ca 17 00 00       	call   5ddc <__cxa_finalize@plt+0x31cc>
    4612:	c7 00 07 00 00 00    	mov    DWORD PTR [rax],0x7
    4618:	c7 45 f4 09 f6 01 00 	mov    DWORD PTR [rbp-0xc],0x1f609
    461f:	48 8d 45 f4          	lea    rax,[rbp-0xc]
    4623:	48 89 c6             	mov    rsi,rax
    4626:	48 8d 3d 93 9b 20 00 	lea    rdi,[rip+0x209b93]        # 20e1c0 <_ZSt5wcout@@GLIBCXX_3.4+0x160>
    462d:	e8 aa 17 00 00       	call   5ddc <__cxa_finalize@plt+0x31cc>
    4632:	c7 00 08 00 00 00    	mov    DWORD PTR [rax],0x8
    4638:	c7 45 f4 0a f6 01 00 	mov    DWORD PTR [rbp-0xc],0x1f60a
    463f:	48 8d 45 f4          	lea    rax,[rbp-0xc]
    4643:	48 89 c6             	mov    rsi,rax
    4646:	48 8d 3d 73 9b 20 00 	lea    rdi,[rip+0x209b73]        # 20e1c0 <_ZSt5wcout@@GLIBCXX_3.4+0x160>
    464d:	e8 8a 17 00 00       	call   5ddc <__cxa_finalize@plt+0x31cc>
    4652:	c7 00 09 00 00 00    	mov    DWORD PTR [rax],0x9
    4658:	c7 45 f4 0d f6 01 00 	mov    DWORD PTR [rbp-0xc],0x1f60d
    465f:	48 8d 45 f4          	lea    rax,[rbp-0xc]
    4663:	48 89 c6             	mov    rsi,rax
    4666:	48 8d 3d 53 9b 20 00 	lea    rdi,[rip+0x209b53]        # 20e1c0 <_ZSt5wcout@@GLIBCXX_3.4+0x160>
    466d:	e8 6a 17 00 00       	call   5ddc <__cxa_finalize@plt+0x31cc>
    4672:	c7 00 0a 00 00 00    	mov    DWORD PTR [rax],0xa
    4678:	90                   	nop
    4679:	48 8b 45 f8          	mov    rax,QWORD PTR [rbp-0x8]
    467d:	64 48 33 04 25 28 00 	xor    rax,QWORD PTR fs:0x28
    4684:	00 00 
    4686:	74 05                	je     468d <__cxa_finalize@plt+0x1a7d>
    4688:	e8 73 e3 ff ff       	call   2a00 <__stack_chk_fail@plt>
    468d:	c9                   	leave  
    468e:	c3                   	ret    
    468f:	55                   	push   rbp
    4690:	48 89 e5             	mov    rbp,rsp
    4693:	48 83 ec 10          	sub    rsp,0x10
    4697:	89 7d fc             	mov    DWORD PTR [rbp-0x4],edi
    469a:	48 8d 45 fc          	lea    rax,[rbp-0x4]
    469e:	48 89 c6             	mov    rsi,rax
    46a1:	48 8d 3d 18 9b 20 00 	lea    rdi,[rip+0x209b18]        # 20e1c0 <_ZSt5wcout@@GLIBCXX_3.4+0x160>
    46a8:	e8 57 18 00 00       	call   5f04 <__cxa_finalize@plt+0x32f4>
    46ad:	48 85 c0             	test   rax,rax
    46b0:	0f 95 c0             	setne  al
    46b3:	84 c0                	test   al,al
    46b5:	74 17                	je     46ce <__cxa_finalize@plt+0x1abe>
    46b7:	48 8d 45 fc          	lea    rax,[rbp-0x4]
    46bb:	48 89 c6             	mov    rsi,rax
    46be:	48 8d 3d fb 9a 20 00 	lea    rdi,[rip+0x209afb]        # 20e1c0 <_ZSt5wcout@@GLIBCXX_3.4+0x160>
    46c5:	e8 20 19 00 00       	call   5fea <__cxa_finalize@plt+0x33da>
    46ca:	8b 00                	mov    eax,DWORD PTR [rax]
    46cc:	eb 42                	jmp    4710 <__cxa_finalize@plt+0x1b00>
    46ce:	48 8d 35 eb 50 00 00 	lea    rsi,[rip+0x50eb]        # 97c0 <__cxa_finalize@plt+0x6bb0>
    46d5:	48 8d 3d 84 99 20 00 	lea    rdi,[rip+0x209984]        # 20e060 <_ZSt5wcout@@GLIBCXX_3.4>
    46dc:	e8 bf e0 ff ff       	call   27a0 <_ZStlsIwSt11char_traitsIwEERSt13basic_ostreamIT_T0_ES6_PKc@plt>
    46e1:	48 89 c2             	mov    rdx,rax
    46e4:	8b 45 fc             	mov    eax,DWORD PTR [rbp-0x4]
    46e7:	89 c6                	mov    esi,eax
    46e9:	48 89 d7             	mov    rdi,rdx
    46ec:	e8 ef e2 ff ff       	call   29e0 <_ZStlsIwSt11char_traitsIwEERSt13basic_ostreamIT_T0_ES6_S3_@plt>
    46f1:	48 89 c2             	mov    rdx,rax
    46f4:	48 8b 05 d5 98 20 00 	mov    rax,QWORD PTR [rip+0x2098d5]        # 20dfd0 <_ZSt4endlIwSt11char_traitsIwEERSt13basic_ostreamIT_T0_ES6_@GLIBCXX_3.4>
    46fb:	48 89 c6             	mov    rsi,rax
    46fe:	48 89 d7             	mov    rdi,rdx
    4701:	e8 7a e4 ff ff       	call   2b80 <_ZNSt13basic_ostreamIwSt11char_traitsIwEElsEPFRS2_S3_E@plt>
    4706:	bf 01 00 00 00       	mov    edi,0x1
    470b:	e8 30 e3 ff ff       	call   2a40 <exit@plt>
    4710:	c9                   	leave  
    4711:	c3                   	ret    
    4712:	55                   	push   rbp
    4713:	48 89 e5             	mov    rbp,rsp
    4716:	89 7d fc             	mov    DWORD PTR [rbp-0x4],edi
    4719:	89 75 f8             	mov    DWORD PTR [rbp-0x8],esi
    471c:	89 55 f4             	mov    DWORD PTR [rbp-0xc],edx
    471f:	8b 45 f4             	mov    eax,DWORD PTR [rbp-0xc]
    4722:	3b 45 fc             	cmp    eax,DWORD PTR [rbp-0x4]
    4725:	7d 07                	jge    472e <__cxa_finalize@plt+0x1b1e>
    4727:	b8 00 00 00 00       	mov    eax,0x0
    472c:	eb 14                	jmp    4742 <__cxa_finalize@plt+0x1b32>
    472e:	8b 45 f4             	mov    eax,DWORD PTR [rbp-0xc]
    4731:	3b 45 f8             	cmp    eax,DWORD PTR [rbp-0x8]
    4734:	7c 07                	jl     473d <__cxa_finalize@plt+0x1b2d>
    4736:	b8 00 00 00 00       	mov    eax,0x0
    473b:	eb 05                	jmp    4742 <__cxa_finalize@plt+0x1b32>
    473d:	b8 01 00 00 00       	mov    eax,0x1
    4742:	5d                   	pop    rbp
    4743:	c3                   	ret    
    4744:	55                   	push   rbp
    4745:	48 89 e5             	mov    rbp,rsp
    4748:	48 83 ec 20          	sub    rsp,0x20
    474c:	89 7d ec             	mov    DWORD PTR [rbp-0x14],edi
    474f:	89 75 e8             	mov    DWORD PTR [rbp-0x18],esi
    4752:	8b 45 ec             	mov    eax,DWORD PTR [rbp-0x14]
    4755:	89 c2                	mov    edx,eax
    4757:	be 0a 00 00 00       	mov    esi,0xa
    475c:	bf 00 00 00 00       	mov    edi,0x0
    4761:	e8 ac ff ff ff       	call   4712 <__cxa_finalize@plt+0x1b02>
    4766:	83 f0 01             	xor    eax,0x1
    4769:	84 c0                	test   al,al
    476b:	75 1d                	jne    478a <__cxa_finalize@plt+0x1b7a>
    476d:	8b 45 ec             	mov    eax,DWORD PTR [rbp-0x14]
    4770:	48 98                	cdqe   
    4772:	48 8d 14 c5 00 00 00 	lea    rdx,[rax*8+0x0]
    4779:	00 
    477a:	48 8d 05 7f 9a 20 00 	lea    rax,[rip+0x209a7f]        # 20e200 <_ZSt5wcout@@GLIBCXX_3.4+0x1a0>
    4781:	48 8b 04 02          	mov    rax,QWORD PTR [rdx+rax*1]
    4785:	48 85 c0             	test   rax,rax
    4788:	75 07                	jne    4791 <__cxa_finalize@plt+0x1b81>
    478a:	b8 01 00 00 00       	mov    eax,0x1
    478f:	eb 05                	jmp    4796 <__cxa_finalize@plt+0x1b86>
    4791:	b8 00 00 00 00       	mov    eax,0x0
    4796:	84 c0                	test   al,al
    4798:	74 32                	je     47cc <__cxa_finalize@plt+0x1bbc>
    479a:	48 8d 35 33 50 00 00 	lea    rsi,[rip+0x5033]        # 97d4 <__cxa_finalize@plt+0x6bc4>
    47a1:	48 8d 3d b8 98 20 00 	lea    rdi,[rip+0x2098b8]        # 20e060 <_ZSt5wcout@@GLIBCXX_3.4>
    47a8:	e8 f3 df ff ff       	call   27a0 <_ZStlsIwSt11char_traitsIwEERSt13basic_ostreamIT_T0_ES6_PKc@plt>
    47ad:	48 89 c2             	mov    rdx,rax
    47b0:	48 8b 05 19 98 20 00 	mov    rax,QWORD PTR [rip+0x209819]        # 20dfd0 <_ZSt4endlIwSt11char_traitsIwEERSt13basic_ostreamIT_T0_ES6_@GLIBCXX_3.4>
    47b7:	48 89 c6             	mov    rsi,rax
    47ba:	48 89 d7             	mov    rdi,rdx
    47bd:	e8 be e3 ff ff       	call   2b80 <_ZNSt13basic_ostreamIwSt11char_traitsIwEElsEPFRS2_S3_E@plt>
    47c2:	bf 01 00 00 00       	mov    edi,0x1
    47c7:	e8 74 e2 ff ff       	call   2a40 <exit@plt>
    47cc:	8b 45 ec             	mov    eax,DWORD PTR [rbp-0x14]
    47cf:	48 98                	cdqe   
    47d1:	48 8d 14 c5 00 00 00 	lea    rdx,[rax*8+0x0]
    47d8:	00 
    47d9:	48 8d 05 20 9a 20 00 	lea    rax,[rip+0x209a20]        # 20e200 <_ZSt5wcout@@GLIBCXX_3.4+0x1a0>
    47e0:	48 8b 04 02          	mov    rax,QWORD PTR [rdx+rax*1]
    47e4:	48 89 45 f8          	mov    QWORD PTR [rbp-0x8],rax
    47e8:	48 8b 45 f8          	mov    rax,QWORD PTR [rbp-0x8]
    47ec:	48 8b 00             	mov    rax,QWORD PTR [rax]
    47ef:	89 c1                	mov    ecx,eax
    47f1:	8b 45 e8             	mov    eax,DWORD PTR [rbp-0x18]
    47f4:	89 c2                	mov    edx,eax
    47f6:	89 ce                	mov    esi,ecx
    47f8:	bf 00 00 00 00       	mov    edi,0x0
    47fd:	e8 10 ff ff ff       	call   4712 <__cxa_finalize@plt+0x1b02>
    4802:	83 f0 01             	xor    eax,0x1
    4805:	84 c0                	test   al,al
    4807:	74 32                	je     483b <__cxa_finalize@plt+0x1c2b>
    4809:	48 8d 35 d7 4f 00 00 	lea    rsi,[rip+0x4fd7]        # 97e7 <__cxa_finalize@plt+0x6bd7>
    4810:	48 8d 3d 49 98 20 00 	lea    rdi,[rip+0x209849]        # 20e060 <_ZSt5wcout@@GLIBCXX_3.4>
    4817:	e8 84 df ff ff       	call   27a0 <_ZStlsIwSt11char_traitsIwEERSt13basic_ostreamIT_T0_ES6_PKc@plt>
    481c:	48 89 c2             	mov    rdx,rax
    481f:	48 8b 05 aa 97 20 00 	mov    rax,QWORD PTR [rip+0x2097aa]        # 20dfd0 <_ZSt4endlIwSt11char_traitsIwEERSt13basic_ostreamIT_T0_ES6_@GLIBCXX_3.4>
    4826:	48 89 c6             	mov    rsi,rax
    4829:	48 89 d7             	mov    rdi,rdx
    482c:	e8 4f e3 ff ff       	call   2b80 <_ZNSt13basic_ostreamIwSt11char_traitsIwEElsEPFRS2_S3_E@plt>
    4831:	bf 01 00 00 00       	mov    edi,0x1
    4836:	e8 05 e2 ff ff       	call   2a40 <exit@plt>
    483b:	48 8b 45 f8          	mov    rax,QWORD PTR [rbp-0x8]
    483f:	48 8b 50 08          	mov    rdx,QWORD PTR [rax+0x8]
    4843:	8b 45 e8             	mov    eax,DWORD PTR [rbp-0x18]
    4846:	48 98                	cdqe   
    4848:	48 01 d0             	add    rax,rdx
    484b:	0f b6 00             	movzx  eax,BYTE PTR [rax]
    484e:	c9                   	leave  
    484f:	c3                   	ret    
    4850:	55                   	push   rbp
    4851:	48 89 e5             	mov    rbp,rsp
    4854:	48 83 ec 20          	sub    rsp,0x20
    4858:	89 7d ec             	mov    DWORD PTR [rbp-0x14],edi
    485b:	89 75 e8             	mov    DWORD PTR [rbp-0x18],esi
    485e:	89 d0                	mov    eax,edx
    4860:	88 45 e4             	mov    BYTE PTR [rbp-0x1c],al
    4863:	8b 45 ec             	mov    eax,DWORD PTR [rbp-0x14]
    4866:	89 c2                	mov    edx,eax
    4868:	be 0a 00 00 00       	mov    esi,0xa
    486d:	bf 00 00 00 00       	mov    edi,0x0
    4872:	e8 9b fe ff ff       	call   4712 <__cxa_finalize@plt+0x1b02>
    4877:	83 f0 01             	xor    eax,0x1
    487a:	84 c0                	test   al,al
    487c:	75 1d                	jne    489b <__cxa_finalize@plt+0x1c8b>
    487e:	8b 45 ec             	mov    eax,DWORD PTR [rbp-0x14]
    4881:	48 98                	cdqe   
    4883:	48 8d 14 c5 00 00 00 	lea    rdx,[rax*8+0x0]
    488a:	00 
    488b:	48 8d 05 6e 99 20 00 	lea    rax,[rip+0x20996e]        # 20e200 <_ZSt5wcout@@GLIBCXX_3.4+0x1a0>
    4892:	48 8b 04 02          	mov    rax,QWORD PTR [rdx+rax*1]
    4896:	48 85 c0             	test   rax,rax
    4899:	75 07                	jne    48a2 <__cxa_finalize@plt+0x1c92>
    489b:	b8 01 00 00 00       	mov    eax,0x1
    48a0:	eb 05                	jmp    48a7 <__cxa_finalize@plt+0x1c97>
    48a2:	b8 00 00 00 00       	mov    eax,0x0
    48a7:	84 c0                	test   al,al
    48a9:	74 32                	je     48dd <__cxa_finalize@plt+0x1ccd>
    48ab:	48 8d 35 22 4f 00 00 	lea    rsi,[rip+0x4f22]        # 97d4 <__cxa_finalize@plt+0x6bc4>
    48b2:	48 8d 3d a7 97 20 00 	lea    rdi,[rip+0x2097a7]        # 20e060 <_ZSt5wcout@@GLIBCXX_3.4>
    48b9:	e8 e2 de ff ff       	call   27a0 <_ZStlsIwSt11char_traitsIwEERSt13basic_ostreamIT_T0_ES6_PKc@plt>
    48be:	48 89 c2             	mov    rdx,rax
    48c1:	48 8b 05 08 97 20 00 	mov    rax,QWORD PTR [rip+0x209708]        # 20dfd0 <_ZSt4endlIwSt11char_traitsIwEERSt13basic_ostreamIT_T0_ES6_@GLIBCXX_3.4>
    48c8:	48 89 c6             	mov    rsi,rax
    48cb:	48 89 d7             	mov    rdi,rdx
    48ce:	e8 ad e2 ff ff       	call   2b80 <_ZNSt13basic_ostreamIwSt11char_traitsIwEElsEPFRS2_S3_E@plt>
    48d3:	bf 01 00 00 00       	mov    edi,0x1
    48d8:	e8 63 e1 ff ff       	call   2a40 <exit@plt>
    48dd:	8b 45 ec             	mov    eax,DWORD PTR [rbp-0x14]
    48e0:	48 98                	cdqe   
    48e2:	48 8d 14 c5 00 00 00 	lea    rdx,[rax*8+0x0]
    48e9:	00 
    48ea:	48 8d 05 0f 99 20 00 	lea    rax,[rip+0x20990f]        # 20e200 <_ZSt5wcout@@GLIBCXX_3.4+0x1a0>
    48f1:	48 8b 04 02          	mov    rax,QWORD PTR [rdx+rax*1]
    48f5:	48 89 45 f8          	mov    QWORD PTR [rbp-0x8],rax
    48f9:	48 8b 45 f8          	mov    rax,QWORD PTR [rbp-0x8]
    48fd:	48 8b 00             	mov    rax,QWORD PTR [rax]
    4900:	89 c1                	mov    ecx,eax
    4902:	8b 45 e8             	mov    eax,DWORD PTR [rbp-0x18]
    4905:	89 c2                	mov    edx,eax
    4907:	89 ce                	mov    esi,ecx
    4909:	bf 00 00 00 00       	mov    edi,0x0
    490e:	e8 ff fd ff ff       	call   4712 <__cxa_finalize@plt+0x1b02>
    4913:	83 f0 01             	xor    eax,0x1
    4916:	84 c0                	test   al,al
    4918:	74 32                	je     494c <__cxa_finalize@plt+0x1d3c>
    491a:	48 8d 35 e4 4e 00 00 	lea    rsi,[rip+0x4ee4]        # 9805 <__cxa_finalize@plt+0x6bf5>
    4921:	48 8d 3d 38 97 20 00 	lea    rdi,[rip+0x209738]        # 20e060 <_ZSt5wcout@@GLIBCXX_3.4>
    4928:	e8 73 de ff ff       	call   27a0 <_ZStlsIwSt11char_traitsIwEERSt13basic_ostreamIT_T0_ES6_PKc@plt>
    492d:	48 89 c2             	mov    rdx,rax
    4930:	48 8b 05 99 96 20 00 	mov    rax,QWORD PTR [rip+0x209699]        # 20dfd0 <_ZSt4endlIwSt11char_traitsIwEERSt13basic_ostreamIT_T0_ES6_@GLIBCXX_3.4>
    4937:	48 89 c6             	mov    rsi,rax
    493a:	48 89 d7             	mov    rdi,rdx
    493d:	e8 3e e2 ff ff       	call   2b80 <_ZNSt13basic_ostreamIwSt11char_traitsIwEElsEPFRS2_S3_E@plt>
    4942:	bf 01 00 00 00       	mov    edi,0x1
    4947:	e8 f4 e0 ff ff       	call   2a40 <exit@plt>
    494c:	48 8b 45 f8          	mov    rax,QWORD PTR [rbp-0x8]
    4950:	48 8b 50 08          	mov    rdx,QWORD PTR [rax+0x8]
    4954:	8b 45 e8             	mov    eax,DWORD PTR [rbp-0x18]
    4957:	48 98                	cdqe   
    4959:	48 01 c2             	add    rdx,rax
    495c:	0f b6 45 e4          	movzx  eax,BYTE PTR [rbp-0x1c]
    4960:	88 02                	mov    BYTE PTR [rdx],al
    4962:	90                   	nop
    4963:	c9                   	leave  
    4964:	c3                   	ret    
    4965:	55                   	push   rbp
    4966:	48 89 e5             	mov    rbp,rsp
    4969:	48 83 ec 20          	sub    rsp,0x20
    496d:	89 7d ec             	mov    DWORD PTR [rbp-0x14],edi
    4970:	8b 45 ec             	mov    eax,DWORD PTR [rbp-0x14]
    4973:	89 c2                	mov    edx,eax
    4975:	be 0a 00 00 00       	mov    esi,0xa
    497a:	bf 00 00 00 00       	mov    edi,0x0
    497f:	e8 8e fd ff ff       	call   4712 <__cxa_finalize@plt+0x1b02>
    4984:	83 f0 01             	xor    eax,0x1
    4987:	84 c0                	test   al,al
    4989:	75 1d                	jne    49a8 <__cxa_finalize@plt+0x1d98>
    498b:	8b 45 ec             	mov    eax,DWORD PTR [rbp-0x14]
    498e:	48 98                	cdqe   
    4990:	48 8d 14 c5 00 00 00 	lea    rdx,[rax*8+0x0]
    4997:	00 
    4998:	48 8d 05 61 98 20 00 	lea    rax,[rip+0x209861]        # 20e200 <_ZSt5wcout@@GLIBCXX_3.4+0x1a0>
    499f:	48 8b 04 02          	mov    rax,QWORD PTR [rdx+rax*1]
    49a3:	48 85 c0             	test   rax,rax
    49a6:	75 07                	jne    49af <__cxa_finalize@plt+0x1d9f>
    49a8:	b8 01 00 00 00       	mov    eax,0x1
    49ad:	eb 05                	jmp    49b4 <__cxa_finalize@plt+0x1da4>
    49af:	b8 00 00 00 00       	mov    eax,0x0
    49b4:	84 c0                	test   al,al
    49b6:	74 32                	je     49ea <__cxa_finalize@plt+0x1dda>
    49b8:	48 8d 35 15 4e 00 00 	lea    rsi,[rip+0x4e15]        # 97d4 <__cxa_finalize@plt+0x6bc4>
    49bf:	48 8d 3d 9a 96 20 00 	lea    rdi,[rip+0x20969a]        # 20e060 <_ZSt5wcout@@GLIBCXX_3.4>
    49c6:	e8 d5 dd ff ff       	call   27a0 <_ZStlsIwSt11char_traitsIwEERSt13basic_ostreamIT_T0_ES6_PKc@plt>
    49cb:	48 89 c2             	mov    rdx,rax
    49ce:	48 8b 05 fb 95 20 00 	mov    rax,QWORD PTR [rip+0x2095fb]        # 20dfd0 <_ZSt4endlIwSt11char_traitsIwEERSt13basic_ostreamIT_T0_ES6_@GLIBCXX_3.4>
    49d5:	48 89 c6             	mov    rsi,rax
    49d8:	48 89 d7             	mov    rdi,rdx
    49db:	e8 a0 e1 ff ff       	call   2b80 <_ZNSt13basic_ostreamIwSt11char_traitsIwEElsEPFRS2_S3_E@plt>
    49e0:	bf 01 00 00 00       	mov    edi,0x1
    49e5:	e8 56 e0 ff ff       	call   2a40 <exit@plt>
    49ea:	8b 45 ec             	mov    eax,DWORD PTR [rbp-0x14]
    49ed:	48 98                	cdqe   
    49ef:	48 8d 14 c5 00 00 00 	lea    rdx,[rax*8+0x0]
    49f6:	00 
    49f7:	48 8d 05 02 98 20 00 	lea    rax,[rip+0x209802]        # 20e200 <_ZSt5wcout@@GLIBCXX_3.4+0x1a0>
    49fe:	48 8b 04 02          	mov    rax,QWORD PTR [rdx+rax*1]
    4a02:	48 89 45 f8          	mov    QWORD PTR [rbp-0x8],rax
    4a06:	48 8b 45 f8          	mov    rax,QWORD PTR [rbp-0x8]
    4a0a:	48 8b 10             	mov    rdx,QWORD PTR [rax]
    4a0d:	48 8b 45 f8          	mov    rax,QWORD PTR [rbp-0x8]
    4a11:	48 8b 40 08          	mov    rax,QWORD PTR [rax+0x8]
    4a15:	48 89 c6             	mov    rsi,rax
    4a18:	bf 00 00 00 00       	mov    edi,0x0
    4a1d:	e8 7e e0 ff ff       	call   2aa0 <read@plt>
    4a22:	90                   	nop
    4a23:	c9                   	leave  
    4a24:	c3                   	ret    
    4a25:	55                   	push   rbp
    4a26:	48 89 e5             	mov    rbp,rsp
    4a29:	48 83 ec 20          	sub    rsp,0x20
    4a2d:	89 7d ec             	mov    DWORD PTR [rbp-0x14],edi
    4a30:	8b 45 ec             	mov    eax,DWORD PTR [rbp-0x14]
    4a33:	89 c2                	mov    edx,eax
    4a35:	be 0a 00 00 00       	mov    esi,0xa
    4a3a:	bf 00 00 00 00       	mov    edi,0x0
    4a3f:	e8 ce fc ff ff       	call   4712 <__cxa_finalize@plt+0x1b02>
    4a44:	83 f0 01             	xor    eax,0x1
    4a47:	84 c0                	test   al,al
    4a49:	75 1d                	jne    4a68 <__cxa_finalize@plt+0x1e58>
    4a4b:	8b 45 ec             	mov    eax,DWORD PTR [rbp-0x14]
    4a4e:	48 98                	cdqe   
    4a50:	48 8d 14 c5 00 00 00 	lea    rdx,[rax*8+0x0]
    4a57:	00 
    4a58:	48 8d 05 a1 97 20 00 	lea    rax,[rip+0x2097a1]        # 20e200 <_ZSt5wcout@@GLIBCXX_3.4+0x1a0>
    4a5f:	48 8b 04 02          	mov    rax,QWORD PTR [rdx+rax*1]
    4a63:	48 85 c0             	test   rax,rax
    4a66:	75 07                	jne    4a6f <__cxa_finalize@plt+0x1e5f>
    4a68:	b8 01 00 00 00       	mov    eax,0x1
    4a6d:	eb 05                	jmp    4a74 <__cxa_finalize@plt+0x1e64>
    4a6f:	b8 00 00 00 00       	mov    eax,0x0
    4a74:	84 c0                	test   al,al
    4a76:	74 32                	je     4aaa <__cxa_finalize@plt+0x1e9a>
    4a78:	48 8d 35 55 4d 00 00 	lea    rsi,[rip+0x4d55]        # 97d4 <__cxa_finalize@plt+0x6bc4>
    4a7f:	48 8d 3d da 95 20 00 	lea    rdi,[rip+0x2095da]        # 20e060 <_ZSt5wcout@@GLIBCXX_3.4>
    4a86:	e8 15 dd ff ff       	call   27a0 <_ZStlsIwSt11char_traitsIwEERSt13basic_ostreamIT_T0_ES6_PKc@plt>
    4a8b:	48 89 c2             	mov    rdx,rax
    4a8e:	48 8b 05 3b 95 20 00 	mov    rax,QWORD PTR [rip+0x20953b]        # 20dfd0 <_ZSt4endlIwSt11char_traitsIwEERSt13basic_ostreamIT_T0_ES6_@GLIBCXX_3.4>
    4a95:	48 89 c6             	mov    rsi,rax
    4a98:	48 89 d7             	mov    rdi,rdx
    4a9b:	e8 e0 e0 ff ff       	call   2b80 <_ZNSt13basic_ostreamIwSt11char_traitsIwEElsEPFRS2_S3_E@plt>
    4aa0:	bf 01 00 00 00       	mov    edi,0x1
    4aa5:	e8 96 df ff ff       	call   2a40 <exit@plt>
    4aaa:	8b 45 ec             	mov    eax,DWORD PTR [rbp-0x14]
    4aad:	48 98                	cdqe   
    4aaf:	48 8d 14 c5 00 00 00 	lea    rdx,[rax*8+0x0]
    4ab6:	00 
    4ab7:	48 8d 05 42 97 20 00 	lea    rax,[rip+0x209742]        # 20e200 <_ZSt5wcout@@GLIBCXX_3.4+0x1a0>
    4abe:	48 8b 04 02          	mov    rax,QWORD PTR [rdx+rax*1]
    4ac2:	48 89 45 f8          	mov    QWORD PTR [rbp-0x8],rax
    4ac6:	48 8b 45 f8          	mov    rax,QWORD PTR [rbp-0x8]
    4aca:	48 8b 40 08          	mov    rax,QWORD PTR [rax+0x8]
    4ace:	48 89 c7             	mov    rdi,rax
    4ad1:	e8 9a dd ff ff       	call   2870 <strlen@plt>
    4ad6:	48 89 c2             	mov    rdx,rax
    4ad9:	48 8b 45 f8          	mov    rax,QWORD PTR [rbp-0x8]
    4add:	48 8b 40 08          	mov    rax,QWORD PTR [rax+0x8]
    4ae1:	48 89 c6             	mov    rsi,rax
    4ae4:	bf 01 00 00 00       	mov    edi,0x1
    4ae9:	e8 32 dd ff ff       	call   2820 <write@plt>
    4aee:	90                   	nop
    4aef:	c9                   	leave  
    4af0:	c3                   	ret    
    4af1:	55                   	push   rbp
    4af2:	48 89 e5             	mov    rbp,rsp
    4af5:	48 83 ec 20          	sub    rsp,0x20
    4af9:	48 89 7d e8          	mov    QWORD PTR [rbp-0x18],rdi
    4afd:	64 48 8b 04 25 28 00 	mov    rax,QWORD PTR fs:0x28
    4b04:	00 00 
    4b06:	48 89 45 f8          	mov    QWORD PTR [rbp-0x8],rax
    4b0a:	31 c0                	xor    eax,eax
    4b0c:	48 8b 45 e8          	mov    rax,QWORD PTR [rbp-0x18]
    4b10:	8b 00                	mov    eax,DWORD PTR [rax]
    4b12:	83 f8 ff             	cmp    eax,0xffffffff
    4b15:	74 48                	je     4b5f <__cxa_finalize@plt+0x1f4f>
    4b17:	48 8b 45 e8          	mov    rax,QWORD PTR [rbp-0x18]
    4b1b:	8b 00                	mov    eax,DWORD PTR [rax]
    4b1d:	8d 48 ff             	lea    ecx,[rax-0x1]
    4b20:	48 8b 55 e8          	mov    rdx,QWORD PTR [rbp-0x18]
    4b24:	89 0a                	mov    DWORD PTR [rdx],ecx
    4b26:	48 98                	cdqe   
    4b28:	48 8d 14 c5 00 00 00 	lea    rdx,[rax*8+0x0]
    4b2f:	00 
    4b30:	48 8d 05 29 97 20 00 	lea    rax,[rip+0x209729]        # 20e260 <_ZSt5wcout@@GLIBCXX_3.4+0x200>
    4b37:	48 8b 04 02          	mov    rax,QWORD PTR [rdx+rax*1]
    4b3b:	88 45 f7             	mov    BYTE PTR [rbp-0x9],al
    4b3e:	0f b6 45 f7          	movzx  eax,BYTE PTR [rbp-0x9]
    4b42:	84 c0                	test   al,al
    4b44:	74 18                	je     4b5e <__cxa_finalize@plt+0x1f4e>
    4b46:	48 8d 45 f7          	lea    rax,[rbp-0x9]
    4b4a:	ba 01 00 00 00       	mov    edx,0x1
    4b4f:	48 89 c6             	mov    rsi,rax
    4b52:	bf 01 00 00 00       	mov    edi,0x1
    4b57:	e8 c4 dc ff ff       	call   2820 <write@plt>
    4b5c:	eb ae                	jmp    4b0c <__cxa_finalize@plt+0x1efc>
    4b5e:	90                   	nop
    4b5f:	48 8b 45 f8          	mov    rax,QWORD PTR [rbp-0x8]
    4b63:	64 48 33 04 25 28 00 	xor    rax,QWORD PTR fs:0x28
    4b6a:	00 00 
    4b6c:	74 05                	je     4b73 <__cxa_finalize@plt+0x1f63>
    4b6e:	e8 8d de ff ff       	call   2a00 <__stack_chk_fail@plt>
    4b73:	c9                   	leave  
    4b74:	c3                   	ret    
    4b75:	55                   	push   rbp
    4b76:	48 89 e5             	mov    rbp,rsp
    4b79:	48 83 ec 10          	sub    rsp,0x10
    4b7d:	48 89 7d f8          	mov    QWORD PTR [rbp-0x8],rdi
    4b81:	48 8b 45 f8          	mov    rax,QWORD PTR [rbp-0x8]
    4b85:	48 89 c6             	mov    rsi,rax
    4b88:	48 8d 3d d1 94 20 00 	lea    rdi,[rip+0x2094d1]        # 20e060 <_ZSt5wcout@@GLIBCXX_3.4>
    4b8f:	e8 ac dd ff ff       	call   2940 <_ZNSt13basic_ostreamIwSt11char_traitsIwEElsEl@plt>
    4b94:	90                   	nop
    4b95:	c9                   	leave  
    4b96:	c3                   	ret    
    4b97:	55                   	push   rbp
    4b98:	48 89 e5             	mov    rbp,rsp
    4b9b:	48 83 ec 20          	sub    rsp,0x20
    4b9f:	48 89 7d e8          	mov    QWORD PTR [rbp-0x18],rdi
    4ba3:	48 81 7d e8 dc 05 00 	cmp    QWORD PTR [rbp-0x18],0x5dc
    4baa:	00 
    4bab:	76 44                	jbe    4bf1 <__cxa_finalize@plt+0x1fe1>
    4bad:	48 8d 35 6f 4c 00 00 	lea    rsi,[rip+0x4c6f]        # 9823 <__cxa_finalize@plt+0x6c13>
    4bb4:	48 8d 3d a5 94 20 00 	lea    rdi,[rip+0x2094a5]        # 20e060 <_ZSt5wcout@@GLIBCXX_3.4>
    4bbb:	e8 e0 db ff ff       	call   27a0 <_ZStlsIwSt11char_traitsIwEERSt13basic_ostreamIT_T0_ES6_PKc@plt>
    4bc0:	48 89 c2             	mov    rdx,rax
    4bc3:	48 8b 45 e8          	mov    rax,QWORD PTR [rbp-0x18]
    4bc7:	48 89 c6             	mov    rsi,rax
    4bca:	48 89 d7             	mov    rdi,rdx
    4bcd:	e8 fe dc ff ff       	call   28d0 <_ZNSt13basic_ostreamIwSt11char_traitsIwEElsEm@plt>
    4bd2:	48 89 c2             	mov    rdx,rax
    4bd5:	48 8b 05 f4 93 20 00 	mov    rax,QWORD PTR [rip+0x2093f4]        # 20dfd0 <_ZSt4endlIwSt11char_traitsIwEERSt13basic_ostreamIT_T0_ES6_@GLIBCXX_3.4>
    4bdc:	48 89 c6             	mov    rsi,rax
    4bdf:	48 89 d7             	mov    rdi,rdx
    4be2:	e8 99 df ff ff       	call   2b80 <_ZNSt13basic_ostreamIwSt11char_traitsIwEElsEPFRS2_S3_E@plt>
    4be7:	bf 01 00 00 00       	mov    edi,0x1
    4bec:	e8 4f de ff ff       	call   2a40 <exit@plt>
    4bf1:	bf 10 00 00 00       	mov    edi,0x10
    4bf6:	e8 a5 dd ff ff       	call   29a0 <_Znwm@plt>
    4bfb:	48 89 45 f8          	mov    QWORD PTR [rbp-0x8],rax
    4bff:	48 8b 45 f8          	mov    rax,QWORD PTR [rbp-0x8]
    4c03:	48 8b 55 e8          	mov    rdx,QWORD PTR [rbp-0x18]
    4c07:	48 89 10             	mov    QWORD PTR [rax],rdx
    4c0a:	48 8b 45 e8          	mov    rax,QWORD PTR [rbp-0x18]
    4c0e:	48 83 c0 01          	add    rax,0x1
    4c12:	48 89 c7             	mov    rdi,rax
    4c15:	e8 46 db ff ff       	call   2760 <_Znam@plt>
    4c1a:	48 89 c2             	mov    rdx,rax
    4c1d:	48 8b 45 f8          	mov    rax,QWORD PTR [rbp-0x8]
    4c21:	48 89 50 08          	mov    QWORD PTR [rax+0x8],rdx
    4c25:	48 8b 45 e8          	mov    rax,QWORD PTR [rbp-0x18]
    4c29:	48 8d 50 01          	lea    rdx,[rax+0x1]
    4c2d:	48 8b 45 f8          	mov    rax,QWORD PTR [rbp-0x8]
    4c31:	48 8b 40 08          	mov    rax,QWORD PTR [rax+0x8]
    4c35:	be 00 00 00 00       	mov    esi,0x0
    4c3a:	48 89 c7             	mov    rdi,rax
    4c3d:	e8 6e dc ff ff       	call   28b0 <memset@plt>
    4c42:	c6 45 f3 00          	mov    BYTE PTR [rbp-0xd],0x0
    4c46:	c7 45 f4 00 00 00 00 	mov    DWORD PTR [rbp-0xc],0x0
    4c4d:	83 7d f4 09          	cmp    DWORD PTR [rbp-0xc],0x9
    4c51:	7f 45                	jg     4c98 <__cxa_finalize@plt+0x2088>
    4c53:	8b 45 f4             	mov    eax,DWORD PTR [rbp-0xc]
    4c56:	48 98                	cdqe   
    4c58:	48 8d 14 c5 00 00 00 	lea    rdx,[rax*8+0x0]
    4c5f:	00 
    4c60:	48 8d 05 99 95 20 00 	lea    rax,[rip+0x209599]        # 20e200 <_ZSt5wcout@@GLIBCXX_3.4+0x1a0>
    4c67:	48 8b 04 02          	mov    rax,QWORD PTR [rdx+rax*1]
    4c6b:	48 85 c0             	test   rax,rax
    4c6e:	75 22                	jne    4c92 <__cxa_finalize@plt+0x2082>
    4c70:	8b 45 f4             	mov    eax,DWORD PTR [rbp-0xc]
    4c73:	48 98                	cdqe   
    4c75:	48 8d 0c c5 00 00 00 	lea    rcx,[rax*8+0x0]
    4c7c:	00 
    4c7d:	48 8d 05 7c 95 20 00 	lea    rax,[rip+0x20957c]        # 20e200 <_ZSt5wcout@@GLIBCXX_3.4+0x1a0>
    4c84:	48 8b 55 f8          	mov    rdx,QWORD PTR [rbp-0x8]
    4c88:	48 89 14 01          	mov    QWORD PTR [rcx+rax*1],rdx
    4c8c:	c6 45 f3 01          	mov    BYTE PTR [rbp-0xd],0x1
    4c90:	eb 06                	jmp    4c98 <__cxa_finalize@plt+0x2088>
    4c92:	83 45 f4 01          	add    DWORD PTR [rbp-0xc],0x1
    4c96:	eb b5                	jmp    4c4d <__cxa_finalize@plt+0x203d>
    4c98:	0f b6 45 f3          	movzx  eax,BYTE PTR [rbp-0xd]
    4c9c:	83 f0 01             	xor    eax,0x1
    4c9f:	84 c0                	test   al,al
    4ca1:	74 29                	je     4ccc <__cxa_finalize@plt+0x20bc>
    4ca3:	48 8b 45 f8          	mov    rax,QWORD PTR [rbp-0x8]
    4ca7:	48 8b 40 08          	mov    rax,QWORD PTR [rax+0x8]
    4cab:	48 85 c0             	test   rax,rax
    4cae:	74 10                	je     4cc0 <__cxa_finalize@plt+0x20b0>
    4cb0:	48 8b 45 f8          	mov    rax,QWORD PTR [rbp-0x8]
    4cb4:	48 8b 40 08          	mov    rax,QWORD PTR [rax+0x8]
    4cb8:	48 89 c7             	mov    rdi,rax
    4cbb:	e8 b0 dd ff ff       	call   2a70 <_ZdaPv@plt>
    4cc0:	48 8b 45 f8          	mov    rax,QWORD PTR [rbp-0x8]
    4cc4:	48 89 c7             	mov    rdi,rax
    4cc7:	e8 c4 dc ff ff       	call   2990 <_ZdlPv@plt>
    4ccc:	90                   	nop
    4ccd:	c9                   	leave  
    4cce:	c3                   	ret    
    4ccf:	55                   	push   rbp
    4cd0:	48 89 e5             	mov    rbp,rsp
    4cd3:	48 83 ec 20          	sub    rsp,0x20
    4cd7:	89 7d ec             	mov    DWORD PTR [rbp-0x14],edi
    4cda:	8b 45 ec             	mov    eax,DWORD PTR [rbp-0x14]
    4cdd:	89 c2                	mov    edx,eax
    4cdf:	be 0a 00 00 00       	mov    esi,0xa
    4ce4:	bf 00 00 00 00       	mov    edi,0x0
    4ce9:	e8 24 fa ff ff       	call   4712 <__cxa_finalize@plt+0x1b02>
    4cee:	83 f0 01             	xor    eax,0x1
    4cf1:	84 c0                	test   al,al
    4cf3:	75 1d                	jne    4d12 <__cxa_finalize@plt+0x2102>
    4cf5:	8b 45 ec             	mov    eax,DWORD PTR [rbp-0x14]
    4cf8:	48 98                	cdqe   
    4cfa:	48 8d 14 c5 00 00 00 	lea    rdx,[rax*8+0x0]
    4d01:	00 
    4d02:	48 8d 05 f7 94 20 00 	lea    rax,[rip+0x2094f7]        # 20e200 <_ZSt5wcout@@GLIBCXX_3.4+0x1a0>
    4d09:	48 8b 04 02          	mov    rax,QWORD PTR [rdx+rax*1]
    4d0d:	48 85 c0             	test   rax,rax
    4d10:	75 07                	jne    4d19 <__cxa_finalize@plt+0x2109>
    4d12:	b8 01 00 00 00       	mov    eax,0x1
    4d17:	eb 05                	jmp    4d1e <__cxa_finalize@plt+0x210e>
    4d19:	b8 00 00 00 00       	mov    eax,0x0
    4d1e:	84 c0                	test   al,al
    4d20:	74 32                	je     4d54 <__cxa_finalize@plt+0x2144>
    4d22:	48 8d 35 ab 4a 00 00 	lea    rsi,[rip+0x4aab]        # 97d4 <__cxa_finalize@plt+0x6bc4>
    4d29:	48 8d 3d 30 93 20 00 	lea    rdi,[rip+0x209330]        # 20e060 <_ZSt5wcout@@GLIBCXX_3.4>
    4d30:	e8 6b da ff ff       	call   27a0 <_ZStlsIwSt11char_traitsIwEERSt13basic_ostreamIT_T0_ES6_PKc@plt>
    4d35:	48 89 c2             	mov    rdx,rax
    4d38:	48 8b 05 91 92 20 00 	mov    rax,QWORD PTR [rip+0x209291]        # 20dfd0 <_ZSt4endlIwSt11char_traitsIwEERSt13basic_ostreamIT_T0_ES6_@GLIBCXX_3.4>
    4d3f:	48 89 c6             	mov    rsi,rax
    4d42:	48 89 d7             	mov    rdi,rdx
    4d45:	e8 36 de ff ff       	call   2b80 <_ZNSt13basic_ostreamIwSt11char_traitsIwEElsEPFRS2_S3_E@plt>
    4d4a:	bf 01 00 00 00       	mov    edi,0x1
    4d4f:	e8 ec dc ff ff       	call   2a40 <exit@plt>
    4d54:	8b 45 ec             	mov    eax,DWORD PTR [rbp-0x14]
    4d57:	48 98                	cdqe   
    4d59:	48 8d 14 c5 00 00 00 	lea    rdx,[rax*8+0x0]
    4d60:	00 
    4d61:	48 8d 05 98 94 20 00 	lea    rax,[rip+0x209498]        # 20e200 <_ZSt5wcout@@GLIBCXX_3.4+0x1a0>
    4d68:	48 8b 04 02          	mov    rax,QWORD PTR [rdx+rax*1]
    4d6c:	48 89 45 f8          	mov    QWORD PTR [rbp-0x8],rax
    4d70:	48 8b 45 f8          	mov    rax,QWORD PTR [rbp-0x8]
    4d74:	48 8b 40 08          	mov    rax,QWORD PTR [rax+0x8]
    4d78:	48 85 c0             	test   rax,rax
    4d7b:	74 10                	je     4d8d <__cxa_finalize@plt+0x217d>
    4d7d:	48 8b 45 f8          	mov    rax,QWORD PTR [rbp-0x8]
    4d81:	48 8b 40 08          	mov    rax,QWORD PTR [rax+0x8]
    4d85:	48 89 c7             	mov    rdi,rax
    4d88:	e8 e3 dc ff ff       	call   2a70 <_ZdaPv@plt>
    4d8d:	48 8b 45 f8          	mov    rax,QWORD PTR [rbp-0x8]
    4d91:	48 89 c7             	mov    rdi,rax
    4d94:	e8 f7 db ff ff       	call   2990 <_ZdlPv@plt>
    4d99:	8b 45 ec             	mov    eax,DWORD PTR [rbp-0x14]
    4d9c:	48 98                	cdqe   
    4d9e:	48 8d 14 c5 00 00 00 	lea    rdx,[rax*8+0x0]
    4da5:	00 
    4da6:	48 8d 05 53 94 20 00 	lea    rax,[rip+0x209453]        # 20e200 <_ZSt5wcout@@GLIBCXX_3.4+0x1a0>
    4dad:	48 c7 04 02 00 00 00 	mov    QWORD PTR [rdx+rax*1],0x0
    4db4:	00 
    4db5:	90                   	nop
    4db6:	c9                   	leave  
    4db7:	c3                   	ret    
    4db8:	55                   	push   rbp
    4db9:	48 89 e5             	mov    rbp,rsp
    4dbc:	48 83 ec 40          	sub    rsp,0x40
    4dc0:	48 89 7d c8          	mov    QWORD PTR [rbp-0x38],rdi
    4dc4:	64 48 8b 04 25 28 00 	mov    rax,QWORD PTR fs:0x28
    4dcb:	00 00 
    4dcd:	48 89 45 f8          	mov    QWORD PTR [rbp-0x8],rax
    4dd1:	31 c0                	xor    eax,eax
    4dd3:	c7 45 d4 ff ff ff ff 	mov    DWORD PTR [rbp-0x2c],0xffffffff
    4dda:	48 8b 45 c8          	mov    rax,QWORD PTR [rbp-0x38]
    4dde:	48 89 c7             	mov    rdi,rax
    4de1:	e8 6a dd ff ff       	call   2b50 <_ZNKSt7__cxx1112basic_stringIwSt11char_traitsIwESaIwEE6lengthEv@plt>
    4de6:	89 45 e4             	mov    DWORD PTR [rbp-0x1c],eax
    4de9:	c7 45 dc 00 00 00 00 	mov    DWORD PTR [rbp-0x24],0x0
    4df0:	48 c7 45 e8 00 00 00 	mov    QWORD PTR [rbp-0x18],0x0
    4df7:	00 
    4df8:	48 c7 45 f0 00 00 00 	mov    QWORD PTR [rbp-0x10],0x0
    4dff:	00 
    4e00:	c6 45 d3 00          	mov    BYTE PTR [rbp-0x2d],0x0
    4e04:	c7 45 e0 00 00 00 00 	mov    DWORD PTR [rbp-0x20],0x0
    4e0b:	8b 45 dc             	mov    eax,DWORD PTR [rbp-0x24]
    4e0e:	3b 45 e4             	cmp    eax,DWORD PTR [rbp-0x1c]
    4e11:	0f 8d 21 09 00 00    	jge    5738 <__cxa_finalize@plt+0x2b28>
    4e17:	83 45 e0 01          	add    DWORD PTR [rbp-0x20],0x1
    4e1b:	81 7d e0 40 42 0f 00 	cmp    DWORD PTR [rbp-0x20],0xf4240
    4e22:	76 32                	jbe    4e56 <__cxa_finalize@plt+0x2246>
    4e24:	48 8d 35 1d 4a 00 00 	lea    rsi,[rip+0x4a1d]        # 9848 <__cxa_finalize@plt+0x6c38>
    4e2b:	48 8d 3d 2e 92 20 00 	lea    rdi,[rip+0x20922e]        # 20e060 <_ZSt5wcout@@GLIBCXX_3.4>
    4e32:	e8 69 d9 ff ff       	call   27a0 <_ZStlsIwSt11char_traitsIwEERSt13basic_ostreamIT_T0_ES6_PKc@plt>
    4e37:	48 89 c2             	mov    rdx,rax
    4e3a:	48 8b 05 8f 91 20 00 	mov    rax,QWORD PTR [rip+0x20918f]        # 20dfd0 <_ZSt4endlIwSt11char_traitsIwEERSt13basic_ostreamIT_T0_ES6_@GLIBCXX_3.4>
    4e41:	48 89 c6             	mov    rsi,rax
    4e44:	48 89 d7             	mov    rdi,rdx
    4e47:	e8 34 dd ff ff       	call   2b80 <_ZNSt13basic_ostreamIwSt11char_traitsIwEElsEPFRS2_S3_E@plt>
    4e4c:	bf 01 00 00 00       	mov    edi,0x1
    4e51:	e8 ea db ff ff       	call   2a40 <exit@plt>
    4e56:	8b 45 dc             	mov    eax,DWORD PTR [rbp-0x24]
    4e59:	48 63 d0             	movsxd rdx,eax
    4e5c:	48 8b 45 c8          	mov    rax,QWORD PTR [rbp-0x38]
    4e60:	48 89 d6             	mov    rsi,rdx
    4e63:	48 89 c7             	mov    rdi,rax
    4e66:	e8 e5 db ff ff       	call   2a50 <_ZNSt7__cxx1112basic_stringIwSt11char_traitsIwESaIwEEixEm@plt>
    4e6b:	8b 00                	mov    eax,DWORD PTR [rax]
    4e6d:	89 45 d8             	mov    DWORD PTR [rbp-0x28],eax
    4e70:	48 8d 45 d8          	lea    rax,[rbp-0x28]
    4e74:	48 89 c6             	mov    rsi,rax
    4e77:	48 8d 3d 02 93 20 00 	lea    rdi,[rip+0x209302]        # 20e180 <_ZSt5wcout@@GLIBCXX_3.4+0x120>
    4e7e:	e8 85 12 00 00       	call   6108 <__cxa_finalize@plt+0x34f8>
    4e83:	8b 00                	mov    eax,DWORD PTR [rax]
    4e85:	83 f8 17             	cmp    eax,0x17
    4e88:	0f 87 54 08 00 00    	ja     56e2 <__cxa_finalize@plt+0x2ad2>
    4e8e:	89 c0                	mov    eax,eax
    4e90:	48 8d 14 85 00 00 00 	lea    rdx,[rax*4+0x0]
    4e97:	00 
    4e98:	48 8d 05 85 4a 00 00 	lea    rax,[rip+0x4a85]        # 9924 <__cxa_finalize@plt+0x6d14>
    4e9f:	8b 04 02             	mov    eax,DWORD PTR [rdx+rax*1]
    4ea2:	48 63 d0             	movsxd rdx,eax
    4ea5:	48 8d 05 78 4a 00 00 	lea    rax,[rip+0x4a78]        # 9924 <__cxa_finalize@plt+0x6d14>
    4eac:	48 01 d0             	add    rax,rdx
    4eaf:	ff e0                	jmp    rax
    4eb1:	83 45 dc 01          	add    DWORD PTR [rbp-0x24],0x1
    4eb5:	e9 51 ff ff ff       	jmp    4e0b <__cxa_finalize@plt+0x21fb>
    4eba:	8b 45 d4             	mov    eax,DWORD PTR [rbp-0x2c]
    4ebd:	8d 50 ff             	lea    edx,[rax-0x1]
    4ec0:	89 55 d4             	mov    DWORD PTR [rbp-0x2c],edx
    4ec3:	48 98                	cdqe   
    4ec5:	48 8d 14 c5 00 00 00 	lea    rdx,[rax*8+0x0]
    4ecc:	00 
    4ecd:	48 8d 05 8c 93 20 00 	lea    rax,[rip+0x20938c]        # 20e260 <_ZSt5wcout@@GLIBCXX_3.4+0x200>
    4ed4:	48 8b 04 02          	mov    rax,QWORD PTR [rdx+rax*1]
    4ed8:	48 89 45 e8          	mov    QWORD PTR [rbp-0x18],rax
    4edc:	8b 45 d4             	mov    eax,DWORD PTR [rbp-0x2c]
    4edf:	8d 50 ff             	lea    edx,[rax-0x1]
    4ee2:	89 55 d4             	mov    DWORD PTR [rbp-0x2c],edx
    4ee5:	48 98                	cdqe   
    4ee7:	48 8d 14 c5 00 00 00 	lea    rdx,[rax*8+0x0]
    4eee:	00 
    4eef:	48 8d 05 6a 93 20 00 	lea    rax,[rip+0x20936a]        # 20e260 <_ZSt5wcout@@GLIBCXX_3.4+0x200>
    4ef6:	48 8b 04 02          	mov    rax,QWORD PTR [rdx+rax*1]
    4efa:	48 89 45 f0          	mov    QWORD PTR [rbp-0x10],rax
    4efe:	8b 45 d4             	mov    eax,DWORD PTR [rbp-0x2c]
    4f01:	83 c0 01             	add    eax,0x1
    4f04:	89 45 d4             	mov    DWORD PTR [rbp-0x2c],eax
    4f07:	8b 45 d4             	mov    eax,DWORD PTR [rbp-0x2c]
    4f0a:	48 8b 4d e8          	mov    rcx,QWORD PTR [rbp-0x18]
    4f0e:	48 8b 55 f0          	mov    rdx,QWORD PTR [rbp-0x10]
    4f12:	48 01 d1             	add    rcx,rdx
    4f15:	48 98                	cdqe   
    4f17:	48 8d 14 c5 00 00 00 	lea    rdx,[rax*8+0x0]
    4f1e:	00 
    4f1f:	48 8d 05 3a 93 20 00 	lea    rax,[rip+0x20933a]        # 20e260 <_ZSt5wcout@@GLIBCXX_3.4+0x200>
    4f26:	48 89 0c 02          	mov    QWORD PTR [rdx+rax*1],rcx
    4f2a:	83 45 dc 01          	add    DWORD PTR [rbp-0x24],0x1
    4f2e:	e9 00 08 00 00       	jmp    5733 <__cxa_finalize@plt+0x2b23>
    4f33:	8b 45 d4             	mov    eax,DWORD PTR [rbp-0x2c]
    4f36:	8d 50 ff             	lea    edx,[rax-0x1]
    4f39:	89 55 d4             	mov    DWORD PTR [rbp-0x2c],edx
    4f3c:	48 98                	cdqe   
    4f3e:	48 8d 14 c5 00 00 00 	lea    rdx,[rax*8+0x0]
    4f45:	00 
    4f46:	48 8d 05 13 93 20 00 	lea    rax,[rip+0x209313]        # 20e260 <_ZSt5wcout@@GLIBCXX_3.4+0x200>
    4f4d:	48 8b 04 02          	mov    rax,QWORD PTR [rdx+rax*1]
    4f51:	48 89 45 e8          	mov    QWORD PTR [rbp-0x18],rax
    4f55:	8b 45 d4             	mov    eax,DWORD PTR [rbp-0x2c]
    4f58:	8d 50 ff             	lea    edx,[rax-0x1]
    4f5b:	89 55 d4             	mov    DWORD PTR [rbp-0x2c],edx
    4f5e:	48 98                	cdqe   
    4f60:	48 8d 14 c5 00 00 00 	lea    rdx,[rax*8+0x0]
    4f67:	00 
    4f68:	48 8d 05 f1 92 20 00 	lea    rax,[rip+0x2092f1]        # 20e260 <_ZSt5wcout@@GLIBCXX_3.4+0x200>
    4f6f:	48 8b 04 02          	mov    rax,QWORD PTR [rdx+rax*1]
    4f73:	48 89 45 f0          	mov    QWORD PTR [rbp-0x10],rax
    4f77:	8b 45 d4             	mov    eax,DWORD PTR [rbp-0x2c]
    4f7a:	83 c0 01             	add    eax,0x1
    4f7d:	89 45 d4             	mov    DWORD PTR [rbp-0x2c],eax
    4f80:	8b 4d d4             	mov    ecx,DWORD PTR [rbp-0x2c]
    4f83:	48 8b 45 e8          	mov    rax,QWORD PTR [rbp-0x18]
    4f87:	48 2b 45 f0          	sub    rax,QWORD PTR [rbp-0x10]
    4f8b:	48 89 c2             	mov    rdx,rax
    4f8e:	48 63 c1             	movsxd rax,ecx
    4f91:	48 8d 0c c5 00 00 00 	lea    rcx,[rax*8+0x0]
    4f98:	00 
    4f99:	48 8d 05 c0 92 20 00 	lea    rax,[rip+0x2092c0]        # 20e260 <_ZSt5wcout@@GLIBCXX_3.4+0x200>
    4fa0:	48 89 14 01          	mov    QWORD PTR [rcx+rax*1],rdx
    4fa4:	83 45 dc 01          	add    DWORD PTR [rbp-0x24],0x1
    4fa8:	e9 86 07 00 00       	jmp    5733 <__cxa_finalize@plt+0x2b23>
    4fad:	8b 45 d4             	mov    eax,DWORD PTR [rbp-0x2c]
    4fb0:	8d 50 ff             	lea    edx,[rax-0x1]
    4fb3:	89 55 d4             	mov    DWORD PTR [rbp-0x2c],edx
    4fb6:	48 98                	cdqe   
    4fb8:	48 8d 14 c5 00 00 00 	lea    rdx,[rax*8+0x0]
    4fbf:	00 
    4fc0:	48 8d 05 99 92 20 00 	lea    rax,[rip+0x209299]        # 20e260 <_ZSt5wcout@@GLIBCXX_3.4+0x200>
    4fc7:	48 8b 04 02          	mov    rax,QWORD PTR [rdx+rax*1]
    4fcb:	48 89 45 e8          	mov    QWORD PTR [rbp-0x18],rax
    4fcf:	8b 45 d4             	mov    eax,DWORD PTR [rbp-0x2c]
    4fd2:	8d 50 ff             	lea    edx,[rax-0x1]
    4fd5:	89 55 d4             	mov    DWORD PTR [rbp-0x2c],edx
    4fd8:	48 98                	cdqe   
    4fda:	48 8d 14 c5 00 00 00 	lea    rdx,[rax*8+0x0]
    4fe1:	00 
    4fe2:	48 8d 05 77 92 20 00 	lea    rax,[rip+0x209277]        # 20e260 <_ZSt5wcout@@GLIBCXX_3.4+0x200>
    4fe9:	48 8b 04 02          	mov    rax,QWORD PTR [rdx+rax*1]
    4fed:	48 89 45 f0          	mov    QWORD PTR [rbp-0x10],rax
    4ff1:	8b 45 d4             	mov    eax,DWORD PTR [rbp-0x2c]
    4ff4:	83 c0 01             	add    eax,0x1
    4ff7:	89 45 d4             	mov    DWORD PTR [rbp-0x2c],eax
    4ffa:	8b 4d d4             	mov    ecx,DWORD PTR [rbp-0x2c]
    4ffd:	48 8b 45 e8          	mov    rax,QWORD PTR [rbp-0x18]
    5001:	48 0f af 45 f0       	imul   rax,QWORD PTR [rbp-0x10]
    5006:	48 89 c2             	mov    rdx,rax
    5009:	48 63 c1             	movsxd rax,ecx
    500c:	48 8d 0c c5 00 00 00 	lea    rcx,[rax*8+0x0]
    5013:	00 
    5014:	48 8d 05 45 92 20 00 	lea    rax,[rip+0x209245]        # 20e260 <_ZSt5wcout@@GLIBCXX_3.4+0x200>
    501b:	48 89 14 01          	mov    QWORD PTR [rcx+rax*1],rdx
    501f:	83 45 dc 01          	add    DWORD PTR [rbp-0x24],0x1
    5023:	e9 0b 07 00 00       	jmp    5733 <__cxa_finalize@plt+0x2b23>
    5028:	8b 45 d4             	mov    eax,DWORD PTR [rbp-0x2c]
    502b:	8d 50 ff             	lea    edx,[rax-0x1]
    502e:	89 55 d4             	mov    DWORD PTR [rbp-0x2c],edx
    5031:	48 98                	cdqe   
    5033:	48 8d 14 c5 00 00 00 	lea    rdx,[rax*8+0x0]
    503a:	00 
    503b:	48 8d 05 1e 92 20 00 	lea    rax,[rip+0x20921e]        # 20e260 <_ZSt5wcout@@GLIBCXX_3.4+0x200>
    5042:	48 8b 04 02          	mov    rax,QWORD PTR [rdx+rax*1]
    5046:	48 89 45 e8          	mov    QWORD PTR [rbp-0x18],rax
    504a:	8b 45 d4             	mov    eax,DWORD PTR [rbp-0x2c]
    504d:	8d 50 ff             	lea    edx,[rax-0x1]
    5050:	89 55 d4             	mov    DWORD PTR [rbp-0x2c],edx
    5053:	48 98                	cdqe   
    5055:	48 8d 14 c5 00 00 00 	lea    rdx,[rax*8+0x0]
    505c:	00 
    505d:	48 8d 05 fc 91 20 00 	lea    rax,[rip+0x2091fc]        # 20e260 <_ZSt5wcout@@GLIBCXX_3.4+0x200>
    5064:	48 8b 04 02          	mov    rax,QWORD PTR [rdx+rax*1]
    5068:	48 89 45 f0          	mov    QWORD PTR [rbp-0x10],rax
    506c:	8b 45 d4             	mov    eax,DWORD PTR [rbp-0x2c]
    506f:	83 c0 01             	add    eax,0x1
    5072:	89 45 d4             	mov    DWORD PTR [rbp-0x2c],eax
    5075:	8b 4d d4             	mov    ecx,DWORD PTR [rbp-0x2c]
    5078:	48 8b 45 e8          	mov    rax,QWORD PTR [rbp-0x18]
    507c:	48 99                	cqo    
    507e:	48 f7 7d f0          	idiv   QWORD PTR [rbp-0x10]
    5082:	48 89 d6             	mov    rsi,rdx
    5085:	48 63 c1             	movsxd rax,ecx
    5088:	48 8d 14 c5 00 00 00 	lea    rdx,[rax*8+0x0]
    508f:	00 
    5090:	48 8d 05 c9 91 20 00 	lea    rax,[rip+0x2091c9]        # 20e260 <_ZSt5wcout@@GLIBCXX_3.4+0x200>
    5097:	48 89 34 02          	mov    QWORD PTR [rdx+rax*1],rsi
    509b:	83 45 dc 01          	add    DWORD PTR [rbp-0x24],0x1
    509f:	e9 8f 06 00 00       	jmp    5733 <__cxa_finalize@plt+0x2b23>
    50a4:	8b 45 d4             	mov    eax,DWORD PTR [rbp-0x2c]
    50a7:	8d 50 ff             	lea    edx,[rax-0x1]
    50aa:	89 55 d4             	mov    DWORD PTR [rbp-0x2c],edx
    50ad:	48 98                	cdqe   
    50af:	48 8d 14 c5 00 00 00 	lea    rdx,[rax*8+0x0]
    50b6:	00 
    50b7:	48 8d 05 a2 91 20 00 	lea    rax,[rip+0x2091a2]        # 20e260 <_ZSt5wcout@@GLIBCXX_3.4+0x200>
    50be:	48 8b 04 02          	mov    rax,QWORD PTR [rdx+rax*1]
    50c2:	48 89 45 e8          	mov    QWORD PTR [rbp-0x18],rax
    50c6:	8b 45 d4             	mov    eax,DWORD PTR [rbp-0x2c]
    50c9:	8d 50 ff             	lea    edx,[rax-0x1]
    50cc:	89 55 d4             	mov    DWORD PTR [rbp-0x2c],edx
    50cf:	48 98                	cdqe   
    50d1:	48 8d 14 c5 00 00 00 	lea    rdx,[rax*8+0x0]
    50d8:	00 
    50d9:	48 8d 05 80 91 20 00 	lea    rax,[rip+0x209180]        # 20e260 <_ZSt5wcout@@GLIBCXX_3.4+0x200>
    50e0:	48 8b 04 02          	mov    rax,QWORD PTR [rdx+rax*1]
    50e4:	48 89 45 f0          	mov    QWORD PTR [rbp-0x10],rax
    50e8:	8b 45 d4             	mov    eax,DWORD PTR [rbp-0x2c]
    50eb:	83 c0 01             	add    eax,0x1
    50ee:	89 45 d4             	mov    DWORD PTR [rbp-0x2c],eax
    50f1:	8b 4d d4             	mov    ecx,DWORD PTR [rbp-0x2c]
    50f4:	48 8b 45 e8          	mov    rax,QWORD PTR [rbp-0x18]
    50f8:	48 33 45 f0          	xor    rax,QWORD PTR [rbp-0x10]
    50fc:	48 89 c2             	mov    rdx,rax
    50ff:	48 63 c1             	movsxd rax,ecx
    5102:	48 8d 0c c5 00 00 00 	lea    rcx,[rax*8+0x0]
    5109:	00 
    510a:	48 8d 05 4f 91 20 00 	lea    rax,[rip+0x20914f]        # 20e260 <_ZSt5wcout@@GLIBCXX_3.4+0x200>
    5111:	48 89 14 01          	mov    QWORD PTR [rcx+rax*1],rdx
    5115:	83 45 dc 01          	add    DWORD PTR [rbp-0x24],0x1
    5119:	e9 15 06 00 00       	jmp    5733 <__cxa_finalize@plt+0x2b23>
    511e:	8b 45 d4             	mov    eax,DWORD PTR [rbp-0x2c]
    5121:	8d 50 ff             	lea    edx,[rax-0x1]
    5124:	89 55 d4             	mov    DWORD PTR [rbp-0x2c],edx
    5127:	48 98                	cdqe   
    5129:	48 8d 14 c5 00 00 00 	lea    rdx,[rax*8+0x0]
    5130:	00 
    5131:	48 8d 05 28 91 20 00 	lea    rax,[rip+0x209128]        # 20e260 <_ZSt5wcout@@GLIBCXX_3.4+0x200>
    5138:	48 8b 04 02          	mov    rax,QWORD PTR [rdx+rax*1]
    513c:	48 89 45 e8          	mov    QWORD PTR [rbp-0x18],rax
    5140:	8b 45 d4             	mov    eax,DWORD PTR [rbp-0x2c]
    5143:	8d 50 ff             	lea    edx,[rax-0x1]
    5146:	89 55 d4             	mov    DWORD PTR [rbp-0x2c],edx
    5149:	48 98                	cdqe   
    514b:	48 8d 14 c5 00 00 00 	lea    rdx,[rax*8+0x0]
    5152:	00 
    5153:	48 8d 05 06 91 20 00 	lea    rax,[rip+0x209106]        # 20e260 <_ZSt5wcout@@GLIBCXX_3.4+0x200>
    515a:	48 8b 04 02          	mov    rax,QWORD PTR [rdx+rax*1]
    515e:	48 89 45 f0          	mov    QWORD PTR [rbp-0x10],rax
    5162:	8b 45 d4             	mov    eax,DWORD PTR [rbp-0x2c]
    5165:	83 c0 01             	add    eax,0x1
    5168:	89 45 d4             	mov    DWORD PTR [rbp-0x2c],eax
    516b:	8b 4d d4             	mov    ecx,DWORD PTR [rbp-0x2c]
    516e:	48 8b 45 e8          	mov    rax,QWORD PTR [rbp-0x18]
    5172:	48 23 45 f0          	and    rax,QWORD PTR [rbp-0x10]
    5176:	48 89 c2             	mov    rdx,rax
    5179:	48 63 c1             	movsxd rax,ecx
    517c:	48 8d 0c c5 00 00 00 	lea    rcx,[rax*8+0x0]
    5183:	00 
    5184:	48 8d 05 d5 90 20 00 	lea    rax,[rip+0x2090d5]        # 20e260 <_ZSt5wcout@@GLIBCXX_3.4+0x200>
    518b:	48 89 14 01          	mov    QWORD PTR [rcx+rax*1],rdx
    518f:	83 45 dc 01          	add    DWORD PTR [rbp-0x24],0x1
    5193:	e9 9b 05 00 00       	jmp    5733 <__cxa_finalize@plt+0x2b23>
    5198:	8b 45 d4             	mov    eax,DWORD PTR [rbp-0x2c]
    519b:	8d 50 ff             	lea    edx,[rax-0x1]
    519e:	89 55 d4             	mov    DWORD PTR [rbp-0x2c],edx
    51a1:	48 98                	cdqe   
    51a3:	48 8d 14 c5 00 00 00 	lea    rdx,[rax*8+0x0]
    51aa:	00 
    51ab:	48 8d 05 ae 90 20 00 	lea    rax,[rip+0x2090ae]        # 20e260 <_ZSt5wcout@@GLIBCXX_3.4+0x200>
    51b2:	48 8b 04 02          	mov    rax,QWORD PTR [rdx+rax*1]
    51b6:	48 89 45 e8          	mov    QWORD PTR [rbp-0x18],rax
    51ba:	8b 45 d4             	mov    eax,DWORD PTR [rbp-0x2c]
    51bd:	8d 50 ff             	lea    edx,[rax-0x1]
    51c0:	89 55 d4             	mov    DWORD PTR [rbp-0x2c],edx
    51c3:	48 98                	cdqe   
    51c5:	48 8d 14 c5 00 00 00 	lea    rdx,[rax*8+0x0]
    51cc:	00 
    51cd:	48 8d 05 8c 90 20 00 	lea    rax,[rip+0x20908c]        # 20e260 <_ZSt5wcout@@GLIBCXX_3.4+0x200>
    51d4:	48 8b 04 02          	mov    rax,QWORD PTR [rdx+rax*1]
    51d8:	48 89 45 f0          	mov    QWORD PTR [rbp-0x10],rax
    51dc:	48 8b 45 e8          	mov    rax,QWORD PTR [rbp-0x18]
    51e0:	48 3b 45 f0          	cmp    rax,QWORD PTR [rbp-0x10]
    51e4:	7d 27                	jge    520d <__cxa_finalize@plt+0x25fd>
    51e6:	8b 45 d4             	mov    eax,DWORD PTR [rbp-0x2c]
    51e9:	83 c0 01             	add    eax,0x1
    51ec:	89 45 d4             	mov    DWORD PTR [rbp-0x2c],eax
    51ef:	8b 45 d4             	mov    eax,DWORD PTR [rbp-0x2c]
    51f2:	48 98                	cdqe   
    51f4:	48 8d 14 c5 00 00 00 	lea    rdx,[rax*8+0x0]
    51fb:	00 
    51fc:	48 8d 05 5d 90 20 00 	lea    rax,[rip+0x20905d]        # 20e260 <_ZSt5wcout@@GLIBCXX_3.4+0x200>
    5203:	48 c7 04 02 01 00 00 	mov    QWORD PTR [rdx+rax*1],0x1
    520a:	00 
    520b:	eb 25                	jmp    5232 <__cxa_finalize@plt+0x2622>
    520d:	8b 45 d4             	mov    eax,DWORD PTR [rbp-0x2c]
    5210:	83 c0 01             	add    eax,0x1
    5213:	89 45 d4             	mov    DWORD PTR [rbp-0x2c],eax
    5216:	8b 45 d4             	mov    eax,DWORD PTR [rbp-0x2c]
    5219:	48 98                	cdqe   
    521b:	48 8d 14 c5 00 00 00 	lea    rdx,[rax*8+0x0]
    5222:	00 
    5223:	48 8d 05 36 90 20 00 	lea    rax,[rip+0x209036]        # 20e260 <_ZSt5wcout@@GLIBCXX_3.4+0x200>
    522a:	48 c7 04 02 00 00 00 	mov    QWORD PTR [rdx+rax*1],0x0
    5231:	00 
    5232:	83 45 dc 01          	add    DWORD PTR [rbp-0x24],0x1
    5236:	e9 f8 04 00 00       	jmp    5733 <__cxa_finalize@plt+0x2b23>
    523b:	8b 45 d4             	mov    eax,DWORD PTR [rbp-0x2c]
    523e:	8d 50 ff             	lea    edx,[rax-0x1]
    5241:	89 55 d4             	mov    DWORD PTR [rbp-0x2c],edx
    5244:	48 98                	cdqe   
    5246:	48 8d 14 c5 00 00 00 	lea    rdx,[rax*8+0x0]
    524d:	00 
    524e:	48 8d 05 0b 90 20 00 	lea    rax,[rip+0x20900b]        # 20e260 <_ZSt5wcout@@GLIBCXX_3.4+0x200>
    5255:	48 8b 04 02          	mov    rax,QWORD PTR [rdx+rax*1]
    5259:	48 89 45 e8          	mov    QWORD PTR [rbp-0x18],rax
    525d:	8b 45 d4             	mov    eax,DWORD PTR [rbp-0x2c]
    5260:	8d 50 ff             	lea    edx,[rax-0x1]
    5263:	89 55 d4             	mov    DWORD PTR [rbp-0x2c],edx
    5266:	48 98                	cdqe   
    5268:	48 8d 14 c5 00 00 00 	lea    rdx,[rax*8+0x0]
    526f:	00 
    5270:	48 8d 05 e9 8f 20 00 	lea    rax,[rip+0x208fe9]        # 20e260 <_ZSt5wcout@@GLIBCXX_3.4+0x200>
    5277:	48 8b 04 02          	mov    rax,QWORD PTR [rdx+rax*1]
    527b:	48 89 45 f0          	mov    QWORD PTR [rbp-0x10],rax
    527f:	48 8b 45 e8          	mov    rax,QWORD PTR [rbp-0x18]
    5283:	48 3b 45 f0          	cmp    rax,QWORD PTR [rbp-0x10]
    5287:	75 27                	jne    52b0 <__cxa_finalize@plt+0x26a0>
    5289:	8b 45 d4             	mov    eax,DWORD PTR [rbp-0x2c]
    528c:	83 c0 01             	add    eax,0x1
    528f:	89 45 d4             	mov    DWORD PTR [rbp-0x2c],eax
    5292:	8b 45 d4             	mov    eax,DWORD PTR [rbp-0x2c]
    5295:	48 98                	cdqe   
    5297:	48 8d 14 c5 00 00 00 	lea    rdx,[rax*8+0x0]
    529e:	00 
    529f:	48 8d 05 ba 8f 20 00 	lea    rax,[rip+0x208fba]        # 20e260 <_ZSt5wcout@@GLIBCXX_3.4+0x200>
    52a6:	48 c7 04 02 01 00 00 	mov    QWORD PTR [rdx+rax*1],0x1
    52ad:	00 
    52ae:	eb 25                	jmp    52d5 <__cxa_finalize@plt+0x26c5>
    52b0:	8b 45 d4             	mov    eax,DWORD PTR [rbp-0x2c]
    52b3:	83 c0 01             	add    eax,0x1
    52b6:	89 45 d4             	mov    DWORD PTR [rbp-0x2c],eax
    52b9:	8b 45 d4             	mov    eax,DWORD PTR [rbp-0x2c]
    52bc:	48 98                	cdqe   
    52be:	48 8d 14 c5 00 00 00 	lea    rdx,[rax*8+0x0]
    52c5:	00 
    52c6:	48 8d 05 93 8f 20 00 	lea    rax,[rip+0x208f93]        # 20e260 <_ZSt5wcout@@GLIBCXX_3.4+0x200>
    52cd:	48 c7 04 02 00 00 00 	mov    QWORD PTR [rdx+rax*1],0x0
    52d4:	00 
    52d5:	83 45 dc 01          	add    DWORD PTR [rbp-0x24],0x1
    52d9:	e9 55 04 00 00       	jmp    5733 <__cxa_finalize@plt+0x2b23>
    52de:	8b 45 d4             	mov    eax,DWORD PTR [rbp-0x2c]
    52e1:	8d 50 ff             	lea    edx,[rax-0x1]
    52e4:	89 55 d4             	mov    DWORD PTR [rbp-0x2c],edx
    52e7:	48 98                	cdqe   
    52e9:	48 8d 14 c5 00 00 00 	lea    rdx,[rax*8+0x0]
    52f0:	00 
    52f1:	48 8d 05 68 8f 20 00 	lea    rax,[rip+0x208f68]        # 20e260 <_ZSt5wcout@@GLIBCXX_3.4+0x200>
    52f8:	48 8b 04 02          	mov    rax,QWORD PTR [rdx+rax*1]
    52fc:	48 89 45 e8          	mov    QWORD PTR [rbp-0x18],rax
    5300:	48 8b 45 e8          	mov    rax,QWORD PTR [rbp-0x18]
    5304:	89 45 dc             	mov    DWORD PTR [rbp-0x24],eax
    5307:	e9 27 04 00 00       	jmp    5733 <__cxa_finalize@plt+0x2b23>
    530c:	8b 45 d4             	mov    eax,DWORD PTR [rbp-0x2c]
    530f:	8d 50 ff             	lea    edx,[rax-0x1]
    5312:	89 55 d4             	mov    DWORD PTR [rbp-0x2c],edx
    5315:	48 98                	cdqe   
    5317:	48 8d 14 c5 00 00 00 	lea    rdx,[rax*8+0x0]
    531e:	00 
    531f:	48 8d 05 3a 8f 20 00 	lea    rax,[rip+0x208f3a]        # 20e260 <_ZSt5wcout@@GLIBCXX_3.4+0x200>
    5326:	48 8b 04 02          	mov    rax,QWORD PTR [rdx+rax*1]
    532a:	48 89 45 e8          	mov    QWORD PTR [rbp-0x18],rax
    532e:	8b 45 d4             	mov    eax,DWORD PTR [rbp-0x2c]
    5331:	8d 50 ff             	lea    edx,[rax-0x1]
    5334:	89 55 d4             	mov    DWORD PTR [rbp-0x2c],edx
    5337:	48 98                	cdqe   
    5339:	48 8d 14 c5 00 00 00 	lea    rdx,[rax*8+0x0]
    5340:	00 
    5341:	48 8d 05 18 8f 20 00 	lea    rax,[rip+0x208f18]        # 20e260 <_ZSt5wcout@@GLIBCXX_3.4+0x200>
    5348:	48 8b 04 02          	mov    rax,QWORD PTR [rdx+rax*1]
    534c:	48 89 45 f0          	mov    QWORD PTR [rbp-0x10],rax
    5350:	48 83 7d f0 00       	cmp    QWORD PTR [rbp-0x10],0x0
    5355:	74 0c                	je     5363 <__cxa_finalize@plt+0x2753>
    5357:	48 8b 45 e8          	mov    rax,QWORD PTR [rbp-0x18]
    535b:	89 45 dc             	mov    DWORD PTR [rbp-0x24],eax
    535e:	e9 d0 03 00 00       	jmp    5733 <__cxa_finalize@plt+0x2b23>
    5363:	83 45 dc 01          	add    DWORD PTR [rbp-0x24],0x1
    5367:	e9 c7 03 00 00       	jmp    5733 <__cxa_finalize@plt+0x2b23>
    536c:	8b 45 d4             	mov    eax,DWORD PTR [rbp-0x2c]
    536f:	8d 50 ff             	lea    edx,[rax-0x1]
    5372:	89 55 d4             	mov    DWORD PTR [rbp-0x2c],edx
    5375:	48 98                	cdqe   
    5377:	48 8d 14 c5 00 00 00 	lea    rdx,[rax*8+0x0]
    537e:	00 
    537f:	48 8d 05 da 8e 20 00 	lea    rax,[rip+0x208eda]        # 20e260 <_ZSt5wcout@@GLIBCXX_3.4+0x200>
    5386:	48 8b 04 02          	mov    rax,QWORD PTR [rdx+rax*1]
    538a:	48 89 45 e8          	mov    QWORD PTR [rbp-0x18],rax
    538e:	8b 45 d4             	mov    eax,DWORD PTR [rbp-0x2c]
    5391:	8d 50 ff             	lea    edx,[rax-0x1]
    5394:	89 55 d4             	mov    DWORD PTR [rbp-0x2c],edx
    5397:	48 98                	cdqe   
    5399:	48 8d 14 c5 00 00 00 	lea    rdx,[rax*8+0x0]
    53a0:	00 
    53a1:	48 8d 05 b8 8e 20 00 	lea    rax,[rip+0x208eb8]        # 20e260 <_ZSt5wcout@@GLIBCXX_3.4+0x200>
    53a8:	48 8b 04 02          	mov    rax,QWORD PTR [rdx+rax*1]
    53ac:	48 89 45 f0          	mov    QWORD PTR [rbp-0x10],rax
    53b0:	48 83 7d f0 00       	cmp    QWORD PTR [rbp-0x10],0x0
    53b5:	75 0c                	jne    53c3 <__cxa_finalize@plt+0x27b3>
    53b7:	48 8b 45 e8          	mov    rax,QWORD PTR [rbp-0x18]
    53bb:	89 45 dc             	mov    DWORD PTR [rbp-0x24],eax
    53be:	e9 70 03 00 00       	jmp    5733 <__cxa_finalize@plt+0x2b23>
    53c3:	83 45 dc 01          	add    DWORD PTR [rbp-0x24],0x1
    53c7:	e9 67 03 00 00       	jmp    5733 <__cxa_finalize@plt+0x2b23>
    53cc:	8b 45 d4             	mov    eax,DWORD PTR [rbp-0x2c]
    53cf:	3d 00 04 00 00       	cmp    eax,0x400
    53d4:	75 32                	jne    5408 <__cxa_finalize@plt+0x27f8>
    53d6:	48 8d 35 93 44 00 00 	lea    rsi,[rip+0x4493]        # 9870 <__cxa_finalize@plt+0x6c60>
    53dd:	48 8d 3d 7c 8c 20 00 	lea    rdi,[rip+0x208c7c]        # 20e060 <_ZSt5wcout@@GLIBCXX_3.4>
    53e4:	e8 e7 d7 ff ff       	call   2bd0 <_ZStlsIwSt11char_traitsIwEERSt13basic_ostreamIT_T0_ES6_PKS3_@plt>
    53e9:	48 89 c2             	mov    rdx,rax
    53ec:	48 8b 05 dd 8b 20 00 	mov    rax,QWORD PTR [rip+0x208bdd]        # 20dfd0 <_ZSt4endlIwSt11char_traitsIwEERSt13basic_ostreamIT_T0_ES6_@GLIBCXX_3.4>
    53f3:	48 89 c6             	mov    rsi,rax
    53f6:	48 89 d7             	mov    rdi,rdx
    53f9:	e8 82 d7 ff ff       	call   2b80 <_ZNSt13basic_ostreamIwSt11char_traitsIwEElsEPFRS2_S3_E@plt>
    53fe:	bf 01 00 00 00       	mov    edi,0x1
    5403:	e8 38 d6 ff ff       	call   2a40 <exit@plt>
    5408:	8b 45 dc             	mov    eax,DWORD PTR [rbp-0x24]
    540b:	83 c0 01             	add    eax,0x1
    540e:	48 63 d0             	movsxd rdx,eax
    5411:	48 8b 45 c8          	mov    rax,QWORD PTR [rbp-0x38]
    5415:	48 89 d6             	mov    rsi,rdx
    5418:	48 89 c7             	mov    rdi,rax
    541b:	e8 30 d6 ff ff       	call   2a50 <_ZNSt7__cxx1112basic_stringIwSt11char_traitsIwESaIwEEixEm@plt>
    5420:	8b 00                	mov    eax,DWORD PTR [rax]
    5422:	89 c7                	mov    edi,eax
    5424:	e8 66 f2 ff ff       	call   468f <__cxa_finalize@plt+0x1a7f>
    5429:	48 98                	cdqe   
    542b:	48 89 45 e8          	mov    QWORD PTR [rbp-0x18],rax
    542f:	8b 45 d4             	mov    eax,DWORD PTR [rbp-0x2c]
    5432:	83 c0 01             	add    eax,0x1
    5435:	89 45 d4             	mov    DWORD PTR [rbp-0x2c],eax
    5438:	8b 45 d4             	mov    eax,DWORD PTR [rbp-0x2c]
    543b:	48 98                	cdqe   
    543d:	48 8d 0c c5 00 00 00 	lea    rcx,[rax*8+0x0]
    5444:	00 
    5445:	48 8d 05 14 8e 20 00 	lea    rax,[rip+0x208e14]        # 20e260 <_ZSt5wcout@@GLIBCXX_3.4+0x200>
    544c:	48 8b 55 e8          	mov    rdx,QWORD PTR [rbp-0x18]
    5450:	48 89 14 01          	mov    QWORD PTR [rcx+rax*1],rdx
    5454:	83 45 dc 02          	add    DWORD PTR [rbp-0x24],0x2
    5458:	e9 d6 02 00 00       	jmp    5733 <__cxa_finalize@plt+0x2b23>
    545d:	8b 45 d4             	mov    eax,DWORD PTR [rbp-0x2c]
    5460:	83 f8 ff             	cmp    eax,0xffffffff
    5463:	75 32                	jne    5497 <__cxa_finalize@plt+0x2887>
    5465:	48 8d 35 54 44 00 00 	lea    rsi,[rip+0x4454]        # 98c0 <__cxa_finalize@plt+0x6cb0>
    546c:	48 8d 3d ed 8b 20 00 	lea    rdi,[rip+0x208bed]        # 20e060 <_ZSt5wcout@@GLIBCXX_3.4>
    5473:	e8 58 d7 ff ff       	call   2bd0 <_ZStlsIwSt11char_traitsIwEERSt13basic_ostreamIT_T0_ES6_PKS3_@plt>
    5478:	48 89 c2             	mov    rdx,rax
    547b:	48 8b 05 4e 8b 20 00 	mov    rax,QWORD PTR [rip+0x208b4e]        # 20dfd0 <_ZSt4endlIwSt11char_traitsIwEERSt13basic_ostreamIT_T0_ES6_@GLIBCXX_3.4>
    5482:	48 89 c6             	mov    rsi,rax
    5485:	48 89 d7             	mov    rdi,rdx
    5488:	e8 f3 d6 ff ff       	call   2b80 <_ZNSt13basic_ostreamIwSt11char_traitsIwEElsEPFRS2_S3_E@plt>
    548d:	bf 01 00 00 00       	mov    edi,0x1
    5492:	e8 a9 d5 ff ff       	call   2a40 <exit@plt>
    5497:	8b 45 d4             	mov    eax,DWORD PTR [rbp-0x2c]
    549a:	83 e8 01             	sub    eax,0x1
    549d:	89 45 d4             	mov    DWORD PTR [rbp-0x2c],eax
    54a0:	83 45 dc 01          	add    DWORD PTR [rbp-0x24],0x1
    54a4:	e9 8a 02 00 00       	jmp    5733 <__cxa_finalize@plt+0x2b23>
    54a9:	8b 45 d4             	mov    eax,DWORD PTR [rbp-0x2c]
    54ac:	8d 50 ff             	lea    edx,[rax-0x1]
    54af:	89 55 d4             	mov    DWORD PTR [rbp-0x2c],edx
    54b2:	48 98                	cdqe   
    54b4:	48 8d 14 c5 00 00 00 	lea    rdx,[rax*8+0x0]
    54bb:	00 
    54bc:	48 8d 05 9d 8d 20 00 	lea    rax,[rip+0x208d9d]        # 20e260 <_ZSt5wcout@@GLIBCXX_3.4+0x200>
    54c3:	48 8b 04 02          	mov    rax,QWORD PTR [rdx+rax*1]
    54c7:	48 89 45 e8          	mov    QWORD PTR [rbp-0x18],rax
    54cb:	8b 45 d4             	mov    eax,DWORD PTR [rbp-0x2c]
    54ce:	8d 50 ff             	lea    edx,[rax-0x1]
    54d1:	89 55 d4             	mov    DWORD PTR [rbp-0x2c],edx
    54d4:	48 98                	cdqe   
    54d6:	48 8d 14 c5 00 00 00 	lea    rdx,[rax*8+0x0]
    54dd:	00 
    54de:	48 8d 05 7b 8d 20 00 	lea    rax,[rip+0x208d7b]        # 20e260 <_ZSt5wcout@@GLIBCXX_3.4+0x200>
    54e5:	48 8b 04 02          	mov    rax,QWORD PTR [rdx+rax*1]
    54e9:	48 89 45 f0          	mov    QWORD PTR [rbp-0x10],rax
    54ed:	48 8b 45 f0          	mov    rax,QWORD PTR [rbp-0x10]
    54f1:	89 c2                	mov    edx,eax
    54f3:	48 8b 45 e8          	mov    rax,QWORD PTR [rbp-0x18]
    54f7:	89 d6                	mov    esi,edx
    54f9:	89 c7                	mov    edi,eax
    54fb:	e8 44 f2 ff ff       	call   4744 <__cxa_finalize@plt+0x1b34>
    5500:	88 45 d3             	mov    BYTE PTR [rbp-0x2d],al
    5503:	8b 45 d4             	mov    eax,DWORD PTR [rbp-0x2c]
    5506:	83 c0 01             	add    eax,0x1
    5509:	89 45 d4             	mov    DWORD PTR [rbp-0x2c],eax
    550c:	8b 45 d4             	mov    eax,DWORD PTR [rbp-0x2c]
    550f:	48 0f be 55 d3       	movsx  rdx,BYTE PTR [rbp-0x2d]
    5514:	48 98                	cdqe   
    5516:	48 8d 0c c5 00 00 00 	lea    rcx,[rax*8+0x0]
    551d:	00 
    551e:	48 8d 05 3b 8d 20 00 	lea    rax,[rip+0x208d3b]        # 20e260 <_ZSt5wcout@@GLIBCXX_3.4+0x200>
    5525:	48 89 14 01          	mov    QWORD PTR [rcx+rax*1],rdx
    5529:	83 45 dc 01          	add    DWORD PTR [rbp-0x24],0x1
    552d:	e9 01 02 00 00       	jmp    5733 <__cxa_finalize@plt+0x2b23>
    5532:	8b 45 d4             	mov    eax,DWORD PTR [rbp-0x2c]
    5535:	8d 50 ff             	lea    edx,[rax-0x1]
    5538:	89 55 d4             	mov    DWORD PTR [rbp-0x2c],edx
    553b:	48 98                	cdqe   
    553d:	48 8d 14 c5 00 00 00 	lea    rdx,[rax*8+0x0]
    5544:	00 
    5545:	48 8d 05 14 8d 20 00 	lea    rax,[rip+0x208d14]        # 20e260 <_ZSt5wcout@@GLIBCXX_3.4+0x200>
    554c:	48 8b 04 02          	mov    rax,QWORD PTR [rdx+rax*1]
    5550:	48 89 45 e8          	mov    QWORD PTR [rbp-0x18],rax
    5554:	8b 45 d4             	mov    eax,DWORD PTR [rbp-0x2c]
    5557:	8d 50 ff             	lea    edx,[rax-0x1]
    555a:	89 55 d4             	mov    DWORD PTR [rbp-0x2c],edx
    555d:	48 98                	cdqe   
    555f:	48 8d 14 c5 00 00 00 	lea    rdx,[rax*8+0x0]
    5566:	00 
    5567:	48 8d 05 f2 8c 20 00 	lea    rax,[rip+0x208cf2]        # 20e260 <_ZSt5wcout@@GLIBCXX_3.4+0x200>
    556e:	48 8b 04 02          	mov    rax,QWORD PTR [rdx+rax*1]
    5572:	48 89 45 f0          	mov    QWORD PTR [rbp-0x10],rax
    5576:	8b 45 d4             	mov    eax,DWORD PTR [rbp-0x2c]
    5579:	8d 50 ff             	lea    edx,[rax-0x1]
    557c:	89 55 d4             	mov    DWORD PTR [rbp-0x2c],edx
    557f:	48 98                	cdqe   
    5581:	48 8d 14 c5 00 00 00 	lea    rdx,[rax*8+0x0]
    5588:	00 
    5589:	48 8d 05 d0 8c 20 00 	lea    rax,[rip+0x208cd0]        # 20e260 <_ZSt5wcout@@GLIBCXX_3.4+0x200>
    5590:	48 8b 04 02          	mov    rax,QWORD PTR [rdx+rax*1]
    5594:	88 45 d3             	mov    BYTE PTR [rbp-0x2d],al
    5597:	0f be 45 d3          	movsx  eax,BYTE PTR [rbp-0x2d]
    559b:	48 8b 55 f0          	mov    rdx,QWORD PTR [rbp-0x10]
    559f:	89 d6                	mov    esi,edx
    55a1:	48 8b 55 e8          	mov    rdx,QWORD PTR [rbp-0x18]
    55a5:	89 d1                	mov    ecx,edx
    55a7:	89 c2                	mov    edx,eax
    55a9:	89 cf                	mov    edi,ecx
    55ab:	e8 a0 f2 ff ff       	call   4850 <__cxa_finalize@plt+0x1c40>
    55b0:	83 45 dc 01          	add    DWORD PTR [rbp-0x24],0x1
    55b4:	e9 7a 01 00 00       	jmp    5733 <__cxa_finalize@plt+0x2b23>
    55b9:	8b 45 d4             	mov    eax,DWORD PTR [rbp-0x2c]
    55bc:	8d 50 ff             	lea    edx,[rax-0x1]
    55bf:	89 55 d4             	mov    DWORD PTR [rbp-0x2c],edx
    55c2:	48 98                	cdqe   
    55c4:	48 8d 14 c5 00 00 00 	lea    rdx,[rax*8+0x0]
    55cb:	00 
    55cc:	48 8d 05 8d 8c 20 00 	lea    rax,[rip+0x208c8d]        # 20e260 <_ZSt5wcout@@GLIBCXX_3.4+0x200>
    55d3:	48 8b 04 02          	mov    rax,QWORD PTR [rdx+rax*1]
    55d7:	48 89 45 e8          	mov    QWORD PTR [rbp-0x18],rax
    55db:	48 8b 45 e8          	mov    rax,QWORD PTR [rbp-0x18]
    55df:	48 89 c7             	mov    rdi,rax
    55e2:	e8 b0 f5 ff ff       	call   4b97 <__cxa_finalize@plt+0x1f87>
    55e7:	83 45 dc 01          	add    DWORD PTR [rbp-0x24],0x1
    55eb:	e9 43 01 00 00       	jmp    5733 <__cxa_finalize@plt+0x2b23>
    55f0:	8b 45 d4             	mov    eax,DWORD PTR [rbp-0x2c]
    55f3:	8d 50 ff             	lea    edx,[rax-0x1]
    55f6:	89 55 d4             	mov    DWORD PTR [rbp-0x2c],edx
    55f9:	48 98                	cdqe   
    55fb:	48 8d 14 c5 00 00 00 	lea    rdx,[rax*8+0x0]
    5602:	00 
    5603:	48 8d 05 56 8c 20 00 	lea    rax,[rip+0x208c56]        # 20e260 <_ZSt5wcout@@GLIBCXX_3.4+0x200>
    560a:	48 8b 04 02          	mov    rax,QWORD PTR [rdx+rax*1]
    560e:	48 89 45 e8          	mov    QWORD PTR [rbp-0x18],rax
    5612:	48 8b 45 e8          	mov    rax,QWORD PTR [rbp-0x18]
    5616:	89 c7                	mov    edi,eax
    5618:	e8 b2 f6 ff ff       	call   4ccf <__cxa_finalize@plt+0x20bf>
    561d:	83 45 dc 01          	add    DWORD PTR [rbp-0x24],0x1
    5621:	e9 0d 01 00 00       	jmp    5733 <__cxa_finalize@plt+0x2b23>
    5626:	8b 45 d4             	mov    eax,DWORD PTR [rbp-0x2c]
    5629:	8d 50 ff             	lea    edx,[rax-0x1]
    562c:	89 55 d4             	mov    DWORD PTR [rbp-0x2c],edx
    562f:	48 98                	cdqe   
    5631:	48 8d 14 c5 00 00 00 	lea    rdx,[rax*8+0x0]
    5638:	00 
    5639:	48 8d 05 20 8c 20 00 	lea    rax,[rip+0x208c20]        # 20e260 <_ZSt5wcout@@GLIBCXX_3.4+0x200>
    5640:	48 8b 04 02          	mov    rax,QWORD PTR [rdx+rax*1]
    5644:	48 89 45 e8          	mov    QWORD PTR [rbp-0x18],rax
    5648:	48 8b 45 e8          	mov    rax,QWORD PTR [rbp-0x18]
    564c:	89 c7                	mov    edi,eax
    564e:	e8 12 f3 ff ff       	call   4965 <__cxa_finalize@plt+0x1d55>
    5653:	83 45 dc 01          	add    DWORD PTR [rbp-0x24],0x1
    5657:	e9 d7 00 00 00       	jmp    5733 <__cxa_finalize@plt+0x2b23>
    565c:	8b 45 d4             	mov    eax,DWORD PTR [rbp-0x2c]
    565f:	8d 50 ff             	lea    edx,[rax-0x1]
    5662:	89 55 d4             	mov    DWORD PTR [rbp-0x2c],edx
    5665:	48 98                	cdqe   
    5667:	48 8d 14 c5 00 00 00 	lea    rdx,[rax*8+0x0]
    566e:	00 
    566f:	48 8d 05 ea 8b 20 00 	lea    rax,[rip+0x208bea]        # 20e260 <_ZSt5wcout@@GLIBCXX_3.4+0x200>
    5676:	48 8b 04 02          	mov    rax,QWORD PTR [rdx+rax*1]
    567a:	48 89 45 e8          	mov    QWORD PTR [rbp-0x18],rax
    567e:	48 8b 45 e8          	mov    rax,QWORD PTR [rbp-0x18]
    5682:	89 c7                	mov    edi,eax
    5684:	e8 9c f3 ff ff       	call   4a25 <__cxa_finalize@plt+0x1e15>
    5689:	83 45 dc 01          	add    DWORD PTR [rbp-0x24],0x1
    568d:	e9 a1 00 00 00       	jmp    5733 <__cxa_finalize@plt+0x2b23>
    5692:	48 8d 45 d4          	lea    rax,[rbp-0x2c]
    5696:	48 89 c7             	mov    rdi,rax
    5699:	e8 53 f4 ff ff       	call   4af1 <__cxa_finalize@plt+0x1ee1>
    569e:	83 45 dc 01          	add    DWORD PTR [rbp-0x24],0x1
    56a2:	e9 8c 00 00 00       	jmp    5733 <__cxa_finalize@plt+0x2b23>
    56a7:	8b 45 d4             	mov    eax,DWORD PTR [rbp-0x2c]
    56aa:	8d 50 ff             	lea    edx,[rax-0x1]
    56ad:	89 55 d4             	mov    DWORD PTR [rbp-0x2c],edx
    56b0:	48 98                	cdqe   
    56b2:	48 8d 14 c5 00 00 00 	lea    rdx,[rax*8+0x0]
    56b9:	00 
    56ba:	48 8d 05 9f 8b 20 00 	lea    rax,[rip+0x208b9f]        # 20e260 <_ZSt5wcout@@GLIBCXX_3.4+0x200>
    56c1:	48 8b 04 02          	mov    rax,QWORD PTR [rdx+rax*1]
    56c5:	48 89 45 e8          	mov    QWORD PTR [rbp-0x18],rax
    56c9:	48 8b 45 e8          	mov    rax,QWORD PTR [rbp-0x18]
    56cd:	48 89 c7             	mov    rdi,rax
    56d0:	e8 a0 f4 ff ff       	call   4b75 <__cxa_finalize@plt+0x1f65>
    56d5:	83 45 dc 01          	add    DWORD PTR [rbp-0x24],0x1
    56d9:	eb 58                	jmp    5733 <__cxa_finalize@plt+0x2b23>
    56db:	b8 00 00 00 00       	mov    eax,0x0
    56e0:	eb 5b                	jmp    573d <__cxa_finalize@plt+0x2b2d>
    56e2:	48 8d 35 27 42 00 00 	lea    rsi,[rip+0x4227]        # 9910 <__cxa_finalize@plt+0x6d00>
    56e9:	48 8d 3d 70 89 20 00 	lea    rdi,[rip+0x208970]        # 20e060 <_ZSt5wcout@@GLIBCXX_3.4>
    56f0:	e8 ab d0 ff ff       	call   27a0 <_ZStlsIwSt11char_traitsIwEERSt13basic_ostreamIT_T0_ES6_PKc@plt>
    56f5:	48 8d 35 1e 02 00 00 	lea    rsi,[rip+0x21e]        # 591a <__cxa_finalize@plt+0x2d0a>
    56fc:	48 89 c7             	mov    rdi,rax
    56ff:	e8 0c d3 ff ff       	call   2a10 <_ZNSt13basic_ostreamIwSt11char_traitsIwEElsEPFRSt8ios_baseS4_E@plt>
    5704:	48 89 c2             	mov    rdx,rax
    5707:	8b 45 d8             	mov    eax,DWORD PTR [rbp-0x28]
    570a:	89 c6                	mov    esi,eax
    570c:	48 89 d7             	mov    rdi,rdx
    570f:	e8 ec d4 ff ff       	call   2c00 <_ZNSt13basic_ostreamIwSt11char_traitsIwEElsEi@plt>
    5714:	48 89 c2             	mov    rdx,rax
    5717:	48 8b 05 b2 88 20 00 	mov    rax,QWORD PTR [rip+0x2088b2]        # 20dfd0 <_ZSt4endlIwSt11char_traitsIwEERSt13basic_ostreamIT_T0_ES6_@GLIBCXX_3.4>
    571e:	48 89 c6             	mov    rsi,rax
    5721:	48 89 d7             	mov    rdi,rdx
    5724:	e8 57 d4 ff ff       	call   2b80 <_ZNSt13basic_ostreamIwSt11char_traitsIwEElsEPFRS2_S3_E@plt>
    5729:	bf 01 00 00 00       	mov    edi,0x1
    572e:	e8 0d d3 ff ff       	call   2a40 <exit@plt>
    5733:	e9 d3 f6 ff ff       	jmp    4e0b <__cxa_finalize@plt+0x21fb>
    5738:	b8 00 00 00 00       	mov    eax,0x0
    573d:	48 8b 75 f8          	mov    rsi,QWORD PTR [rbp-0x8]
    5741:	64 48 33 34 25 28 00 	xor    rsi,QWORD PTR fs:0x28
    5748:	00 00 
    574a:	74 0f                	je     575b <__cxa_finalize@plt+0x2b4b>
    574c:	eb 08                	jmp    5756 <__cxa_finalize@plt+0x2b46>
    574e:	48 89 c7             	mov    rdi,rax
    5751:	e8 3a d4 ff ff       	call   2b90 <_Unwind_Resume@plt>
    5756:	e8 a5 d2 ff ff       	call   2a00 <__stack_chk_fail@plt>
    575b:	c9                   	leave  
    575c:	c3                   	ret    
    575d:	55                   	push   rbp
    575e:	48 89 e5             	mov    rbp,rsp
    5761:	48 83 ec 10          	sub    rsp,0x10
    5765:	89 7d fc             	mov    DWORD PTR [rbp-0x4],edi
    5768:	89 75 f8             	mov    DWORD PTR [rbp-0x8],esi
    576b:	83 7d fc 01          	cmp    DWORD PTR [rbp-0x4],0x1
    576f:	75 7e                	jne    57ef <__cxa_finalize@plt+0x2bdf>
    5771:	81 7d f8 ff ff 00 00 	cmp    DWORD PTR [rbp-0x8],0xffff
    5778:	75 75                	jne    57ef <__cxa_finalize@plt+0x2bdf>
    577a:	48 8d 3d df aa 20 00 	lea    rdi,[rip+0x20aadf]        # 210260 <_ZSt5wcout@@GLIBCXX_3.4+0x2200>
    5781:	e8 6a d3 ff ff       	call   2af0 <_ZNSt8ios_base4InitC1Ev@plt>
    5786:	48 8d 15 7b 88 20 00 	lea    rdx,[rip+0x20887b]        # 20e008 <_ZTVSt19__codecvt_utf8_baseIwE@@GLIBCXX_3.4.21+0x588>
    578d:	48 8d 35 cc aa 20 00 	lea    rsi,[rip+0x20aacc]        # 210260 <_ZSt5wcout@@GLIBCXX_3.4+0x2200>
    5794:	48 8b 05 5d 88 20 00 	mov    rax,QWORD PTR [rip+0x20885d]        # 20dff8 <_ZNSt8ios_base4InitD1Ev@GLIBCXX_3.4>
    579b:	48 89 c7             	mov    rdi,rax
    579e:	e8 bd d1 ff ff       	call   2960 <__cxa_atexit@plt>
    57a3:	48 8d 3d d6 89 20 00 	lea    rdi,[rip+0x2089d6]        # 20e180 <_ZSt5wcout@@GLIBCXX_3.4+0x120>
    57aa:	e8 65 02 00 00       	call   5a14 <__cxa_finalize@plt+0x2e04>
    57af:	48 8d 15 52 88 20 00 	lea    rdx,[rip+0x208852]        # 20e008 <_ZTVSt19__codecvt_utf8_baseIwE@@GLIBCXX_3.4.21+0x588>
    57b6:	48 8d 35 c3 89 20 00 	lea    rsi,[rip+0x2089c3]        # 20e180 <_ZSt5wcout@@GLIBCXX_3.4+0x120>
    57bd:	48 8d 3d ee 3c 00 00 	lea    rdi,[rip+0x3cee]        # 94b2 <__cxa_finalize@plt+0x68a2>
    57c4:	e8 97 d1 ff ff       	call   2960 <__cxa_atexit@plt>
    57c9:	48 8d 3d f0 89 20 00 	lea    rdi,[rip+0x2089f0]        # 20e1c0 <_ZSt5wcout@@GLIBCXX_3.4+0x160>
    57d0:	e8 cb 02 00 00       	call   5aa0 <__cxa_finalize@plt+0x2e90>
    57d5:	48 8d 15 2c 88 20 00 	lea    rdx,[rip+0x20882c]        # 20e008 <_ZTVSt19__codecvt_utf8_baseIwE@@GLIBCXX_3.4.21+0x588>
    57dc:	48 8d 35 dd 89 20 00 	lea    rsi,[rip+0x2089dd]        # 20e1c0 <_ZSt5wcout@@GLIBCXX_3.4+0x160>
    57e3:	48 8d 3d e4 3c 00 00 	lea    rdi,[rip+0x3ce4]        # 94ce <__cxa_finalize@plt+0x68be>
    57ea:	e8 71 d1 ff ff       	call   2960 <__cxa_atexit@plt>
    57ef:	90                   	nop
    57f0:	c9                   	leave  
    57f1:	c3                   	ret    
    57f2:	55                   	push   rbp
    57f3:	48 89 e5             	mov    rbp,rsp
    57f6:	be ff ff 00 00       	mov    esi,0xffff
    57fb:	bf 01 00 00 00       	mov    edi,0x1
    5800:	e8 58 ff ff ff       	call   575d <__cxa_finalize@plt+0x2b4d>
    5805:	5d                   	pop    rbp
    5806:	c3                   	ret    
    5807:	55                   	push   rbp
    5808:	48 89 e5             	mov    rbp,rsp
    580b:	48 89 7d f8          	mov    QWORD PTR [rbp-0x8],rdi
    580f:	48 89 75 f0          	mov    QWORD PTR [rbp-0x10],rsi
    5813:	48 8b 45 f0          	mov    rax,QWORD PTR [rbp-0x10]
    5817:	5d                   	pop    rbp
    5818:	c3                   	ret    
    5819:	55                   	push   rbp
    581a:	48 89 e5             	mov    rbp,rsp
    581d:	48 89 7d f8          	mov    QWORD PTR [rbp-0x8],rdi
    5821:	48 89 75 f0          	mov    QWORD PTR [rbp-0x10],rsi
    5825:	90                   	nop
    5826:	5d                   	pop    rbp
    5827:	c3                   	ret    
    5828:	55                   	push   rbp
    5829:	48 89 e5             	mov    rbp,rsp
    582c:	89 7d fc             	mov    DWORD PTR [rbp-0x4],edi
    582f:	89 75 f8             	mov    DWORD PTR [rbp-0x8],esi
    5832:	8b 45 fc             	mov    eax,DWORD PTR [rbp-0x4]
    5835:	23 45 f8             	and    eax,DWORD PTR [rbp-0x8]
    5838:	5d                   	pop    rbp
    5839:	c3                   	ret    
    583a:	55                   	push   rbp
    583b:	48 89 e5             	mov    rbp,rsp
    583e:	89 7d fc             	mov    DWORD PTR [rbp-0x4],edi
    5841:	89 75 f8             	mov    DWORD PTR [rbp-0x8],esi
    5844:	8b 45 fc             	mov    eax,DWORD PTR [rbp-0x4]
    5847:	0b 45 f8             	or     eax,DWORD PTR [rbp-0x8]
    584a:	5d                   	pop    rbp
    584b:	c3                   	ret    
    584c:	55                   	push   rbp
    584d:	48 89 e5             	mov    rbp,rsp
    5850:	89 7d fc             	mov    DWORD PTR [rbp-0x4],edi
    5853:	8b 45 fc             	mov    eax,DWORD PTR [rbp-0x4]
    5856:	f7 d0                	not    eax
    5858:	5d                   	pop    rbp
    5859:	c3                   	ret    
    585a:	55                   	push   rbp
    585b:	48 89 e5             	mov    rbp,rsp
    585e:	48 83 ec 10          	sub    rsp,0x10
    5862:	48 89 7d f8          	mov    QWORD PTR [rbp-0x8],rdi
    5866:	89 75 f4             	mov    DWORD PTR [rbp-0xc],esi
    5869:	48 8b 45 f8          	mov    rax,QWORD PTR [rbp-0x8]
    586d:	8b 00                	mov    eax,DWORD PTR [rax]
    586f:	8b 55 f4             	mov    edx,DWORD PTR [rbp-0xc]
    5872:	89 d6                	mov    esi,edx
    5874:	89 c7                	mov    edi,eax
    5876:	e8 bf ff ff ff       	call   583a <__cxa_finalize@plt+0x2c2a>
    587b:	89 c2                	mov    edx,eax
    587d:	48 8b 45 f8          	mov    rax,QWORD PTR [rbp-0x8]
    5881:	89 10                	mov    DWORD PTR [rax],edx
    5883:	48 8b 45 f8          	mov    rax,QWORD PTR [rbp-0x8]
    5887:	c9                   	leave  
    5888:	c3                   	ret    
    5889:	55                   	push   rbp
    588a:	48 89 e5             	mov    rbp,rsp
    588d:	48 83 ec 10          	sub    rsp,0x10
    5891:	48 89 7d f8          	mov    QWORD PTR [rbp-0x8],rdi
    5895:	89 75 f4             	mov    DWORD PTR [rbp-0xc],esi
    5898:	48 8b 45 f8          	mov    rax,QWORD PTR [rbp-0x8]
    589c:	8b 00                	mov    eax,DWORD PTR [rax]
    589e:	8b 55 f4             	mov    edx,DWORD PTR [rbp-0xc]
    58a1:	89 d6                	mov    esi,edx
    58a3:	89 c7                	mov    edi,eax
    58a5:	e8 7e ff ff ff       	call   5828 <__cxa_finalize@plt+0x2c18>
    58aa:	89 c2                	mov    edx,eax
    58ac:	48 8b 45 f8          	mov    rax,QWORD PTR [rbp-0x8]
    58b0:	89 10                	mov    DWORD PTR [rax],edx
    58b2:	48 8b 45 f8          	mov    rax,QWORD PTR [rbp-0x8]
    58b6:	c9                   	leave  
    58b7:	c3                   	ret    
    58b8:	55                   	push   rbp
    58b9:	48 89 e5             	mov    rbp,rsp
    58bc:	48 83 ec 20          	sub    rsp,0x20
    58c0:	48 89 7d e8          	mov    QWORD PTR [rbp-0x18],rdi
    58c4:	89 75 e4             	mov    DWORD PTR [rbp-0x1c],esi
    58c7:	89 55 e0             	mov    DWORD PTR [rbp-0x20],edx
    58ca:	48 8b 45 e8          	mov    rax,QWORD PTR [rbp-0x18]
    58ce:	8b 40 18             	mov    eax,DWORD PTR [rax+0x18]
    58d1:	89 45 fc             	mov    DWORD PTR [rbp-0x4],eax
    58d4:	8b 45 e0             	mov    eax,DWORD PTR [rbp-0x20]
    58d7:	89 c7                	mov    edi,eax
    58d9:	e8 6e ff ff ff       	call   584c <__cxa_finalize@plt+0x2c3c>
    58de:	89 c2                	mov    edx,eax
    58e0:	48 8b 45 e8          	mov    rax,QWORD PTR [rbp-0x18]
    58e4:	48 83 c0 18          	add    rax,0x18
    58e8:	89 d6                	mov    esi,edx
    58ea:	48 89 c7             	mov    rdi,rax
    58ed:	e8 97 ff ff ff       	call   5889 <__cxa_finalize@plt+0x2c79>
    58f2:	8b 55 e0             	mov    edx,DWORD PTR [rbp-0x20]
    58f5:	8b 45 e4             	mov    eax,DWORD PTR [rbp-0x1c]
    58f8:	89 d6                	mov    esi,edx
    58fa:	89 c7                	mov    edi,eax
    58fc:	e8 27 ff ff ff       	call   5828 <__cxa_finalize@plt+0x2c18>
    5901:	89 c2                	mov    edx,eax
    5903:	48 8b 45 e8          	mov    rax,QWORD PTR [rbp-0x18]
    5907:	48 83 c0 18          	add    rax,0x18
    590b:	89 d6                	mov    esi,edx
    590d:	48 89 c7             	mov    rdi,rax
    5910:	e8 45 ff ff ff       	call   585a <__cxa_finalize@plt+0x2c4a>
    5915:	8b 45 fc             	mov    eax,DWORD PTR [rbp-0x4]
    5918:	c9                   	leave  
    5919:	c3                   	ret    
    591a:	55                   	push   rbp
    591b:	48 89 e5             	mov    rbp,rsp
    591e:	48 83 ec 10          	sub    rsp,0x10
    5922:	48 89 7d f8          	mov    QWORD PTR [rbp-0x8],rdi
    5926:	48 8b 45 f8          	mov    rax,QWORD PTR [rbp-0x8]
    592a:	ba 4a 00 00 00       	mov    edx,0x4a
    592f:	be 08 00 00 00       	mov    esi,0x8
    5934:	48 89 c7             	mov    rdi,rax
    5937:	e8 7c ff ff ff       	call   58b8 <__cxa_finalize@plt+0x2ca8>
    593c:	48 8b 45 f8          	mov    rax,QWORD PTR [rbp-0x8]
    5940:	c9                   	leave  
    5941:	c3                   	ret    
    5942:	55                   	push   rbp
    5943:	48 89 e5             	mov    rbp,rsp
    5946:	48 83 ec 10          	sub    rsp,0x10
    594a:	48 89 7d f8          	mov    QWORD PTR [rbp-0x8],rdi
    594e:	48 8b 45 f8          	mov    rax,QWORD PTR [rbp-0x8]
    5952:	c7 00 00 00 00 00    	mov    DWORD PTR [rax],0x0
    5958:	48 8b 45 f8          	mov    rax,QWORD PTR [rbp-0x8]
    595c:	48 89 c7             	mov    rdi,rax
    595f:	e8 04 00 00 00       	call   5968 <__cxa_finalize@plt+0x2d58>
    5964:	90                   	nop
    5965:	c9                   	leave  
    5966:	c3                   	ret    
    5967:	90                   	nop
    5968:	55                   	push   rbp
    5969:	48 89 e5             	mov    rbp,rsp
    596c:	48 89 7d f8          	mov    QWORD PTR [rbp-0x8],rdi
    5970:	48 8b 45 f8          	mov    rax,QWORD PTR [rbp-0x8]
    5974:	48 c7 40 08 00 00 00 	mov    QWORD PTR [rax+0x8],0x0
    597b:	00 
    597c:	48 8b 55 f8          	mov    rdx,QWORD PTR [rbp-0x8]
    5980:	48 8b 45 f8          	mov    rax,QWORD PTR [rbp-0x8]
    5984:	48 89 50 10          	mov    QWORD PTR [rax+0x10],rdx
    5988:	48 8b 55 f8          	mov    rdx,QWORD PTR [rbp-0x8]
    598c:	48 8b 45 f8          	mov    rax,QWORD PTR [rbp-0x8]
    5990:	48 89 50 18          	mov    QWORD PTR [rax+0x18],rdx
    5994:	48 8b 45 f8          	mov    rax,QWORD PTR [rbp-0x8]
    5998:	48 c7 40 20 00 00 00 	mov    QWORD PTR [rax+0x20],0x0
    599f:	00 
    59a0:	90                   	nop
    59a1:	5d                   	pop    rbp
    59a2:	c3                   	ret    
    59a3:	90                   	nop
    59a4:	55                   	push   rbp
    59a5:	48 89 e5             	mov    rbp,rsp
    59a8:	48 83 ec 10          	sub    rsp,0x10
    59ac:	48 89 7d f8          	mov    QWORD PTR [rbp-0x8],rdi
    59b0:	48 8b 45 f8          	mov    rax,QWORD PTR [rbp-0x8]
    59b4:	48 89 c7             	mov    rdi,rax
    59b7:	e8 00 01 00 00       	call   5abc <__cxa_finalize@plt+0x2eac>
    59bc:	48 8b 45 f8          	mov    rax,QWORD PTR [rbp-0x8]
    59c0:	48 89 c7             	mov    rdi,rax
    59c3:	e8 2c 01 00 00       	call   5af4 <__cxa_finalize@plt+0x2ee4>
    59c8:	48 8b 45 f8          	mov    rax,QWORD PTR [rbp-0x8]
    59cc:	48 83 c0 08          	add    rax,0x8
    59d0:	48 89 c7             	mov    rdi,rax
    59d3:	e8 6a ff ff ff       	call   5942 <__cxa_finalize@plt+0x2d32>
    59d8:	90                   	nop
    59d9:	c9                   	leave  
    59da:	c3                   	ret    
    59db:	90                   	nop
    59dc:	55                   	push   rbp
    59dd:	48 89 e5             	mov    rbp,rsp
    59e0:	48 83 ec 10          	sub    rsp,0x10
    59e4:	48 89 7d f8          	mov    QWORD PTR [rbp-0x8],rdi
    59e8:	48 8b 45 f8          	mov    rax,QWORD PTR [rbp-0x8]
    59ec:	48 89 c7             	mov    rdi,rax
    59ef:	e8 e4 00 00 00       	call   5ad8 <__cxa_finalize@plt+0x2ec8>
    59f4:	90                   	nop
    59f5:	c9                   	leave  
    59f6:	c3                   	ret    
    59f7:	90                   	nop
    59f8:	55                   	push   rbp
    59f9:	48 89 e5             	mov    rbp,rsp
    59fc:	48 83 ec 10          	sub    rsp,0x10
    5a00:	48 89 7d f8          	mov    QWORD PTR [rbp-0x8],rdi
    5a04:	48 8b 45 f8          	mov    rax,QWORD PTR [rbp-0x8]
    5a08:	48 89 c7             	mov    rdi,rax
    5a0b:	e8 94 ff ff ff       	call   59a4 <__cxa_finalize@plt+0x2d94>
    5a10:	90                   	nop
    5a11:	c9                   	leave  
    5a12:	c3                   	ret    
    5a13:	90                   	nop
    5a14:	55                   	push   rbp
    5a15:	48 89 e5             	mov    rbp,rsp
    5a18:	48 83 ec 10          	sub    rsp,0x10
    5a1c:	48 89 7d f8          	mov    QWORD PTR [rbp-0x8],rdi
    5a20:	48 8b 45 f8          	mov    rax,QWORD PTR [rbp-0x8]
    5a24:	48 89 c7             	mov    rdi,rax
    5a27:	e8 cc ff ff ff       	call   59f8 <__cxa_finalize@plt+0x2de8>
    5a2c:	90                   	nop
    5a2d:	c9                   	leave  
    5a2e:	c3                   	ret    
    5a2f:	90                   	nop
    5a30:	55                   	push   rbp
    5a31:	48 89 e5             	mov    rbp,rsp
    5a34:	48 83 ec 10          	sub    rsp,0x10
    5a38:	48 89 7d f8          	mov    QWORD PTR [rbp-0x8],rdi
    5a3c:	48 8b 45 f8          	mov    rax,QWORD PTR [rbp-0x8]
    5a40:	48 89 c7             	mov    rdi,rax
    5a43:	e8 f2 00 00 00       	call   5b3a <__cxa_finalize@plt+0x2f2a>
    5a48:	48 8b 45 f8          	mov    rax,QWORD PTR [rbp-0x8]
    5a4c:	48 89 c7             	mov    rdi,rax
    5a4f:	e8 a0 00 00 00       	call   5af4 <__cxa_finalize@plt+0x2ee4>
    5a54:	48 8b 45 f8          	mov    rax,QWORD PTR [rbp-0x8]
    5a58:	48 83 c0 08          	add    rax,0x8
    5a5c:	48 89 c7             	mov    rdi,rax
    5a5f:	e8 de fe ff ff       	call   5942 <__cxa_finalize@plt+0x2d32>
    5a64:	90                   	nop
    5a65:	c9                   	leave  
    5a66:	c3                   	ret    
    5a67:	90                   	nop
    5a68:	55                   	push   rbp
    5a69:	48 89 e5             	mov    rbp,rsp
    5a6c:	48 83 ec 10          	sub    rsp,0x10
    5a70:	48 89 7d f8          	mov    QWORD PTR [rbp-0x8],rdi
    5a74:	48 8b 45 f8          	mov    rax,QWORD PTR [rbp-0x8]
    5a78:	48 89 c7             	mov    rdi,rax
    5a7b:	e8 d6 00 00 00       	call   5b56 <__cxa_finalize@plt+0x2f46>
    5a80:	90                   	nop
    5a81:	c9                   	leave  
    5a82:	c3                   	ret    
    5a83:	90                   	nop
    5a84:	55                   	push   rbp
    5a85:	48 89 e5             	mov    rbp,rsp
    5a88:	48 83 ec 10          	sub    rsp,0x10
    5a8c:	48 89 7d f8          	mov    QWORD PTR [rbp-0x8],rdi
    5a90:	48 8b 45 f8          	mov    rax,QWORD PTR [rbp-0x8]
    5a94:	48 89 c7             	mov    rdi,rax
    5a97:	e8 94 ff ff ff       	call   5a30 <__cxa_finalize@plt+0x2e20>
    5a9c:	90                   	nop
    5a9d:	c9                   	leave  
    5a9e:	c3                   	ret    
    5a9f:	90                   	nop
    5aa0:	55                   	push   rbp
    5aa1:	48 89 e5             	mov    rbp,rsp
    5aa4:	48 83 ec 10          	sub    rsp,0x10
    5aa8:	48 89 7d f8          	mov    QWORD PTR [rbp-0x8],rdi
    5aac:	48 8b 45 f8          	mov    rax,QWORD PTR [rbp-0x8]
    5ab0:	48 89 c7             	mov    rdi,rax
    5ab3:	e8 cc ff ff ff       	call   5a84 <__cxa_finalize@plt+0x2e74>
    5ab8:	90                   	nop
    5ab9:	c9                   	leave  
    5aba:	c3                   	ret    
    5abb:	90                   	nop
    5abc:	55                   	push   rbp
    5abd:	48 89 e5             	mov    rbp,rsp
    5ac0:	48 83 ec 10          	sub    rsp,0x10
    5ac4:	48 89 7d f8          	mov    QWORD PTR [rbp-0x8],rdi
    5ac8:	48 8b 45 f8          	mov    rax,QWORD PTR [rbp-0x8]
    5acc:	48 89 c7             	mov    rdi,rax
    5acf:	e8 52 07 00 00       	call   6226 <__cxa_finalize@plt+0x3616>
    5ad4:	90                   	nop
    5ad5:	c9                   	leave  
    5ad6:	c3                   	ret    
    5ad7:	90                   	nop
    5ad8:	55                   	push   rbp
    5ad9:	48 89 e5             	mov    rbp,rsp
    5adc:	48 83 ec 10          	sub    rsp,0x10
    5ae0:	48 89 7d f8          	mov    QWORD PTR [rbp-0x8],rdi
    5ae4:	48 8b 45 f8          	mov    rax,QWORD PTR [rbp-0x8]
    5ae8:	48 89 c7             	mov    rdi,rax
    5aeb:	e8 42 07 00 00       	call   6232 <__cxa_finalize@plt+0x3622>
    5af0:	90                   	nop
    5af1:	c9                   	leave  
    5af2:	c3                   	ret    
    5af3:	90                   	nop
    5af4:	55                   	push   rbp
    5af5:	48 89 e5             	mov    rbp,rsp
    5af8:	48 89 7d f8          	mov    QWORD PTR [rbp-0x8],rdi
    5afc:	90                   	nop
    5afd:	5d                   	pop    rbp
    5afe:	c3                   	ret    
    5aff:	90                   	nop
    5b00:	55                   	push   rbp
    5b01:	48 89 e5             	mov    rbp,rsp
    5b04:	48 83 ec 10          	sub    rsp,0x10
    5b08:	48 89 7d f8          	mov    QWORD PTR [rbp-0x8],rdi
    5b0c:	48 8b 45 f8          	mov    rax,QWORD PTR [rbp-0x8]
    5b10:	48 89 c7             	mov    rdi,rax
    5b13:	e8 8c 07 00 00       	call   62a4 <__cxa_finalize@plt+0x3694>
    5b18:	48 89 c2             	mov    rdx,rax
    5b1b:	48 8b 45 f8          	mov    rax,QWORD PTR [rbp-0x8]
    5b1f:	48 89 d6             	mov    rsi,rdx
    5b22:	48 89 c7             	mov    rdi,rax
    5b25:	e8 14 07 00 00       	call   623e <__cxa_finalize@plt+0x362e>
    5b2a:	48 8b 45 f8          	mov    rax,QWORD PTR [rbp-0x8]
    5b2e:	48 89 c7             	mov    rdi,rax
    5b31:	e8 a6 fe ff ff       	call   59dc <__cxa_finalize@plt+0x2dcc>
    5b36:	90                   	nop
    5b37:	c9                   	leave  
    5b38:	c3                   	ret    
    5b39:	90                   	nop
    5b3a:	55                   	push   rbp
    5b3b:	48 89 e5             	mov    rbp,rsp
    5b3e:	48 83 ec 10          	sub    rsp,0x10
    5b42:	48 89 7d f8          	mov    QWORD PTR [rbp-0x8],rdi
    5b46:	48 8b 45 f8          	mov    rax,QWORD PTR [rbp-0x8]
    5b4a:	48 89 c7             	mov    rdi,rax
    5b4d:	e8 64 07 00 00       	call   62b6 <__cxa_finalize@plt+0x36a6>
    5b52:	90                   	nop
    5b53:	c9                   	leave  
    5b54:	c3                   	ret    
    5b55:	90                   	nop
    5b56:	55                   	push   rbp
    5b57:	48 89 e5             	mov    rbp,rsp
    5b5a:	48 83 ec 10          	sub    rsp,0x10
    5b5e:	48 89 7d f8          	mov    QWORD PTR [rbp-0x8],rdi
    5b62:	48 8b 45 f8          	mov    rax,QWORD PTR [rbp-0x8]
    5b66:	48 89 c7             	mov    rdi,rax
    5b69:	e8 54 07 00 00       	call   62c2 <__cxa_finalize@plt+0x36b2>
    5b6e:	90                   	nop
    5b6f:	c9                   	leave  
    5b70:	c3                   	ret    
    5b71:	90                   	nop
    5b72:	55                   	push   rbp
    5b73:	48 89 e5             	mov    rbp,rsp
    5b76:	48 83 ec 10          	sub    rsp,0x10
    5b7a:	48 89 7d f8          	mov    QWORD PTR [rbp-0x8],rdi
    5b7e:	48 8b 45 f8          	mov    rax,QWORD PTR [rbp-0x8]
    5b82:	48 89 c7             	mov    rdi,rax
    5b85:	e8 aa 07 00 00       	call   6334 <__cxa_finalize@plt+0x3724>
    5b8a:	48 89 c2             	mov    rdx,rax
    5b8d:	48 8b 45 f8          	mov    rax,QWORD PTR [rbp-0x8]
    5b91:	48 89 d6             	mov    rsi,rdx
    5b94:	48 89 c7             	mov    rdi,rax
    5b97:	e8 32 07 00 00       	call   62ce <__cxa_finalize@plt+0x36be>
    5b9c:	48 8b 45 f8          	mov    rax,QWORD PTR [rbp-0x8]
    5ba0:	48 89 c7             	mov    rdi,rax
    5ba3:	e8 c0 fe ff ff       	call   5a68 <__cxa_finalize@plt+0x2e58>
    5ba8:	90                   	nop
    5ba9:	c9                   	leave  
    5baa:	c3                   	ret    
    5bab:	55                   	push   rbp
    5bac:	48 89 e5             	mov    rbp,rsp
    5baf:	48 89 7d f8          	mov    QWORD PTR [rbp-0x8],rdi
    5bb3:	48 8b 45 f8          	mov    rax,QWORD PTR [rbp-0x8]
    5bb7:	5d                   	pop    rbp
    5bb8:	c3                   	ret    
    5bb9:	55                   	push   rbp
    5bba:	48 89 e5             	mov    rbp,rsp
    5bbd:	48 89 7d f8          	mov    QWORD PTR [rbp-0x8],rdi
    5bc1:	48 8b 45 f8          	mov    rax,QWORD PTR [rbp-0x8]
    5bc5:	5d                   	pop    rbp
    5bc6:	c3                   	ret    
    5bc7:	90                   	nop
    5bc8:	55                   	push   rbp
    5bc9:	48 89 e5             	mov    rbp,rsp
    5bcc:	53                   	push   rbx
    5bcd:	48 83 ec 18          	sub    rsp,0x18
    5bd1:	48 89 7d e8          	mov    QWORD PTR [rbp-0x18],rdi
    5bd5:	48 89 75 e0          	mov    QWORD PTR [rbp-0x20],rsi
    5bd9:	48 8b 5d e8          	mov    rbx,QWORD PTR [rbp-0x18]
    5bdd:	48 8b 45 e0          	mov    rax,QWORD PTR [rbp-0x20]
    5be1:	48 89 c7             	mov    rdi,rax
    5be4:	e8 d0 ff ff ff       	call   5bb9 <__cxa_finalize@plt+0x2fa9>
    5be9:	48 89 c6             	mov    rsi,rax
    5bec:	48 89 df             	mov    rdi,rbx
    5bef:	e8 08 00 00 00       	call   5bfc <__cxa_finalize@plt+0x2fec>
    5bf4:	90                   	nop
    5bf5:	48 83 c4 18          	add    rsp,0x18
    5bf9:	5b                   	pop    rbx
    5bfa:	5d                   	pop    rbp
    5bfb:	c3                   	ret    
    5bfc:	55                   	push   rbp
    5bfd:	48 89 e5             	mov    rbp,rsp
    5c00:	53                   	push   rbx
    5c01:	48 83 ec 18          	sub    rsp,0x18
    5c05:	48 89 7d e8          	mov    QWORD PTR [rbp-0x18],rdi
    5c09:	48 89 75 e0          	mov    QWORD PTR [rbp-0x20],rsi
    5c0d:	48 8b 5d e8          	mov    rbx,QWORD PTR [rbp-0x18]
    5c11:	48 8b 45 e0          	mov    rax,QWORD PTR [rbp-0x20]
    5c15:	48 89 c7             	mov    rdi,rax
    5c18:	e8 9c ff ff ff       	call   5bb9 <__cxa_finalize@plt+0x2fa9>
    5c1d:	48 89 c6             	mov    rsi,rax
    5c20:	48 89 df             	mov    rdi,rbx
    5c23:	e8 08 00 00 00       	call   5c30 <__cxa_finalize@plt+0x3020>
    5c28:	90                   	nop
    5c29:	48 83 c4 18          	add    rsp,0x18
    5c2d:	5b                   	pop    rbx
    5c2e:	5d                   	pop    rbp
    5c2f:	c3                   	ret    
    5c30:	55                   	push   rbp
    5c31:	48 89 e5             	mov    rbp,rsp
    5c34:	48 83 ec 10          	sub    rsp,0x10
    5c38:	48 89 7d f8          	mov    QWORD PTR [rbp-0x8],rdi
    5c3c:	48 89 75 f0          	mov    QWORD PTR [rbp-0x10],rsi
    5c40:	48 8b 45 f0          	mov    rax,QWORD PTR [rbp-0x10]
    5c44:	48 89 c7             	mov    rdi,rax
    5c47:	e8 6d ff ff ff       	call   5bb9 <__cxa_finalize@plt+0x2fa9>
    5c4c:	48 89 c2             	mov    rdx,rax
    5c4f:	48 8b 45 f8          	mov    rax,QWORD PTR [rbp-0x8]
    5c53:	48 89 10             	mov    QWORD PTR [rax],rdx
    5c56:	90                   	nop
    5c57:	c9                   	leave  
    5c58:	c3                   	ret    
    5c59:	90                   	nop
    5c5a:	55                   	push   rbp
    5c5b:	48 89 e5             	mov    rbp,rsp
    5c5e:	48 83 ec 10          	sub    rsp,0x10
    5c62:	48 89 7d f8          	mov    QWORD PTR [rbp-0x8],rdi
    5c66:	48 89 75 f0          	mov    QWORD PTR [rbp-0x10],rsi
    5c6a:	48 8b 45 f8          	mov    rax,QWORD PTR [rbp-0x8]
    5c6e:	48 8b 55 f0          	mov    rdx,QWORD PTR [rbp-0x10]
    5c72:	48 89 d6             	mov    rsi,rdx
    5c75:	48 89 c7             	mov    rdi,rax
    5c78:	e8 e5 07 00 00       	call   6462 <__cxa_finalize@plt+0x3852>
    5c7d:	90                   	nop
    5c7e:	c9                   	leave  
    5c7f:	c3                   	ret    
    5c80:	55                   	push   rbp
    5c81:	48 89 e5             	mov    rbp,rsp
    5c84:	48 83 ec 10          	sub    rsp,0x10
    5c88:	48 89 7d f8          	mov    QWORD PTR [rbp-0x8],rdi
    5c8c:	48 89 75 f0          	mov    QWORD PTR [rbp-0x10],rsi
    5c90:	48 8b 45 f0          	mov    rax,QWORD PTR [rbp-0x10]
    5c94:	48 89 c7             	mov    rdi,rax
    5c97:	e8 1d ff ff ff       	call   5bb9 <__cxa_finalize@plt+0x2fa9>
    5c9c:	48 89 c2             	mov    rdx,rax
    5c9f:	48 8b 45 f8          	mov    rax,QWORD PTR [rbp-0x8]
    5ca3:	48 89 d6             	mov    rsi,rdx
    5ca6:	48 89 c7             	mov    rdi,rax
    5ca9:	e8 1a ff ff ff       	call   5bc8 <__cxa_finalize@plt+0x2fb8>
    5cae:	48 8b 45 f8          	mov    rax,QWORD PTR [rbp-0x8]
    5cb2:	c9                   	leave  
    5cb3:	c3                   	ret    
    5cb4:	55                   	push   rbp
    5cb5:	48 89 e5             	mov    rbp,rsp
    5cb8:	53                   	push   rbx
    5cb9:	48 83 ec 48          	sub    rsp,0x48
    5cbd:	48 89 7d b8          	mov    QWORD PTR [rbp-0x48],rdi
    5cc1:	48 89 75 b0          	mov    QWORD PTR [rbp-0x50],rsi
    5cc5:	64 48 8b 04 25 28 00 	mov    rax,QWORD PTR fs:0x28
    5ccc:	00 00 
    5cce:	48 89 45 e8          	mov    QWORD PTR [rbp-0x18],rax
    5cd2:	31 c0                	xor    eax,eax
    5cd4:	48 8b 55 b0          	mov    rdx,QWORD PTR [rbp-0x50]
    5cd8:	48 8b 45 b8          	mov    rax,QWORD PTR [rbp-0x48]
    5cdc:	48 89 d6             	mov    rsi,rdx
    5cdf:	48 89 c7             	mov    rdi,rax
    5ce2:	e8 5f 06 00 00       	call   6346 <__cxa_finalize@plt+0x3736>
    5ce7:	48 89 45 d0          	mov    QWORD PTR [rbp-0x30],rax
    5ceb:	48 8b 45 b8          	mov    rax,QWORD PTR [rbp-0x48]
    5cef:	48 89 c7             	mov    rdi,rax
    5cf2:	e8 75 06 00 00       	call   636c <__cxa_finalize@plt+0x375c>
    5cf7:	48 89 45 e0          	mov    QWORD PTR [rbp-0x20],rax
    5cfb:	48 8d 55 e0          	lea    rdx,[rbp-0x20]
    5cff:	48 8d 45 d0          	lea    rax,[rbp-0x30]
    5d03:	48 89 d6             	mov    rsi,rdx
    5d06:	48 89 c7             	mov    rdi,rax
    5d09:	e8 78 06 00 00       	call   6386 <__cxa_finalize@plt+0x3776>
    5d0e:	84 c0                	test   al,al
    5d10:	75 32                	jne    5d44 <__cxa_finalize@plt+0x3134>
    5d12:	48 8b 45 b8          	mov    rax,QWORD PTR [rbp-0x48]
    5d16:	48 89 c7             	mov    rdi,rax
    5d19:	e8 8a 06 00 00       	call   63a8 <__cxa_finalize@plt+0x3798>
    5d1e:	48 8d 45 d0          	lea    rax,[rbp-0x30]
    5d22:	48 89 c7             	mov    rdi,rax
    5d25:	e8 a0 06 00 00       	call   63ca <__cxa_finalize@plt+0x37ba>
    5d2a:	48 89 c2             	mov    rdx,rax
    5d2d:	48 8b 4d b0          	mov    rcx,QWORD PTR [rbp-0x50]
    5d31:	48 8d 45 d8          	lea    rax,[rbp-0x28]
    5d35:	48 89 ce             	mov    rsi,rcx
    5d38:	48 89 c7             	mov    rdi,rax
    5d3b:	e8 a8 06 00 00       	call   63e8 <__cxa_finalize@plt+0x37d8>
    5d40:	84 c0                	test   al,al
    5d42:	74 07                	je     5d4b <__cxa_finalize@plt+0x313b>
    5d44:	b8 01 00 00 00       	mov    eax,0x1
    5d49:	eb 05                	jmp    5d50 <__cxa_finalize@plt+0x3140>
    5d4b:	b8 00 00 00 00       	mov    eax,0x0
    5d50:	84 c0                	test   al,al
    5d52:	74 5d                	je     5db1 <__cxa_finalize@plt+0x31a1>
    5d54:	48 8b 5d b8          	mov    rbx,QWORD PTR [rbp-0x48]
    5d58:	48 8b 45 b0          	mov    rax,QWORD PTR [rbp-0x50]
    5d5c:	48 89 c7             	mov    rdi,rax
    5d5f:	e8 47 fe ff ff       	call   5bab <__cxa_finalize@plt+0x2f9b>
    5d64:	48 89 c2             	mov    rdx,rax
    5d67:	48 8d 45 d8          	lea    rax,[rbp-0x28]
    5d6b:	48 89 d6             	mov    rsi,rdx
    5d6e:	48 89 c7             	mov    rdi,rax
    5d71:	e8 0a ff ff ff       	call   5c80 <__cxa_finalize@plt+0x3070>
    5d76:	48 8d 55 d0          	lea    rdx,[rbp-0x30]
    5d7a:	48 8d 45 e0          	lea    rax,[rbp-0x20]
    5d7e:	48 89 d6             	mov    rsi,rdx
    5d81:	48 89 c7             	mov    rdi,rax
    5d84:	e8 83 06 00 00       	call   640c <__cxa_finalize@plt+0x37fc>
    5d89:	48 8d 4d cf          	lea    rcx,[rbp-0x31]
    5d8d:	48 8d 55 d8          	lea    rdx,[rbp-0x28]
    5d91:	48 8b 45 e0          	mov    rax,QWORD PTR [rbp-0x20]
    5d95:	49 89 c8             	mov    r8,rcx
    5d98:	48 89 d1             	mov    rcx,rdx
    5d9b:	48 8d 15 76 39 00 00 	lea    rdx,[rip+0x3976]        # 9718 <__cxa_finalize@plt+0x6b08>
    5da2:	48 89 c6             	mov    rsi,rax
    5da5:	48 89 df             	mov    rdi,rbx
    5da8:	e8 1b 07 00 00       	call   64c8 <__cxa_finalize@plt+0x38b8>
    5dad:	48 89 45 d0          	mov    QWORD PTR [rbp-0x30],rax
    5db1:	48 8d 45 d0          	lea    rax,[rbp-0x30]
    5db5:	48 89 c7             	mov    rdi,rax
    5db8:	e8 0d 06 00 00       	call   63ca <__cxa_finalize@plt+0x37ba>
    5dbd:	48 83 c0 04          	add    rax,0x4
    5dc1:	48 8b 5d e8          	mov    rbx,QWORD PTR [rbp-0x18]
    5dc5:	64 48 33 1c 25 28 00 	xor    rbx,QWORD PTR fs:0x28
    5dcc:	00 00 
    5dce:	74 05                	je     5dd5 <__cxa_finalize@plt+0x31c5>
    5dd0:	e8 2b cc ff ff       	call   2a00 <__stack_chk_fail@plt>
    5dd5:	48 83 c4 48          	add    rsp,0x48
    5dd9:	5b                   	pop    rbx
    5dda:	5d                   	pop    rbp
    5ddb:	c3                   	ret    
    5ddc:	55                   	push   rbp
    5ddd:	48 89 e5             	mov    rbp,rsp
    5de0:	53                   	push   rbx
    5de1:	48 83 ec 48          	sub    rsp,0x48
    5de5:	48 89 7d b8          	mov    QWORD PTR [rbp-0x48],rdi
    5de9:	48 89 75 b0          	mov    QWORD PTR [rbp-0x50],rsi
    5ded:	64 48 8b 04 25 28 00 	mov    rax,QWORD PTR fs:0x28
    5df4:	00 00 
    5df6:	48 89 45 e8          	mov    QWORD PTR [rbp-0x18],rax
    5dfa:	31 c0                	xor    eax,eax
    5dfc:	48 8b 55 b0          	mov    rdx,QWORD PTR [rbp-0x50]
    5e00:	48 8b 45 b8          	mov    rax,QWORD PTR [rbp-0x48]
    5e04:	48 89 d6             	mov    rsi,rdx
    5e07:	48 89 c7             	mov    rdi,rax
    5e0a:	e8 f3 07 00 00       	call   6602 <__cxa_finalize@plt+0x39f2>
    5e0f:	48 89 45 d0          	mov    QWORD PTR [rbp-0x30],rax
    5e13:	48 8b 45 b8          	mov    rax,QWORD PTR [rbp-0x48]
    5e17:	48 89 c7             	mov    rdi,rax
    5e1a:	e8 09 08 00 00       	call   6628 <__cxa_finalize@plt+0x3a18>
    5e1f:	48 89 45 e0          	mov    QWORD PTR [rbp-0x20],rax
    5e23:	48 8d 55 e0          	lea    rdx,[rbp-0x20]
    5e27:	48 8d 45 d0          	lea    rax,[rbp-0x30]
    5e2b:	48 89 d6             	mov    rsi,rdx
    5e2e:	48 89 c7             	mov    rdi,rax
    5e31:	e8 0c 08 00 00       	call   6642 <__cxa_finalize@plt+0x3a32>
    5e36:	84 c0                	test   al,al
    5e38:	75 32                	jne    5e6c <__cxa_finalize@plt+0x325c>
    5e3a:	48 8b 45 b8          	mov    rax,QWORD PTR [rbp-0x48]
    5e3e:	48 89 c7             	mov    rdi,rax
    5e41:	e8 1e 08 00 00       	call   6664 <__cxa_finalize@plt+0x3a54>
    5e46:	48 8d 45 d0          	lea    rax,[rbp-0x30]
    5e4a:	48 89 c7             	mov    rdi,rax
    5e4d:	e8 34 08 00 00       	call   6686 <__cxa_finalize@plt+0x3a76>
    5e52:	48 89 c2             	mov    rdx,rax
    5e55:	48 8b 4d b0          	mov    rcx,QWORD PTR [rbp-0x50]
    5e59:	48 8d 45 d8          	lea    rax,[rbp-0x28]
    5e5d:	48 89 ce             	mov    rsi,rcx
    5e60:	48 89 c7             	mov    rdi,rax
    5e63:	e8 80 05 00 00       	call   63e8 <__cxa_finalize@plt+0x37d8>
    5e68:	84 c0                	test   al,al
    5e6a:	74 07                	je     5e73 <__cxa_finalize@plt+0x3263>
    5e6c:	b8 01 00 00 00       	mov    eax,0x1
    5e71:	eb 05                	jmp    5e78 <__cxa_finalize@plt+0x3268>
    5e73:	b8 00 00 00 00       	mov    eax,0x0
    5e78:	84 c0                	test   al,al
    5e7a:	74 5d                	je     5ed9 <__cxa_finalize@plt+0x32c9>
    5e7c:	48 8b 5d b8          	mov    rbx,QWORD PTR [rbp-0x48]
    5e80:	48 8b 45 b0          	mov    rax,QWORD PTR [rbp-0x50]
    5e84:	48 89 c7             	mov    rdi,rax
    5e87:	e8 1f fd ff ff       	call   5bab <__cxa_finalize@plt+0x2f9b>
    5e8c:	48 89 c2             	mov    rdx,rax
    5e8f:	48 8d 45 d8          	lea    rax,[rbp-0x28]
    5e93:	48 89 d6             	mov    rsi,rdx
    5e96:	48 89 c7             	mov    rdi,rax
    5e99:	e8 e2 fd ff ff       	call   5c80 <__cxa_finalize@plt+0x3070>
    5e9e:	48 8d 55 d0          	lea    rdx,[rbp-0x30]
    5ea2:	48 8d 45 e0          	lea    rax,[rbp-0x20]
    5ea6:	48 89 d6             	mov    rsi,rdx
    5ea9:	48 89 c7             	mov    rdi,rax
    5eac:	e8 f3 07 00 00       	call   66a4 <__cxa_finalize@plt+0x3a94>
    5eb1:	48 8d 4d cf          	lea    rcx,[rbp-0x31]
    5eb5:	48 8d 55 d8          	lea    rdx,[rbp-0x28]
    5eb9:	48 8b 45 e0          	mov    rax,QWORD PTR [rbp-0x20]
    5ebd:	49 89 c8             	mov    r8,rcx
    5ec0:	48 89 d1             	mov    rcx,rdx
    5ec3:	48 8d 15 4e 38 00 00 	lea    rdx,[rip+0x384e]        # 9718 <__cxa_finalize@plt+0x6b08>
    5eca:	48 89 c6             	mov    rsi,rax
    5ecd:	48 89 df             	mov    rdi,rbx
    5ed0:	e8 ed 07 00 00       	call   66c2 <__cxa_finalize@plt+0x3ab2>
    5ed5:	48 89 45 d0          	mov    QWORD PTR [rbp-0x30],rax
    5ed9:	48 8d 45 d0          	lea    rax,[rbp-0x30]
    5edd:	48 89 c7             	mov    rdi,rax
    5ee0:	e8 a1 07 00 00       	call   6686 <__cxa_finalize@plt+0x3a76>
    5ee5:	48 83 c0 04          	add    rax,0x4
    5ee9:	48 8b 5d e8          	mov    rbx,QWORD PTR [rbp-0x18]
    5eed:	64 48 33 1c 25 28 00 	xor    rbx,QWORD PTR fs:0x28
    5ef4:	00 00 
    5ef6:	74 05                	je     5efd <__cxa_finalize@plt+0x32ed>
    5ef8:	e8 03 cb ff ff       	call   2a00 <__stack_chk_fail@plt>
    5efd:	48 83 c4 48          	add    rsp,0x48
    5f01:	5b                   	pop    rbx
    5f02:	5d                   	pop    rbp
    5f03:	c3                   	ret    
    5f04:	55                   	push   rbp
    5f05:	48 89 e5             	mov    rbp,rsp
    5f08:	48 83 ec 30          	sub    rsp,0x30
    5f0c:	48 89 7d d8          	mov    QWORD PTR [rbp-0x28],rdi
    5f10:	48 89 75 d0          	mov    QWORD PTR [rbp-0x30],rsi
    5f14:	64 48 8b 04 25 28 00 	mov    rax,QWORD PTR fs:0x28
    5f1b:	00 00 
    5f1d:	48 89 45 f8          	mov    QWORD PTR [rbp-0x8],rax
    5f21:	31 c0                	xor    eax,eax
    5f23:	48 8b 45 d8          	mov    rax,QWORD PTR [rbp-0x28]
    5f27:	48 89 c7             	mov    rdi,rax
    5f2a:	e8 9f 09 00 00       	call   68ce <__cxa_finalize@plt+0x3cbe>
    5f2f:	48 89 45 f0          	mov    QWORD PTR [rbp-0x10],rax
    5f33:	48 8b 45 d8          	mov    rax,QWORD PTR [rbp-0x28]
    5f37:	48 8b 55 d0          	mov    rdx,QWORD PTR [rbp-0x30]
    5f3b:	48 89 d6             	mov    rsi,rdx
    5f3e:	48 89 c7             	mov    rdi,rax
    5f41:	e8 b6 08 00 00       	call   67fc <__cxa_finalize@plt+0x3bec>
    5f46:	48 89 45 e8          	mov    QWORD PTR [rbp-0x18],rax
    5f4a:	48 8d 55 f0          	lea    rdx,[rbp-0x10]
    5f4e:	48 8d 45 e8          	lea    rax,[rbp-0x18]
    5f52:	48 89 d6             	mov    rsi,rdx
    5f55:	48 89 c7             	mov    rdi,rax
    5f58:	e8 bd 09 00 00       	call   691a <__cxa_finalize@plt+0x3d0a>
    5f5d:	84 c0                	test   al,al
    5f5f:	74 07                	je     5f68 <__cxa_finalize@plt+0x3358>
    5f61:	b8 00 00 00 00       	mov    eax,0x0
    5f66:	eb 05                	jmp    5f6d <__cxa_finalize@plt+0x335d>
    5f68:	b8 01 00 00 00       	mov    eax,0x1
    5f6d:	48 8b 4d f8          	mov    rcx,QWORD PTR [rbp-0x8]
    5f71:	64 48 33 0c 25 28 00 	xor    rcx,QWORD PTR fs:0x28
    5f78:	00 00 
    5f7a:	74 05                	je     5f81 <__cxa_finalize@plt+0x3371>
    5f7c:	e8 7f ca ff ff       	call   2a00 <__stack_chk_fail@plt>
    5f81:	c9                   	leave  
    5f82:	c3                   	ret    
    5f83:	90                   	nop
    5f84:	55                   	push   rbp
    5f85:	48 89 e5             	mov    rbp,rsp
    5f88:	48 83 ec 10          	sub    rsp,0x10
    5f8c:	48 89 7d f8          	mov    QWORD PTR [rbp-0x8],rdi
    5f90:	48 89 75 f0          	mov    QWORD PTR [rbp-0x10],rsi
    5f94:	48 8b 45 f8          	mov    rax,QWORD PTR [rbp-0x8]
    5f98:	48 8b 55 f0          	mov    rdx,QWORD PTR [rbp-0x10]
    5f9c:	48 89 d6             	mov    rsi,rdx
    5f9f:	48 89 c7             	mov    rdi,rax
    5fa2:	e8 03 00 00 00       	call   5faa <__cxa_finalize@plt+0x339a>
    5fa7:	90                   	nop
    5fa8:	c9                   	leave  
    5fa9:	c3                   	ret    
    5faa:	55                   	push   rbp
    5fab:	48 89 e5             	mov    rbp,rsp
    5fae:	48 83 ec 10          	sub    rsp,0x10
    5fb2:	48 89 7d f8          	mov    QWORD PTR [rbp-0x8],rdi
    5fb6:	48 89 75 f0          	mov    QWORD PTR [rbp-0x10],rsi
    5fba:	48 8b 45 f8          	mov    rax,QWORD PTR [rbp-0x8]
    5fbe:	48 8b 55 f0          	mov    rdx,QWORD PTR [rbp-0x10]
    5fc2:	48 89 d6             	mov    rsi,rdx
    5fc5:	48 89 c7             	mov    rdi,rax
    5fc8:	e8 03 00 00 00       	call   5fd0 <__cxa_finalize@plt+0x33c0>
    5fcd:	90                   	nop
    5fce:	c9                   	leave  
    5fcf:	c3                   	ret    
    5fd0:	55                   	push   rbp
    5fd1:	48 89 e5             	mov    rbp,rsp
    5fd4:	48 89 7d f8          	mov    QWORD PTR [rbp-0x8],rdi
    5fd8:	48 89 75 f0          	mov    QWORD PTR [rbp-0x10],rsi
    5fdc:	48 8b 45 f8          	mov    rax,QWORD PTR [rbp-0x8]
    5fe0:	48 8b 55 f0          	mov    rdx,QWORD PTR [rbp-0x10]
    5fe4:	48 89 10             	mov    QWORD PTR [rax],rdx
    5fe7:	90                   	nop
    5fe8:	5d                   	pop    rbp
    5fe9:	c3                   	ret    
    5fea:	55                   	push   rbp
    5feb:	48 89 e5             	mov    rbp,rsp
    5fee:	53                   	push   rbx
    5fef:	48 83 ec 48          	sub    rsp,0x48
    5ff3:	48 89 7d b8          	mov    QWORD PTR [rbp-0x48],rdi
    5ff7:	48 89 75 b0          	mov    QWORD PTR [rbp-0x50],rsi
    5ffb:	64 48 8b 04 25 28 00 	mov    rax,QWORD PTR fs:0x28
    6002:	00 00 
    6004:	48 89 45 e8          	mov    QWORD PTR [rbp-0x18],rax
    6008:	31 c0                	xor    eax,eax
    600a:	48 8b 55 b0          	mov    rdx,QWORD PTR [rbp-0x50]
    600e:	48 8b 45 b8          	mov    rax,QWORD PTR [rbp-0x48]
    6012:	48 89 d6             	mov    rsi,rdx
    6015:	48 89 c7             	mov    rdi,rax
    6018:	e8 e5 05 00 00       	call   6602 <__cxa_finalize@plt+0x39f2>
    601d:	48 89 45 d0          	mov    QWORD PTR [rbp-0x30],rax
    6021:	48 8b 45 b8          	mov    rax,QWORD PTR [rbp-0x48]
    6025:	48 89 c7             	mov    rdi,rax
    6028:	e8 fb 05 00 00       	call   6628 <__cxa_finalize@plt+0x3a18>
    602d:	48 89 45 e0          	mov    QWORD PTR [rbp-0x20],rax
    6031:	48 8d 55 e0          	lea    rdx,[rbp-0x20]
    6035:	48 8d 45 d0          	lea    rax,[rbp-0x30]
    6039:	48 89 d6             	mov    rsi,rdx
    603c:	48 89 c7             	mov    rdi,rax
    603f:	e8 fe 05 00 00       	call   6642 <__cxa_finalize@plt+0x3a32>
    6044:	84 c0                	test   al,al
    6046:	75 32                	jne    607a <__cxa_finalize@plt+0x346a>
    6048:	48 8b 45 b8          	mov    rax,QWORD PTR [rbp-0x48]
    604c:	48 89 c7             	mov    rdi,rax
    604f:	e8 10 06 00 00       	call   6664 <__cxa_finalize@plt+0x3a54>
    6054:	48 8d 45 d0          	lea    rax,[rbp-0x30]
    6058:	48 89 c7             	mov    rdi,rax
    605b:	e8 26 06 00 00       	call   6686 <__cxa_finalize@plt+0x3a76>
    6060:	48 89 c2             	mov    rdx,rax
    6063:	48 8b 4d b0          	mov    rcx,QWORD PTR [rbp-0x50]
    6067:	48 8d 45 d8          	lea    rax,[rbp-0x28]
    606b:	48 89 ce             	mov    rsi,rcx
    606e:	48 89 c7             	mov    rdi,rax
    6071:	e8 72 03 00 00       	call   63e8 <__cxa_finalize@plt+0x37d8>
    6076:	84 c0                	test   al,al
    6078:	74 07                	je     6081 <__cxa_finalize@plt+0x3471>
    607a:	b8 01 00 00 00       	mov    eax,0x1
    607f:	eb 05                	jmp    6086 <__cxa_finalize@plt+0x3476>
    6081:	b8 00 00 00 00       	mov    eax,0x0
    6086:	84 c0                	test   al,al
    6088:	74 52                	je     60dc <__cxa_finalize@plt+0x34cc>
    608a:	48 8b 5d b8          	mov    rbx,QWORD PTR [rbp-0x48]
    608e:	48 8b 55 b0          	mov    rdx,QWORD PTR [rbp-0x50]
    6092:	48 8d 45 d8          	lea    rax,[rbp-0x28]
    6096:	48 89 d6             	mov    rsi,rdx
    6099:	48 89 c7             	mov    rdi,rax
    609c:	e8 e3 fe ff ff       	call   5f84 <__cxa_finalize@plt+0x3374>
    60a1:	48 8d 55 d0          	lea    rdx,[rbp-0x30]
    60a5:	48 8d 45 e0          	lea    rax,[rbp-0x20]
    60a9:	48 89 d6             	mov    rsi,rdx
    60ac:	48 89 c7             	mov    rdi,rax
    60af:	e8 f0 05 00 00       	call   66a4 <__cxa_finalize@plt+0x3a94>
    60b4:	48 8d 4d cf          	lea    rcx,[rbp-0x31]
    60b8:	48 8d 55 d8          	lea    rdx,[rbp-0x28]
    60bc:	48 8b 45 e0          	mov    rax,QWORD PTR [rbp-0x20]
    60c0:	49 89 c8             	mov    r8,rcx
    60c3:	48 89 d1             	mov    rcx,rdx
    60c6:	48 8d 15 4b 36 00 00 	lea    rdx,[rip+0x364b]        # 9718 <__cxa_finalize@plt+0x6b08>
    60cd:	48 89 c6             	mov    rsi,rax
    60d0:	48 89 df             	mov    rdi,rbx
    60d3:	e8 72 08 00 00       	call   694a <__cxa_finalize@plt+0x3d3a>
    60d8:	48 89 45 d0          	mov    QWORD PTR [rbp-0x30],rax
    60dc:	48 8d 45 d0          	lea    rax,[rbp-0x30]
    60e0:	48 89 c7             	mov    rdi,rax
    60e3:	e8 9e 05 00 00       	call   6686 <__cxa_finalize@plt+0x3a76>
    60e8:	48 83 c0 04          	add    rax,0x4
    60ec:	48 8b 5d e8          	mov    rbx,QWORD PTR [rbp-0x18]
    60f0:	64 48 33 1c 25 28 00 	xor    rbx,QWORD PTR fs:0x28
    60f7:	00 00 
    60f9:	74 05                	je     6100 <__cxa_finalize@plt+0x34f0>
    60fb:	e8 00 c9 ff ff       	call   2a00 <__stack_chk_fail@plt>
    6100:	48 83 c4 48          	add    rsp,0x48
    6104:	5b                   	pop    rbx
    6105:	5d                   	pop    rbp
    6106:	c3                   	ret    
    6107:	90                   	nop
    6108:	55                   	push   rbp
    6109:	48 89 e5             	mov    rbp,rsp
    610c:	53                   	push   rbx
    610d:	48 83 ec 48          	sub    rsp,0x48
    6111:	48 89 7d b8          	mov    QWORD PTR [rbp-0x48],rdi
    6115:	48 89 75 b0          	mov    QWORD PTR [rbp-0x50],rsi
    6119:	64 48 8b 04 25 28 00 	mov    rax,QWORD PTR fs:0x28
    6120:	00 00 
    6122:	48 89 45 e8          	mov    QWORD PTR [rbp-0x18],rax
    6126:	31 c0                	xor    eax,eax
    6128:	48 8b 55 b0          	mov    rdx,QWORD PTR [rbp-0x50]
    612c:	48 8b 45 b8          	mov    rax,QWORD PTR [rbp-0x48]
    6130:	48 89 d6             	mov    rsi,rdx
    6133:	48 89 c7             	mov    rdi,rax
    6136:	e8 0b 02 00 00       	call   6346 <__cxa_finalize@plt+0x3736>
    613b:	48 89 45 d0          	mov    QWORD PTR [rbp-0x30],rax
    613f:	48 8b 45 b8          	mov    rax,QWORD PTR [rbp-0x48]
    6143:	48 89 c7             	mov    rdi,rax
    6146:	e8 21 02 00 00       	call   636c <__cxa_finalize@plt+0x375c>
    614b:	48 89 45 e0          	mov    QWORD PTR [rbp-0x20],rax
    614f:	48 8d 55 e0          	lea    rdx,[rbp-0x20]
    6153:	48 8d 45 d0          	lea    rax,[rbp-0x30]
    6157:	48 89 d6             	mov    rsi,rdx
    615a:	48 89 c7             	mov    rdi,rax
    615d:	e8 24 02 00 00       	call   6386 <__cxa_finalize@plt+0x3776>
    6162:	84 c0                	test   al,al
    6164:	75 32                	jne    6198 <__cxa_finalize@plt+0x3588>
    6166:	48 8b 45 b8          	mov    rax,QWORD PTR [rbp-0x48]
    616a:	48 89 c7             	mov    rdi,rax
    616d:	e8 36 02 00 00       	call   63a8 <__cxa_finalize@plt+0x3798>
    6172:	48 8d 45 d0          	lea    rax,[rbp-0x30]
    6176:	48 89 c7             	mov    rdi,rax
    6179:	e8 4c 02 00 00       	call   63ca <__cxa_finalize@plt+0x37ba>
    617e:	48 89 c2             	mov    rdx,rax
    6181:	48 8b 4d b0          	mov    rcx,QWORD PTR [rbp-0x50]
    6185:	48 8d 45 d8          	lea    rax,[rbp-0x28]
    6189:	48 89 ce             	mov    rsi,rcx
    618c:	48 89 c7             	mov    rdi,rax
    618f:	e8 54 02 00 00       	call   63e8 <__cxa_finalize@plt+0x37d8>
    6194:	84 c0                	test   al,al
    6196:	74 07                	je     619f <__cxa_finalize@plt+0x358f>
    6198:	b8 01 00 00 00       	mov    eax,0x1
    619d:	eb 05                	jmp    61a4 <__cxa_finalize@plt+0x3594>
    619f:	b8 00 00 00 00       	mov    eax,0x0
    61a4:	84 c0                	test   al,al
    61a6:	74 52                	je     61fa <__cxa_finalize@plt+0x35ea>
    61a8:	48 8b 5d b8          	mov    rbx,QWORD PTR [rbp-0x48]
    61ac:	48 8b 55 b0          	mov    rdx,QWORD PTR [rbp-0x50]
    61b0:	48 8d 45 d8          	lea    rax,[rbp-0x28]
    61b4:	48 89 d6             	mov    rsi,rdx
    61b7:	48 89 c7             	mov    rdi,rax
    61ba:	e8 c5 fd ff ff       	call   5f84 <__cxa_finalize@plt+0x3374>
    61bf:	48 8d 55 d0          	lea    rdx,[rbp-0x30]
    61c3:	48 8d 45 e0          	lea    rax,[rbp-0x20]
    61c7:	48 89 d6             	mov    rsi,rdx
    61ca:	48 89 c7             	mov    rdi,rax
    61cd:	e8 3a 02 00 00       	call   640c <__cxa_finalize@plt+0x37fc>
    61d2:	48 8d 4d cf          	lea    rcx,[rbp-0x31]
    61d6:	48 8d 55 d8          	lea    rdx,[rbp-0x28]
    61da:	48 8b 45 e0          	mov    rax,QWORD PTR [rbp-0x20]
    61de:	49 89 c8             	mov    r8,rcx
    61e1:	48 89 d1             	mov    rcx,rdx
    61e4:	48 8d 15 2d 35 00 00 	lea    rdx,[rip+0x352d]        # 9718 <__cxa_finalize@plt+0x6b08>
    61eb:	48 89 c6             	mov    rsi,rax
    61ee:	48 89 df             	mov    rdi,rbx
    61f1:	e8 8e 08 00 00       	call   6a84 <__cxa_finalize@plt+0x3e74>
    61f6:	48 89 45 d0          	mov    QWORD PTR [rbp-0x30],rax
    61fa:	48 8d 45 d0          	lea    rax,[rbp-0x30]
    61fe:	48 89 c7             	mov    rdi,rax
    6201:	e8 c4 01 00 00       	call   63ca <__cxa_finalize@plt+0x37ba>
    6206:	48 83 c0 04          	add    rax,0x4
    620a:	48 8b 5d e8          	mov    rbx,QWORD PTR [rbp-0x18]
    620e:	64 48 33 1c 25 28 00 	xor    rbx,QWORD PTR fs:0x28
    6215:	00 00 
    6217:	74 05                	je     621e <__cxa_finalize@plt+0x360e>
    6219:	e8 e2 c7 ff ff       	call   2a00 <__stack_chk_fail@plt>
    621e:	48 83 c4 48          	add    rsp,0x48
    6222:	5b                   	pop    rbx
    6223:	5d                   	pop    rbp
    6224:	c3                   	ret    
    6225:	90                   	nop
    6226:	55                   	push   rbp
    6227:	48 89 e5             	mov    rbp,rsp
    622a:	48 89 7d f8          	mov    QWORD PTR [rbp-0x8],rdi
    622e:	90                   	nop
    622f:	5d                   	pop    rbp
    6230:	c3                   	ret    
    6231:	90                   	nop
    6232:	55                   	push   rbp
    6233:	48 89 e5             	mov    rbp,rsp
    6236:	48 89 7d f8          	mov    QWORD PTR [rbp-0x8],rdi
    623a:	90                   	nop
    623b:	5d                   	pop    rbp
    623c:	c3                   	ret    
    623d:	90                   	nop
    623e:	55                   	push   rbp
    623f:	48 89 e5             	mov    rbp,rsp
    6242:	48 83 ec 20          	sub    rsp,0x20
    6246:	48 89 7d e8          	mov    QWORD PTR [rbp-0x18],rdi
    624a:	48 89 75 e0          	mov    QWORD PTR [rbp-0x20],rsi
    624e:	48 83 7d e0 00       	cmp    QWORD PTR [rbp-0x20],0x0
    6253:	74 4b                	je     62a0 <__cxa_finalize@plt+0x3690>
    6255:	48 8b 45 e0          	mov    rax,QWORD PTR [rbp-0x20]
    6259:	48 89 c7             	mov    rdi,rax
    625c:	e8 5d 09 00 00       	call   6bbe <__cxa_finalize@plt+0x3fae>
    6261:	48 89 c2             	mov    rdx,rax
